Archive member included because of file (symbol)

d:/program files (x86)/microchip/xc32/v1.20/bin/../lib/gcc/pic32mx/4.5.2/../../../../pic32mx/lib/size\libmchp_peripheral_32MX795F512L.a(soft_reset_lib.o)
                              Obj-XC32-EX16_ENC28\ENC28J60.o (SoftReset)
d:/program files (x86)/microchip/xc32/v1.20/bin/../lib/gcc/pic32mx/4.5.2/../../../../pic32mx/lib/size\libmchp_peripheral_32MX795F512L.a(pcache.o)
                              Obj-XC32-EX16_ENC28\MainDemo.o (CheKseg0CacheOn)
d:/program files (x86)/microchip/xc32/v1.20/bin/../lib/gcc/pic32mx/4.5.2/../../../../pic32mx/lib/size\libmchp_peripheral_32MX795F512L.a(int_disable_interrupts_lib.o)
                              Obj-XC32-EX16_ENC28\MainDemo.o (INTDisableInterrupts)
d:/program files (x86)/microchip/xc32/v1.20/bin/../lib/gcc/pic32mx/4.5.2/../../../../pic32mx/lib/size\libmchp_peripheral_32MX795F512L.a(int_restore_interrupts_lib.o)
                              Obj-XC32-EX16_ENC28\MainDemo.o (INTRestoreInterrupts)
d:/program files (x86)/microchip/xc32/v1.20/bin/../lib/gcc/pic32mx/4.5.2/../../../../pic32mx/lib/size\libmchp_peripheral_32MX795F512L.a(int_enable_mv_int_lib.o)
                              Obj-XC32-EX16_ENC28\MainDemo.o (INTEnableSystemMultiVectoredInt)
d:/program files (x86)/microchip/xc32/v1.20/bin/../lib/gcc/pic32mx/4.5.2/../../../../pic32mx/lib/size\libmchp_peripheral_32MX795F512L.a(puts_uartx_lib_legacy.o)
                              Obj-XC32-EX16_ENC28\MainDemo.o (putsUART2)
d:/program files (x86)/microchip/xc32/v1.20/bin/../lib/gcc/pic32mx/4.5.2/../../../../pic32mx/lib/size\libmchp_peripheral_32MX795F512L.a(int_enable_interrupts_lib.o)
                              d:/program files (x86)/microchip/xc32/v1.20/bin/../lib/gcc/pic32mx/4.5.2/../../../../pic32mx/lib/size\libmchp_peripheral_32MX795F512L.a(int_enable_mv_int_lib.o) (INTEnableInterrupts)
d:/program files (x86)/microchip/xc32/v1.20/bin/../lib/gcc/pic32mx/4.5.2/size\libgcc.a(_udivdi3.o)
                              Obj-XC32-EX16_ENC28\TCPPerformanceTest.o (__udivdi3)
d:/program files (x86)/microchip/xc32/v1.20/bin/../lib/gcc/pic32mx/4.5.2/size\libgcc.a(_umoddi3.o)
                              Obj-XC32-EX16_ENC28\DHCP.o (__umoddi3)
d:/program files (x86)/microchip/xc32/v1.20/bin/../lib/gcc/pic32mx/4.5.2/../../../../pic32mx/lib/size\libpic32.a(memcmp.o)
                              Obj-XC32-EX16_ENC28\HTTP2.o (memcmp)
d:/program files (x86)/microchip/xc32/v1.20/bin/../lib/gcc/pic32mx/4.5.2/../../../../pic32mx/lib/size\libpic32.a(memcpy.o)
                              Obj-XC32-EX16_ENC28\Announce.o (memcpy)
d:/program files (x86)/microchip/xc32/v1.20/bin/../lib/gcc/pic32mx/4.5.2/../../../../pic32mx/lib/size\libpic32.a(memset.o)
                              Obj-XC32-EX16_ENC28\DHCP.o (memset)
d:/program files (x86)/microchip/xc32/v1.20/bin/../lib/gcc/pic32mx/4.5.2/../../../../pic32mx/lib/size\libpic32.a(strcmp.o)
                              Obj-XC32-EX16_ENC28\HTTP2.o (strcmp)
d:/program files (x86)/microchip/xc32/v1.20/bin/../lib/gcc/pic32mx/4.5.2/../../../../pic32mx/lib/size\libpic32.a(strcpy.o)
                              Obj-XC32-EX16_ENC28\CustomHTTPApp.o (strcpy)
d:/program files (x86)/microchip/xc32/v1.20/bin/../lib/gcc/pic32mx/4.5.2/../../../../pic32mx/lib/size\libpic32.a(strlen.o)
                              Obj-XC32-EX16_ENC28\Helpers.o (strlen)
d:/program files (x86)/microchip/xc32/v1.20/bin/../lib/gcc/pic32mx/4.5.2/../../../../pic32mx/lib/size\libpic32.a(default-bootstrap-exception-handler.o)
                              d:/program files (x86)/microchip/xc32/v1.20/bin/../lib/gcc/pic32mx/4.5.2/../../../../pic32mx/lib/size/crt0.o (_bootstrap_exception_handler)
d:/program files (x86)/microchip/xc32/v1.20/bin/../lib/gcc/pic32mx/4.5.2/../../../../pic32mx/lib/size\libpic32.a(default-on-reset.o)
                              d:/program files (x86)/microchip/xc32/v1.20/bin/../lib/gcc/pic32mx/4.5.2/../../../../pic32mx/lib/size/crt0.o (_on_reset)
d:/program files (x86)/microchip/xc32/v1.20/bin/../lib/gcc/pic32mx/4.5.2/../../../../pic32mx/lib/size\libpic32.a(default-on-bootstrap.o)
                              d:/program files (x86)/microchip/xc32/v1.20/bin/../lib/gcc/pic32mx/4.5.2/../../../../pic32mx/lib/size/crt0.o (_on_bootstrap)
d:/program files (x86)/microchip/xc32/v1.20/bin/../lib/gcc/pic32mx/4.5.2/../../../../pic32mx/lib/size\libpic32.a(default-nmi-handler.o)
                              d:/program files (x86)/microchip/xc32/v1.20/bin/../lib/gcc/pic32mx/4.5.2/../../../../pic32mx/lib/size/crt0.o (_nmi_handler)
d:/program files (x86)/microchip/xc32/v1.20/bin/../lib/gcc/pic32mx/4.5.2/../../../../pic32mx/lib/size\libpic32.a(general-exception.o)
                              d:/program files (x86)/microchip/xc32/v1.20/bin/../lib/gcc/pic32mx/4.5.2/../../../../pic32mx/lib/size/crt0.o (_general_exception_context)
d:/program files (x86)/microchip/xc32/v1.20/bin/../lib/gcc/pic32mx/4.5.2/../../../../pic32mx/lib/size\libpic32.a(vector0.o)
                              d:/program files (x86)/microchip/xc32/v1.20/bin/../lib/gcc/pic32mx/4.5.2/../../../../pic32mx/lib/./proc/32MX795F512L\default_isr_vectors.o (__vector_dispatch_0)
d:/program files (x86)/microchip/xc32/v1.20/bin/../lib/gcc/pic32mx/4.5.2/../../../../pic32mx/lib/size\libpic32.a(vector1.o)
                              d:/program files (x86)/microchip/xc32/v1.20/bin/../lib/gcc/pic32mx/4.5.2/../../../../pic32mx/lib/./proc/32MX795F512L\default_isr_vectors.o (__vector_dispatch_1)
d:/program files (x86)/microchip/xc32/v1.20/bin/../lib/gcc/pic32mx/4.5.2/../../../../pic32mx/lib/size\libpic32.a(vector2.o)
                              d:/program files (x86)/microchip/xc32/v1.20/bin/../lib/gcc/pic32mx/4.5.2/../../../../pic32mx/lib/./proc/32MX795F512L\default_isr_vectors.o (__vector_dispatch_2)
d:/program files (x86)/microchip/xc32/v1.20/bin/../lib/gcc/pic32mx/4.5.2/../../../../pic32mx/lib/size\libpic32.a(vector3.o)
                              d:/program files (x86)/microchip/xc32/v1.20/bin/../lib/gcc/pic32mx/4.5.2/../../../../pic32mx/lib/./proc/32MX795F512L\default_isr_vectors.o (__vector_dispatch_3)
d:/program files (x86)/microchip/xc32/v1.20/bin/../lib/gcc/pic32mx/4.5.2/../../../../pic32mx/lib/size\libpic32.a(vector5.o)
                              d:/program files (x86)/microchip/xc32/v1.20/bin/../lib/gcc/pic32mx/4.5.2/../../../../pic32mx/lib/./proc/32MX795F512L\default_isr_vectors.o (__vector_dispatch_5)
d:/program files (x86)/microchip/xc32/v1.20/bin/../lib/gcc/pic32mx/4.5.2/../../../../pic32mx/lib/size\libpic32.a(vector6.o)
                              d:/program files (x86)/microchip/xc32/v1.20/bin/../lib/gcc/pic32mx/4.5.2/../../../../pic32mx/lib/./proc/32MX795F512L\default_isr_vectors.o (__vector_dispatch_6)
d:/program files (x86)/microchip/xc32/v1.20/bin/../lib/gcc/pic32mx/4.5.2/../../../../pic32mx/lib/size\libpic32.a(vector7.o)
                              d:/program files (x86)/microchip/xc32/v1.20/bin/../lib/gcc/pic32mx/4.5.2/../../../../pic32mx/lib/./proc/32MX795F512L\default_isr_vectors.o (__vector_dispatch_7)
d:/program files (x86)/microchip/xc32/v1.20/bin/../lib/gcc/pic32mx/4.5.2/../../../../pic32mx/lib/size\libpic32.a(vector8.o)
                              d:/program files (x86)/microchip/xc32/v1.20/bin/../lib/gcc/pic32mx/4.5.2/../../../../pic32mx/lib/./proc/32MX795F512L\default_isr_vectors.o (__vector_dispatch_8)
d:/program files (x86)/microchip/xc32/v1.20/bin/../lib/gcc/pic32mx/4.5.2/../../../../pic32mx/lib/size\libpic32.a(vector9.o)
                              d:/program files (x86)/microchip/xc32/v1.20/bin/../lib/gcc/pic32mx/4.5.2/../../../../pic32mx/lib/./proc/32MX795F512L\default_isr_vectors.o (__vector_dispatch_9)
d:/program files (x86)/microchip/xc32/v1.20/bin/../lib/gcc/pic32mx/4.5.2/../../../../pic32mx/lib/size\libpic32.a(vector10.o)
                              d:/program files (x86)/microchip/xc32/v1.20/bin/../lib/gcc/pic32mx/4.5.2/../../../../pic32mx/lib/./proc/32MX795F512L\default_isr_vectors.o (__vector_dispatch_10)
d:/program files (x86)/microchip/xc32/v1.20/bin/../lib/gcc/pic32mx/4.5.2/../../../../pic32mx/lib/size\libpic32.a(vector11.o)
                              d:/program files (x86)/microchip/xc32/v1.20/bin/../lib/gcc/pic32mx/4.5.2/../../../../pic32mx/lib/./proc/32MX795F512L\default_isr_vectors.o (__vector_dispatch_11)
d:/program files (x86)/microchip/xc32/v1.20/bin/../lib/gcc/pic32mx/4.5.2/../../../../pic32mx/lib/size\libpic32.a(vector12.o)
                              d:/program files (x86)/microchip/xc32/v1.20/bin/../lib/gcc/pic32mx/4.5.2/../../../../pic32mx/lib/./proc/32MX795F512L\default_isr_vectors.o (__vector_dispatch_12)
d:/program files (x86)/microchip/xc32/v1.20/bin/../lib/gcc/pic32mx/4.5.2/../../../../pic32mx/lib/size\libpic32.a(vector13.o)
                              d:/program files (x86)/microchip/xc32/v1.20/bin/../lib/gcc/pic32mx/4.5.2/../../../../pic32mx/lib/./proc/32MX795F512L\default_isr_vectors.o (__vector_dispatch_13)
d:/program files (x86)/microchip/xc32/v1.20/bin/../lib/gcc/pic32mx/4.5.2/../../../../pic32mx/lib/size\libpic32.a(vector14.o)
                              d:/program files (x86)/microchip/xc32/v1.20/bin/../lib/gcc/pic32mx/4.5.2/../../../../pic32mx/lib/./proc/32MX795F512L\default_isr_vectors.o (__vector_dispatch_14)
d:/program files (x86)/microchip/xc32/v1.20/bin/../lib/gcc/pic32mx/4.5.2/../../../../pic32mx/lib/size\libpic32.a(vector15.o)
                              d:/program files (x86)/microchip/xc32/v1.20/bin/../lib/gcc/pic32mx/4.5.2/../../../../pic32mx/lib/./proc/32MX795F512L\default_isr_vectors.o (__vector_dispatch_15)
d:/program files (x86)/microchip/xc32/v1.20/bin/../lib/gcc/pic32mx/4.5.2/../../../../pic32mx/lib/size\libpic32.a(vector16.o)
                              d:/program files (x86)/microchip/xc32/v1.20/bin/../lib/gcc/pic32mx/4.5.2/../../../../pic32mx/lib/./proc/32MX795F512L\default_isr_vectors.o (__vector_dispatch_16)
d:/program files (x86)/microchip/xc32/v1.20/bin/../lib/gcc/pic32mx/4.5.2/../../../../pic32mx/lib/size\libpic32.a(vector17.o)
                              d:/program files (x86)/microchip/xc32/v1.20/bin/../lib/gcc/pic32mx/4.5.2/../../../../pic32mx/lib/./proc/32MX795F512L\default_isr_vectors.o (__vector_dispatch_17)
d:/program files (x86)/microchip/xc32/v1.20/bin/../lib/gcc/pic32mx/4.5.2/../../../../pic32mx/lib/size\libpic32.a(vector18.o)
                              d:/program files (x86)/microchip/xc32/v1.20/bin/../lib/gcc/pic32mx/4.5.2/../../../../pic32mx/lib/./proc/32MX795F512L\default_isr_vectors.o (__vector_dispatch_18)
d:/program files (x86)/microchip/xc32/v1.20/bin/../lib/gcc/pic32mx/4.5.2/../../../../pic32mx/lib/size\libpic32.a(vector19.o)
                              d:/program files (x86)/microchip/xc32/v1.20/bin/../lib/gcc/pic32mx/4.5.2/../../../../pic32mx/lib/./proc/32MX795F512L\default_isr_vectors.o (__vector_dispatch_19)
d:/program files (x86)/microchip/xc32/v1.20/bin/../lib/gcc/pic32mx/4.5.2/../../../../pic32mx/lib/size\libpic32.a(vector20.o)
                              d:/program files (x86)/microchip/xc32/v1.20/bin/../lib/gcc/pic32mx/4.5.2/../../../../pic32mx/lib/./proc/32MX795F512L\default_isr_vectors.o (__vector_dispatch_20)
d:/program files (x86)/microchip/xc32/v1.20/bin/../lib/gcc/pic32mx/4.5.2/../../../../pic32mx/lib/size\libpic32.a(vector21.o)
                              d:/program files (x86)/microchip/xc32/v1.20/bin/../lib/gcc/pic32mx/4.5.2/../../../../pic32mx/lib/./proc/32MX795F512L\default_isr_vectors.o (__vector_dispatch_21)
d:/program files (x86)/microchip/xc32/v1.20/bin/../lib/gcc/pic32mx/4.5.2/../../../../pic32mx/lib/size\libpic32.a(vector22.o)
                              d:/program files (x86)/microchip/xc32/v1.20/bin/../lib/gcc/pic32mx/4.5.2/../../../../pic32mx/lib/./proc/32MX795F512L\default_isr_vectors.o (__vector_dispatch_22)
d:/program files (x86)/microchip/xc32/v1.20/bin/../lib/gcc/pic32mx/4.5.2/../../../../pic32mx/lib/size\libpic32.a(vector23.o)
                              d:/program files (x86)/microchip/xc32/v1.20/bin/../lib/gcc/pic32mx/4.5.2/../../../../pic32mx/lib/./proc/32MX795F512L\default_isr_vectors.o (__vector_dispatch_23)
d:/program files (x86)/microchip/xc32/v1.20/bin/../lib/gcc/pic32mx/4.5.2/../../../../pic32mx/lib/size\libpic32.a(vector24.o)
                              d:/program files (x86)/microchip/xc32/v1.20/bin/../lib/gcc/pic32mx/4.5.2/../../../../pic32mx/lib/./proc/32MX795F512L\default_isr_vectors.o (__vector_dispatch_24)
d:/program files (x86)/microchip/xc32/v1.20/bin/../lib/gcc/pic32mx/4.5.2/../../../../pic32mx/lib/size\libpic32.a(vector25.o)
                              d:/program files (x86)/microchip/xc32/v1.20/bin/../lib/gcc/pic32mx/4.5.2/../../../../pic32mx/lib/./proc/32MX795F512L\default_isr_vectors.o (__vector_dispatch_25)
d:/program files (x86)/microchip/xc32/v1.20/bin/../lib/gcc/pic32mx/4.5.2/../../../../pic32mx/lib/size\libpic32.a(vector26.o)
                              d:/program files (x86)/microchip/xc32/v1.20/bin/../lib/gcc/pic32mx/4.5.2/../../../../pic32mx/lib/./proc/32MX795F512L\default_isr_vectors.o (__vector_dispatch_26)
d:/program files (x86)/microchip/xc32/v1.20/bin/../lib/gcc/pic32mx/4.5.2/../../../../pic32mx/lib/size\libpic32.a(vector27.o)
                              d:/program files (x86)/microchip/xc32/v1.20/bin/../lib/gcc/pic32mx/4.5.2/../../../../pic32mx/lib/./proc/32MX795F512L\default_isr_vectors.o (__vector_dispatch_27)
d:/program files (x86)/microchip/xc32/v1.20/bin/../lib/gcc/pic32mx/4.5.2/../../../../pic32mx/lib/size\libpic32.a(vector28.o)
                              d:/program files (x86)/microchip/xc32/v1.20/bin/../lib/gcc/pic32mx/4.5.2/../../../../pic32mx/lib/./proc/32MX795F512L\default_isr_vectors.o (__vector_dispatch_28)
d:/program files (x86)/microchip/xc32/v1.20/bin/../lib/gcc/pic32mx/4.5.2/../../../../pic32mx/lib/size\libpic32.a(vector29.o)
                              d:/program files (x86)/microchip/xc32/v1.20/bin/../lib/gcc/pic32mx/4.5.2/../../../../pic32mx/lib/./proc/32MX795F512L\default_isr_vectors.o (__vector_dispatch_29)
d:/program files (x86)/microchip/xc32/v1.20/bin/../lib/gcc/pic32mx/4.5.2/../../../../pic32mx/lib/size\libpic32.a(vector30.o)
                              d:/program files (x86)/microchip/xc32/v1.20/bin/../lib/gcc/pic32mx/4.5.2/../../../../pic32mx/lib/./proc/32MX795F512L\default_isr_vectors.o (__vector_dispatch_30)
d:/program files (x86)/microchip/xc32/v1.20/bin/../lib/gcc/pic32mx/4.5.2/../../../../pic32mx/lib/size\libpic32.a(vector31.o)
                              d:/program files (x86)/microchip/xc32/v1.20/bin/../lib/gcc/pic32mx/4.5.2/../../../../pic32mx/lib/./proc/32MX795F512L\default_isr_vectors.o (__vector_dispatch_31)
d:/program files (x86)/microchip/xc32/v1.20/bin/../lib/gcc/pic32mx/4.5.2/../../../../pic32mx/lib/size\libpic32.a(vector32.o)
                              d:/program files (x86)/microchip/xc32/v1.20/bin/../lib/gcc/pic32mx/4.5.2/../../../../pic32mx/lib/./proc/32MX795F512L\default_isr_vectors.o (__vector_dispatch_32)
d:/program files (x86)/microchip/xc32/v1.20/bin/../lib/gcc/pic32mx/4.5.2/../../../../pic32mx/lib/size\libpic32.a(vector33.o)
                              d:/program files (x86)/microchip/xc32/v1.20/bin/../lib/gcc/pic32mx/4.5.2/../../../../pic32mx/lib/./proc/32MX795F512L\default_isr_vectors.o (__vector_dispatch_33)
d:/program files (x86)/microchip/xc32/v1.20/bin/../lib/gcc/pic32mx/4.5.2/../../../../pic32mx/lib/size\libpic32.a(vector34.o)
                              d:/program files (x86)/microchip/xc32/v1.20/bin/../lib/gcc/pic32mx/4.5.2/../../../../pic32mx/lib/./proc/32MX795F512L\default_isr_vectors.o (__vector_dispatch_34)
d:/program files (x86)/microchip/xc32/v1.20/bin/../lib/gcc/pic32mx/4.5.2/../../../../pic32mx/lib/size\libpic32.a(vector35.o)
                              d:/program files (x86)/microchip/xc32/v1.20/bin/../lib/gcc/pic32mx/4.5.2/../../../../pic32mx/lib/./proc/32MX795F512L\default_isr_vectors.o (__vector_dispatch_35)
d:/program files (x86)/microchip/xc32/v1.20/bin/../lib/gcc/pic32mx/4.5.2/../../../../pic32mx/lib/size\libpic32.a(vector36.o)
                              d:/program files (x86)/microchip/xc32/v1.20/bin/../lib/gcc/pic32mx/4.5.2/../../../../pic32mx/lib/./proc/32MX795F512L\default_isr_vectors.o (__vector_dispatch_36)
d:/program files (x86)/microchip/xc32/v1.20/bin/../lib/gcc/pic32mx/4.5.2/../../../../pic32mx/lib/size\libpic32.a(vector37.o)
                              d:/program files (x86)/microchip/xc32/v1.20/bin/../lib/gcc/pic32mx/4.5.2/../../../../pic32mx/lib/./proc/32MX795F512L\default_isr_vectors.o (__vector_dispatch_37)
d:/program files (x86)/microchip/xc32/v1.20/bin/../lib/gcc/pic32mx/4.5.2/../../../../pic32mx/lib/size\libpic32.a(vector38.o)
                              d:/program files (x86)/microchip/xc32/v1.20/bin/../lib/gcc/pic32mx/4.5.2/../../../../pic32mx/lib/./proc/32MX795F512L\default_isr_vectors.o (__vector_dispatch_38)
d:/program files (x86)/microchip/xc32/v1.20/bin/../lib/gcc/pic32mx/4.5.2/../../../../pic32mx/lib/size\libpic32.a(vector39.o)
                              d:/program files (x86)/microchip/xc32/v1.20/bin/../lib/gcc/pic32mx/4.5.2/../../../../pic32mx/lib/./proc/32MX795F512L\default_isr_vectors.o (__vector_dispatch_39)
d:/program files (x86)/microchip/xc32/v1.20/bin/../lib/gcc/pic32mx/4.5.2/../../../../pic32mx/lib/size\libpic32.a(vector40.o)
                              d:/program files (x86)/microchip/xc32/v1.20/bin/../lib/gcc/pic32mx/4.5.2/../../../../pic32mx/lib/./proc/32MX795F512L\default_isr_vectors.o (__vector_dispatch_40)
d:/program files (x86)/microchip/xc32/v1.20/bin/../lib/gcc/pic32mx/4.5.2/../../../../pic32mx/lib/size\libpic32.a(vector41.o)
                              d:/program files (x86)/microchip/xc32/v1.20/bin/../lib/gcc/pic32mx/4.5.2/../../../../pic32mx/lib/./proc/32MX795F512L\default_isr_vectors.o (__vector_dispatch_41)
d:/program files (x86)/microchip/xc32/v1.20/bin/../lib/gcc/pic32mx/4.5.2/../../../../pic32mx/lib/size\libpic32.a(vector42.o)
                              d:/program files (x86)/microchip/xc32/v1.20/bin/../lib/gcc/pic32mx/4.5.2/../../../../pic32mx/lib/./proc/32MX795F512L\default_isr_vectors.o (__vector_dispatch_42)
d:/program files (x86)/microchip/xc32/v1.20/bin/../lib/gcc/pic32mx/4.5.2/../../../../pic32mx/lib/size\libpic32.a(vector43.o)
                              d:/program files (x86)/microchip/xc32/v1.20/bin/../lib/gcc/pic32mx/4.5.2/../../../../pic32mx/lib/./proc/32MX795F512L\default_isr_vectors.o (__vector_dispatch_43)
d:/program files (x86)/microchip/xc32/v1.20/bin/../lib/gcc/pic32mx/4.5.2/../../../../pic32mx/lib/size\libpic32.a(vector44.o)
                              d:/program files (x86)/microchip/xc32/v1.20/bin/../lib/gcc/pic32mx/4.5.2/../../../../pic32mx/lib/./proc/32MX795F512L\default_isr_vectors.o (__vector_dispatch_44)
d:/program files (x86)/microchip/xc32/v1.20/bin/../lib/gcc/pic32mx/4.5.2/../../../../pic32mx/lib/size\libpic32.a(vector45.o)
                              d:/program files (x86)/microchip/xc32/v1.20/bin/../lib/gcc/pic32mx/4.5.2/../../../../pic32mx/lib/./proc/32MX795F512L\default_isr_vectors.o (__vector_dispatch_45)
d:/program files (x86)/microchip/xc32/v1.20/bin/../lib/gcc/pic32mx/4.5.2/../../../../pic32mx/lib/size\libpic32.a(vector46.o)
                              d:/program files (x86)/microchip/xc32/v1.20/bin/../lib/gcc/pic32mx/4.5.2/../../../../pic32mx/lib/./proc/32MX795F512L\default_isr_vectors.o (__vector_dispatch_46)
d:/program files (x86)/microchip/xc32/v1.20/bin/../lib/gcc/pic32mx/4.5.2/../../../../pic32mx/lib/size\libpic32.a(vector47.o)
                              d:/program files (x86)/microchip/xc32/v1.20/bin/../lib/gcc/pic32mx/4.5.2/../../../../pic32mx/lib/./proc/32MX795F512L\default_isr_vectors.o (__vector_dispatch_47)
d:/program files (x86)/microchip/xc32/v1.20/bin/../lib/gcc/pic32mx/4.5.2/../../../../pic32mx/lib/size\libpic32.a(vector48.o)
                              d:/program files (x86)/microchip/xc32/v1.20/bin/../lib/gcc/pic32mx/4.5.2/../../../../pic32mx/lib/./proc/32MX795F512L\default_isr_vectors.o (__vector_dispatch_48)
d:/program files (x86)/microchip/xc32/v1.20/bin/../lib/gcc/pic32mx/4.5.2/../../../../pic32mx/lib/size\libpic32.a(vector49.o)
                              d:/program files (x86)/microchip/xc32/v1.20/bin/../lib/gcc/pic32mx/4.5.2/../../../../pic32mx/lib/./proc/32MX795F512L\default_isr_vectors.o (__vector_dispatch_49)
d:/program files (x86)/microchip/xc32/v1.20/bin/../lib/gcc/pic32mx/4.5.2/../../../../pic32mx/lib/size\libpic32.a(vector50.o)
                              d:/program files (x86)/microchip/xc32/v1.20/bin/../lib/gcc/pic32mx/4.5.2/../../../../pic32mx/lib/./proc/32MX795F512L\default_isr_vectors.o (__vector_dispatch_50)
d:/program files (x86)/microchip/xc32/v1.20/bin/../lib/gcc/pic32mx/4.5.2/../../../../pic32mx/lib/size\libpic32.a(vector51.o)
                              d:/program files (x86)/microchip/xc32/v1.20/bin/../lib/gcc/pic32mx/4.5.2/../../../../pic32mx/lib/./proc/32MX795F512L\default_isr_vectors.o (__vector_dispatch_51)
d:/program files (x86)/microchip/xc32/v1.20/bin/../lib/gcc/pic32mx/4.5.2/../../../../pic32mx/lib/size\libpic32.a(vector52.o)
                              d:/program files (x86)/microchip/xc32/v1.20/bin/../lib/gcc/pic32mx/4.5.2/../../../../pic32mx/lib/./proc/32MX795F512L\default_isr_vectors.o (__vector_dispatch_52)
d:/program files (x86)/microchip/xc32/v1.20/bin/../lib/gcc/pic32mx/4.5.2/../../../../pic32mx/lib/size\libpic32.a(vector53.o)
                              d:/program files (x86)/microchip/xc32/v1.20/bin/../lib/gcc/pic32mx/4.5.2/../../../../pic32mx/lib/./proc/32MX795F512L\default_isr_vectors.o (__vector_dispatch_53)
d:/program files (x86)/microchip/xc32/v1.20/bin/../lib/gcc/pic32mx/4.5.2/../../../../pic32mx/lib/size\libpic32.a(vector54.o)
                              d:/program files (x86)/microchip/xc32/v1.20/bin/../lib/gcc/pic32mx/4.5.2/../../../../pic32mx/lib/./proc/32MX795F512L\default_isr_vectors.o (__vector_dispatch_54)
d:/program files (x86)/microchip/xc32/v1.20/bin/../lib/gcc/pic32mx/4.5.2/../../../../pic32mx/lib/size\libpic32.a(vector55.o)
                              d:/program files (x86)/microchip/xc32/v1.20/bin/../lib/gcc/pic32mx/4.5.2/../../../../pic32mx/lib/./proc/32MX795F512L\default_isr_vectors.o (__vector_dispatch_55)
d:/program files (x86)/microchip/xc32/v1.20/bin/../lib/gcc/pic32mx/4.5.2/../../../../pic32mx/lib/size\libpic32.a(vector56.o)
                              d:/program files (x86)/microchip/xc32/v1.20/bin/../lib/gcc/pic32mx/4.5.2/../../../../pic32mx/lib/./proc/32MX795F512L\default_isr_vectors.o (__vector_dispatch_56)
d:/program files (x86)/microchip/xc32/v1.20/bin/../lib/gcc/pic32mx/4.5.2/../../../../pic32mx/lib/size\libpic32.a(vector57.o)
                              d:/program files (x86)/microchip/xc32/v1.20/bin/../lib/gcc/pic32mx/4.5.2/../../../../pic32mx/lib/./proc/32MX795F512L\default_isr_vectors.o (__vector_dispatch_57)
d:/program files (x86)/microchip/xc32/v1.20/bin/../lib/gcc/pic32mx/4.5.2/../../../../pic32mx/lib/size\libpic32.a(vector58.o)
                              d:/program files (x86)/microchip/xc32/v1.20/bin/../lib/gcc/pic32mx/4.5.2/../../../../pic32mx/lib/./proc/32MX795F512L\default_isr_vectors.o (__vector_dispatch_58)
d:/program files (x86)/microchip/xc32/v1.20/bin/../lib/gcc/pic32mx/4.5.2/../../../../pic32mx/lib/size\libpic32.a(vector59.o)
                              d:/program files (x86)/microchip/xc32/v1.20/bin/../lib/gcc/pic32mx/4.5.2/../../../../pic32mx/lib/./proc/32MX795F512L\default_isr_vectors.o (__vector_dispatch_59)
d:/program files (x86)/microchip/xc32/v1.20/bin/../lib/gcc/pic32mx/4.5.2/../../../../pic32mx/lib/size\libpic32.a(vector60.o)
                              d:/program files (x86)/microchip/xc32/v1.20/bin/../lib/gcc/pic32mx/4.5.2/../../../../pic32mx/lib/./proc/32MX795F512L\default_isr_vectors.o (__vector_dispatch_60)
d:/program files (x86)/microchip/xc32/v1.20/bin/../lib/gcc/pic32mx/4.5.2/../../../../pic32mx/lib/size\libpic32.a(vector61.o)
                              d:/program files (x86)/microchip/xc32/v1.20/bin/../lib/gcc/pic32mx/4.5.2/../../../../pic32mx/lib/./proc/32MX795F512L\default_isr_vectors.o (__vector_dispatch_61)
d:/program files (x86)/microchip/xc32/v1.20/bin/../lib/gcc/pic32mx/4.5.2/../../../../pic32mx/lib/size\libpic32.a(vector62.o)
                              d:/program files (x86)/microchip/xc32/v1.20/bin/../lib/gcc/pic32mx/4.5.2/../../../../pic32mx/lib/./proc/32MX795F512L\default_isr_vectors.o (__vector_dispatch_62)
d:/program files (x86)/microchip/xc32/v1.20/bin/../lib/gcc/pic32mx/4.5.2/../../../../pic32mx/lib/size\libpic32.a(vector63.o)
                              d:/program files (x86)/microchip/xc32/v1.20/bin/../lib/gcc/pic32mx/4.5.2/../../../../pic32mx/lib/./proc/32MX795F512L\default_isr_vectors.o (__vector_dispatch_63)
d:/program files (x86)/microchip/xc32/v1.20/bin/../lib/gcc/pic32mx/4.5.2/../../../../pic32mx/lib/size\libpic32.a(defaultinterrupt.o)
                              d:/program files (x86)/microchip/xc32/v1.20/bin/../lib/gcc/pic32mx/4.5.2/../../../../pic32mx/lib/size\libpic32.a(vector0.o) (_DefaultInterrupt)
d:/program files (x86)/microchip/xc32/v1.20/bin/../lib/gcc/pic32mx/4.5.2/../../../../pic32mx/lib/size\libc.a(atoi.o)
                              Obj-XC32-EX16_ENC28\UARTConfig.o (atoi)
d:/program files (x86)/microchip/xc32/v1.20/bin/../lib/gcc/pic32mx/4.5.2/../../../../pic32mx/lib/size\libc.a(atol.o)
                              Obj-XC32-EX16_ENC28\HTTP2.o (atol)
d:/program files (x86)/microchip/xc32/v1.20/bin/../lib/gcc/pic32mx/4.5.2/../../../../pic32mx/lib/size\libc.a(ctype.o)
                              d:/program files (x86)/microchip/xc32/v1.20/bin/../lib/gcc/pic32mx/4.5.2/../../../../pic32mx/lib/size\libc.a(atoi.o) (_ctype)
d:/program files (x86)/microchip/xc32/v1.20/bin/../lib/gcc/pic32mx/4.5.2/../../../../pic32mx/lib/size\libc.a(ltoa.o)
                              Obj-XC32-EX16_ENC28\TCPPerformanceTest.o (ultoa)
d:/program files (x86)/microchip/xc32/v1.20/bin/../lib/gcc/pic32mx/4.5.2/../../../../pic32mx/lib/size\libc.a(strncpy.o)
                              Obj-XC32-EX16_ENC28\Helpers.o (strncpy)

Allocating common symbols
Common symbol       size              file

activeUDPSocket     0x1               Obj-XC32-EX16_ENC28\UDP.o
curHTTP             0x8c              Obj-XC32-EX16_ENC28\HTTP2.o
UDPTxCount          0x2               Obj-XC32-EX16_ENC28\UDP.o
curHTTPID           0x1               Obj-XC32-EX16_ENC28\HTTP2.o
lastRead            0x4               Obj-XC32-EX16_ENC28\MPFS2.o
AN0String           0x8               Obj-XC32-EX16_ENC28\MainDemo.o
UDPSocketInfo       0xe0              Obj-XC32-EX16_ENC28\UDP.o
remoteNode          0xa               Obj-XC32-EX16_ENC28\StackTsk.o
UDPRxCount          0x2               Obj-XC32-EX16_ENC28\UDP.o
httpStubs           0x10              Obj-XC32-EX16_ENC28\HTTP2.o
DhcpIpPool          0x78              Obj-XC32-EX16_ENC28\DHCPs.o
AppConfig           0x33              Obj-XC32-EX16_ENC28\MainDemo.o
LCDText             0x21              Obj-XC32-EX16_ENC28\LCDBlocking.o

Microchip PIC32 Memory-Usage Report

kseg0 Program-Memory Usage
section                    address  length [bytes]      (dec)  Description
-------                 ----------  -------------------------  -----------
.text                   0x9d000020        0x1ace4      109796  App's exec code 
.rodata                 0x9d01ad04          0x878        2168  Read-only const 
.text                   0x9d01b57c         0x3a60       14944  App's exec code 
.dinit                  0x9d01efdc          0x284         644   
.text                   0x9d01f260          0x240         576  App's exec code 
.rodata                 0x9d01f4a0          0x3c4         964  Read-only const 
.text                   0x9d01f864          0x710        1808  App's exec code 
.rodata                 0x9d01ff74          0x104         260  Read-only const 
.text                   0x9d020078           0xec         236  App's exec code 
.text.general_exception 0x9d020164           0xd0         208   
.text                   0x9d020234          0x174         372  App's exec code 
.rodata                 0x9d0203a8           0x9c         156  Read-only const 
.text                   0x9d020444           0x98         152  App's exec code 
.text.atol              0x9d0204dc           0x90         144   
.text.atoi              0x9d02056c           0x84         132   
.text.SoftReset         0x9d0205f0           0x78         120   
.text.ultoa             0x9d020668           0x68         104   
.rodata                 0x9d0206d0           0x5c          92  Read-only const 
.text.strncpy           0x9d02072c           0x50          80   
.text.putsUART1         0x9d02077c           0x48          72   
.text.putsUART2         0x9d0207c4           0x48          72   
.text._DefaultInterrupt 0x9d02080c           0x48          72   
.rodata                 0x9d020854           0x44          68  Read-only const 
.text.ltoa              0x9d020898           0x40          64   
.text                   0x9d0208d8           0x38          56  App's exec code 
.rodata                 0x9d020910           0x38          56  Read-only const 
.text.INTEnableSystemMu 0x9d020948           0x34          52   
.rodata                 0x9d02097c           0x1c          28  Read-only const 
.text.INTRestoreInterru 0x9d020998           0x1c          28   
.text.CheKseg0CacheOff  0x9d0209b4           0x18          24   
.text.CheKseg0CacheOn   0x9d0209cc           0x18          24   
.text                   0x9d0209e4           0x18          24  App's exec code 
.rodata                 0x9d0209fc           0x24          36  Read-only const 
.text._bootstrap_except 0x9d020a20            0xc          12   
.rodata                 0x9d020a2c            0x8           8  Read-only const 
.text.INTDisableInterru 0x9d020a34            0x8           8   
.text.INTEnableInterrup 0x9d020a3c            0x8           8   
.text._on_reset         0x9d020a44            0x8           8   
.text._on_bootstrap     0x9d020a4c            0x8           8   
      Total kseg0_program_mem used  :     0x20a34      133684  25.5% of 0x80000

kseg0 Boot-Memory Usage
section                    address  length [bytes]      (dec)  Description
-------                 ----------  -------------------------  -----------
         Total kseg0_boot_mem used  :           0           0  <1% of 0x970

Exception-Memory Usage 
section                    address  length [bytes]      (dec)  Description
-------                 ----------  -------------------------  -----------
.app_excpt              0x9fc01180           0x10          16  General-Exception 
.vector_0               0x9fc01200            0x8           8  Interrupt Vector 0 
.vector_1               0x9fc01220            0x8           8  Interrupt Vector 1 
.vector_2               0x9fc01240            0x8           8  Interrupt Vector 2 
.vector_3               0x9fc01260            0x8           8  Interrupt Vector 3 
.vector_4               0x9fc01280            0x8           8  Interrupt Vector 4 
.vector_5               0x9fc012a0            0x8           8  Interrupt Vector 5 
.vector_6               0x9fc012c0            0x8           8  Interrupt Vector 6 
.vector_7               0x9fc012e0            0x8           8  Interrupt Vector 7 
.vector_8               0x9fc01300            0x8           8  Interrupt Vector 8 
.vector_9               0x9fc01320            0x8           8  Interrupt Vector 9 
.vector_10              0x9fc01340            0x8           8  Interrupt Vector 10 
.vector_11              0x9fc01360            0x8           8  Interrupt Vector 11 
.vector_12              0x9fc01380            0x8           8  Interrupt Vector 12 
.vector_13              0x9fc013a0            0x8           8  Interrupt Vector 13 
.vector_14              0x9fc013c0            0x8           8  Interrupt Vector 14 
.vector_15              0x9fc013e0            0x8           8  Interrupt Vector 15 
.vector_16              0x9fc01400            0x8           8  Interrupt Vector 16 
.vector_17              0x9fc01420            0x8           8  Interrupt Vector 17 
.vector_18              0x9fc01440            0x8           8  Interrupt Vector 18 
.vector_19              0x9fc01460            0x8           8  Interrupt Vector 19 
.vector_20              0x9fc01480            0x8           8  Interrupt Vector 20 
.vector_21              0x9fc014a0            0x8           8  Interrupt Vector 21 
.vector_22              0x9fc014c0            0x8           8  Interrupt Vector 22 
.vector_23              0x9fc014e0            0x8           8  Interrupt Vector 23 
.vector_24              0x9fc01500            0x8           8  Interrupt Vector 24 
.vector_25              0x9fc01520            0x8           8  Interrupt Vector 25 
.vector_26              0x9fc01540            0x8           8  Interrupt Vector 26 
.vector_27              0x9fc01560            0x8           8  Interrupt Vector 27 
.vector_28              0x9fc01580            0x8           8  Interrupt Vector 28 
.vector_29              0x9fc015a0            0x8           8  Interrupt Vector 29 
.vector_30              0x9fc015c0            0x8           8  Interrupt Vector 30 
.vector_31              0x9fc015e0            0x8           8  Interrupt Vector 31 
.vector_32              0x9fc01600            0x8           8  Interrupt Vector 32 
.vector_33              0x9fc01620            0x8           8  Interrupt Vector 33 
.vector_34              0x9fc01640            0x8           8  Interrupt Vector 34 
.vector_35              0x9fc01660            0x8           8  Interrupt Vector 35 
.vector_36              0x9fc01680            0x8           8  Interrupt Vector 36 
.vector_37              0x9fc016a0            0x8           8  Interrupt Vector 37 
.vector_38              0x9fc016c0            0x8           8  Interrupt Vector 38 
.vector_39              0x9fc016e0            0x8           8  Interrupt Vector 39 
.vector_40              0x9fc01700            0x8           8  Interrupt Vector 40 
.vector_41              0x9fc01720            0x8           8  Interrupt Vector 41 
.vector_42              0x9fc01740            0x8           8  Interrupt Vector 42 
.vector_43              0x9fc01760            0x8           8  Interrupt Vector 43 
.vector_44              0x9fc01780            0x8           8  Interrupt Vector 44 
.vector_45              0x9fc017a0            0x8           8  Interrupt Vector 45 
.vector_46              0x9fc017c0            0x8           8  Interrupt Vector 46 
.vector_47              0x9fc017e0            0x8           8  Interrupt Vector 47 
.vector_48              0x9fc01800            0x8           8  Interrupt Vector 48 
.vector_49              0x9fc01820            0x8           8  Interrupt Vector 49 
.vector_50              0x9fc01840            0x8           8  Interrupt Vector 50 
.vector_51              0x9fc01860            0x8           8  Interrupt Vector 51 
.vector_52              0x9fc01880            0x8           8  Interrupt Vector 52 
.vector_53              0x9fc018a0            0x8           8  Interrupt Vector 53 
.vector_54              0x9fc018c0            0x8           8  Interrupt Vector 54 
.vector_55              0x9fc018e0            0x8           8  Interrupt Vector 55 
.vector_56              0x9fc01900            0x8           8  Interrupt Vector 56 
.vector_57              0x9fc01920            0x8           8  Interrupt Vector 57 
.vector_58              0x9fc01940            0x8           8  Interrupt Vector 58 
.vector_59              0x9fc01960            0x8           8  Interrupt Vector 59 
.vector_60              0x9fc01980            0x8           8  Interrupt Vector 60 
.vector_61              0x9fc019a0            0x8           8  Interrupt Vector 61 
.vector_62              0x9fc019c0            0x8           8  Interrupt Vector 62 
.vector_63              0x9fc019e0            0x8           8  Interrupt Vector 63 
          Total exception_mem used  :       0x210         528  12.9% of 0x1000

kseg1 Boot-Memory Usage
section                    address  length [bytes]      (dec)  Description
-------                 ----------  -------------------------  -----------
.reset                  0xbfc00000          0x1f4         500  Reset handler 
.bev_excpt              0xbfc00380           0x10          16  BEV-Exception 
         Total kseg1_boot_mem used  :       0x204         516  44.2% of 0x490
        --------------------------------------------------------------------------
         Total Program Memory used  :     0x20e48      134728  25.3% of 0x81e00
        --------------------------------------------------------------------------


kseg1 Data-Memory Usage
section                    address  length [bytes]      (dec)  Description
-------                 ----------  -------------------------  -----------
.eh_frame               0xa0000000           0x30          48   
.persist                0xa0000030            0x8           8   
.sdata                  0xa0000038           0x24          36  Small init data 
.sbss                   0xa000005c           0xe8         232  Small uninit data 
.bss                    0xa0000144          0x258         600  Uninitialized data 
.bss                    0xa000039c          0x32c         812  Uninitialized data 
         Total kseg1_data_mem used  :       0x6c8        1736  1.3% of 0x20000
        --------------------------------------------------------------------------
            Total Data Memory used  :       0x6c8        1736  1.3% of 0x20000
        --------------------------------------------------------------------------


Dynamic Data-Memory Reservation
section                    address  length [bytes]      (dec)  Description
-------                 ----------  -------------------------  -----------
heap                    0xa00006d0           0x10          16  Reserved for heap 
stack                   0xa00006f8        0x1f900      129280  Reserved for stack 

        --------------------------------------------------------------------------

Discarded input sections

 .pdr           0x00000000       0xa0 d:/program files (x86)/microchip/xc32/v1.20/bin/../lib/gcc/pic32mx/4.5.2/../../../../pic32mx/lib/size/crt0.o
 .reginfo       0x00000000       0x18 Obj-XC32-EX16_ENC28\Announce.o
 .pdr           0x00000000       0x40 Obj-XC32-EX16_ENC28\Announce.o
 .reginfo       0x00000000       0x18 Obj-XC32-EX16_ENC28\ARCFOUR.o
 .pdr           0x00000000        0x0 Obj-XC32-EX16_ENC28\ARCFOUR.o
 .reginfo       0x00000000       0x18 Obj-XC32-EX16_ENC28\ARP.o
 .pdr           0x00000000       0xe0 Obj-XC32-EX16_ENC28\ARP.o
 .reginfo       0x00000000       0x18 Obj-XC32-EX16_ENC28\AutoIP.o
 .pdr           0x00000000        0x0 Obj-XC32-EX16_ENC28\AutoIP.o
 .reginfo       0x00000000       0x18 Obj-XC32-EX16_ENC28\BerkeleyAPI.o
 .pdr           0x00000000        0x0 Obj-XC32-EX16_ENC28\BerkeleyAPI.o
 .reginfo       0x00000000       0x18 Obj-XC32-EX16_ENC28\BigInt.o
 .pdr           0x00000000        0x0 Obj-XC32-EX16_ENC28\BigInt.o
 .reginfo       0x00000000       0x18 Obj-XC32-EX16_ENC28\Delay.o
 .pdr           0x00000000       0x40 Obj-XC32-EX16_ENC28\Delay.o
 .reginfo       0x00000000       0x18 Obj-XC32-EX16_ENC28\DHCP.o
 .pdr           0x00000000      0x160 Obj-XC32-EX16_ENC28\DHCP.o
 .reginfo       0x00000000       0x18 Obj-XC32-EX16_ENC28\DHCPs.o
 .pdr           0x00000000      0x1c0 Obj-XC32-EX16_ENC28\DHCPs.o
 .reginfo       0x00000000       0x18 Obj-XC32-EX16_ENC28\DNS.o
 .pdr           0x00000000       0xc0 Obj-XC32-EX16_ENC28\DNS.o
 .reginfo       0x00000000       0x18 Obj-XC32-EX16_ENC28\DNSs.o
 .pdr           0x00000000        0x0 Obj-XC32-EX16_ENC28\DNSs.o
 .reginfo       0x00000000       0x18 Obj-XC32-EX16_ENC28\DynDNS.o
 .pdr           0x00000000        0x0 Obj-XC32-EX16_ENC28\DynDNS.o
 .reginfo       0x00000000       0x18 Obj-XC32-EX16_ENC28\ENC28J60.o
 .pdr           0x00000000      0x400 Obj-XC32-EX16_ENC28\ENC28J60.o
 .reginfo       0x00000000       0x18 Obj-XC32-EX16_ENC28\ENCX24J600.o
 .pdr           0x00000000        0x0 Obj-XC32-EX16_ENC28\ENCX24J600.o
 .reginfo       0x00000000       0x18 Obj-XC32-EX16_ENC28\FileSystem.o
 .pdr           0x00000000        0x0 Obj-XC32-EX16_ENC28\FileSystem.o
 .reginfo       0x00000000       0x18 Obj-XC32-EX16_ENC28\FTP.o
 .pdr           0x00000000        0x0 Obj-XC32-EX16_ENC28\FTP.o
 .reginfo       0x00000000       0x18 Obj-XC32-EX16_ENC28\Hashes.o
 .pdr           0x00000000        0x0 Obj-XC32-EX16_ENC28\Hashes.o
 .reginfo       0x00000000       0x18 Obj-XC32-EX16_ENC28\Helpers.o
 .pdr           0x00000000      0x220 Obj-XC32-EX16_ENC28\Helpers.o
 .reginfo       0x00000000       0x18 Obj-XC32-EX16_ENC28\HTTP2.o
 .pdr           0x00000000      0x240 Obj-XC32-EX16_ENC28\HTTP2.o
 .reginfo       0x00000000       0x18 Obj-XC32-EX16_ENC28\ICMP.o
 .pdr           0x00000000       0xc0 Obj-XC32-EX16_ENC28\ICMP.o
 .reginfo       0x00000000       0x18 Obj-XC32-EX16_ENC28\IP.o
 .pdr           0x00000000       0x80 Obj-XC32-EX16_ENC28\IP.o
 .reginfo       0x00000000       0x18 Obj-XC32-EX16_ENC28\LCDBlocking.o
 .pdr           0x00000000       0x80 Obj-XC32-EX16_ENC28\LCDBlocking.o
 .reginfo       0x00000000       0x18 Obj-XC32-EX16_ENC28\MPFS2.o
 .pdr           0x00000000      0x2e0 Obj-XC32-EX16_ENC28\MPFS2.o
 .reginfo       0x00000000       0x18 Obj-XC32-EX16_ENC28\NBNS.o
 .pdr           0x00000000       0x60 Obj-XC32-EX16_ENC28\NBNS.o
 .reginfo       0x00000000       0x18 Obj-XC32-EX16_ENC28\Random.o
 .pdr           0x00000000        0x0 Obj-XC32-EX16_ENC28\Random.o
 .reginfo       0x00000000       0x18 Obj-XC32-EX16_ENC28\Reboot.o
 .pdr           0x00000000       0x20 Obj-XC32-EX16_ENC28\Reboot.o
 .reginfo       0x00000000       0x18 Obj-XC32-EX16_ENC28\RSA.o
 .pdr           0x00000000        0x0 Obj-XC32-EX16_ENC28\RSA.o
 .reginfo       0x00000000       0x18 Obj-XC32-EX16_ENC28\SMTP.o
 .pdr           0x00000000        0x0 Obj-XC32-EX16_ENC28\SMTP.o
 .reginfo       0x00000000       0x18 Obj-XC32-EX16_ENC28\SNMP.o
 .pdr           0x00000000        0x0 Obj-XC32-EX16_ENC28\SNMP.o
 .reginfo       0x00000000       0x18 Obj-XC32-EX16_ENC28\SNMPv3.o
 .pdr           0x00000000        0x0 Obj-XC32-EX16_ENC28\SNMPv3.o
 .reginfo       0x00000000       0x18 Obj-XC32-EX16_ENC28\SNMPv3USM.o
 .pdr           0x00000000        0x0 Obj-XC32-EX16_ENC28\SNMPv3USM.o
 .reginfo       0x00000000       0x18 Obj-XC32-EX16_ENC28\SNTP.o
 .pdr           0x00000000       0x40 Obj-XC32-EX16_ENC28\SNTP.o
 .reginfo       0x00000000       0x18 Obj-XC32-EX16_ENC28\SPIEEPROM.o
 .pdr           0x00000000      0x160 Obj-XC32-EX16_ENC28\SPIEEPROM.o
 .reginfo       0x00000000       0x18 Obj-XC32-EX16_ENC28\SPIFlash.o
 .pdr           0x00000000        0x0 Obj-XC32-EX16_ENC28\SPIFlash.o
 .reginfo       0x00000000       0x18 Obj-XC32-EX16_ENC28\SPIRAM.o
 .pdr           0x00000000        0x0 Obj-XC32-EX16_ENC28\SPIRAM.o
 .reginfo       0x00000000       0x18 Obj-XC32-EX16_ENC28\SSL.o
 .pdr           0x00000000        0x0 Obj-XC32-EX16_ENC28\SSL.o
 .reginfo       0x00000000       0x18 Obj-XC32-EX16_ENC28\StackTsk.o
 .pdr           0x00000000       0x60 Obj-XC32-EX16_ENC28\StackTsk.o
 .reginfo       0x00000000       0x18 Obj-XC32-EX16_ENC28\TCP.o
 .pdr           0x00000000      0x420 Obj-XC32-EX16_ENC28\TCP.o
 .reginfo       0x00000000       0x18 Obj-XC32-EX16_ENC28\TCPPerformanceTest.o
 .pdr           0x00000000       0x60 Obj-XC32-EX16_ENC28\TCPPerformanceTest.o
 .reginfo       0x00000000       0x18 Obj-XC32-EX16_ENC28\Telnet.o
 .pdr           0x00000000        0x0 Obj-XC32-EX16_ENC28\Telnet.o
 .reginfo       0x00000000       0x18 Obj-XC32-EX16_ENC28\TFTPc.o
 .pdr           0x00000000        0x0 Obj-XC32-EX16_ENC28\TFTPc.o
 .reginfo       0x00000000       0x18 Obj-XC32-EX16_ENC28\Tick.o
 .pdr           0x00000000      0x100 Obj-XC32-EX16_ENC28\Tick.o
 .reginfo       0x00000000       0x18 Obj-XC32-EX16_ENC28\UART2TCPBridge.o
 .pdr           0x00000000        0x0 Obj-XC32-EX16_ENC28\UART2TCPBridge.o
 .reginfo       0x00000000       0x18 Obj-XC32-EX16_ENC28\UART.o
 .pdr           0x00000000       0x20 Obj-XC32-EX16_ENC28\UART.o
 .reginfo       0x00000000       0x18 Obj-XC32-EX16_ENC28\UDP.o
 .pdr           0x00000000      0x240 Obj-XC32-EX16_ENC28\UDP.o
 .reginfo       0x00000000       0x18 Obj-XC32-EX16_ENC28\UDPPerformanceTest.o
 .pdr           0x00000000        0x0 Obj-XC32-EX16_ENC28\UDPPerformanceTest.o
 .reginfo       0x00000000       0x18 Obj-XC32-EX16_ENC28\ZeroconfHelper.o
 .pdr           0x00000000        0x0 Obj-XC32-EX16_ENC28\ZeroconfHelper.o
 .reginfo       0x00000000       0x18 Obj-XC32-EX16_ENC28\ZeroconfLinkLocal.o
 .pdr           0x00000000        0x0 Obj-XC32-EX16_ENC28\ZeroconfLinkLocal.o
 .reginfo       0x00000000       0x18 Obj-XC32-EX16_ENC28\ZeroconfMulticastDNS.o
 .pdr           0x00000000        0x0 Obj-XC32-EX16_ENC28\ZeroconfMulticastDNS.o
 .reginfo       0x00000000       0x18 Obj-XC32-EX16_ENC28\CustomHTTPApp.o
 .pdr           0x00000000      0x500 Obj-XC32-EX16_ENC28\CustomHTTPApp.o
 .reginfo       0x00000000       0x18 Obj-XC32-EX16_ENC28\CustomSNMPApp.o
 .pdr           0x00000000        0x0 Obj-XC32-EX16_ENC28\CustomSNMPApp.o
 .reginfo       0x00000000       0x18 Obj-XC32-EX16_ENC28\CustomSSLCert.o
 .pdr           0x00000000        0x0 Obj-XC32-EX16_ENC28\CustomSSLCert.o
 .reginfo       0x00000000       0x18 Obj-XC32-EX16_ENC28\MainDemo.o
 .pdr           0x00000000       0xe0 Obj-XC32-EX16_ENC28\MainDemo.o
 .reginfo       0x00000000       0x18 Obj-XC32-EX16_ENC28\BerkeleyTCPClientDemo.o
 .pdr           0x00000000        0x0 Obj-XC32-EX16_ENC28\BerkeleyTCPClientDemo.o
 .reginfo       0x00000000       0x18 Obj-XC32-EX16_ENC28\BerkeleyTCPServerDemo.o
 .pdr           0x00000000        0x0 Obj-XC32-EX16_ENC28\BerkeleyTCPServerDemo.o
 .reginfo       0x00000000       0x18 Obj-XC32-EX16_ENC28\BerkeleyUDPClientDemo.o
 .pdr           0x00000000        0x0 Obj-XC32-EX16_ENC28\BerkeleyUDPClientDemo.o
 .reginfo       0x00000000       0x18 Obj-XC32-EX16_ENC28\GenericTCPClient.o
 .pdr           0x00000000        0x0 Obj-XC32-EX16_ENC28\GenericTCPClient.o
 .reginfo       0x00000000       0x18 Obj-XC32-EX16_ENC28\GenericTCPServer.o
 .pdr           0x00000000        0x0 Obj-XC32-EX16_ENC28\GenericTCPServer.o
 .reginfo       0x00000000       0x18 Obj-XC32-EX16_ENC28\PingDemo.o
 .pdr           0x00000000       0x20 Obj-XC32-EX16_ENC28\PingDemo.o
 .reginfo       0x00000000       0x18 Obj-XC32-EX16_ENC28\SMTPDemo.o
 .pdr           0x00000000        0x0 Obj-XC32-EX16_ENC28\SMTPDemo.o
 .reginfo       0x00000000       0x18 Obj-XC32-EX16_ENC28\UARTConfig.o
 .pdr           0x00000000       0x40 Obj-XC32-EX16_ENC28\UARTConfig.o
 .reginfo       0x00000000       0x18 Obj-XC32-EX16_ENC28\MPFSImg2.o
 .pdr           0x00000000        0x0 Obj-XC32-EX16_ENC28\MPFSImg2.o
 .reginfo       0x00000000       0x18 Obj-XC32-EX16_ENC28\BigInt_helper_PIC32.o
 .pdr           0x00000000        0x0 Obj-XC32-EX16_ENC28\BigInt_helper_PIC32.o
 .reginfo       0x00000000       0x18 d:/program files (x86)/microchip/xc32/v1.20/bin/../lib/gcc/pic32mx/4.5.2/../../../../pic32mx/lib/./proc/32MX795F512L\default_isr_vectors.o
 .pdr           0x00000000        0x0 d:/program files (x86)/microchip/xc32/v1.20/bin/../lib/gcc/pic32mx/4.5.2/../../../../pic32mx/lib/./proc/32MX795F512L\default_isr_vectors.o
 .discard       0x00000000      0x100 d:/program files (x86)/microchip/xc32/v1.20/bin/../lib/gcc/pic32mx/4.5.2/../../../../pic32mx/lib/./proc/32MX795F512L\default_isr_vectors.o
 .reginfo       0x00000000       0x18 d:/program files (x86)/microchip/xc32/v1.20/bin/../lib/gcc/pic32mx/4.5.2/../../../../pic32mx/lib/./proc/32MX795F512L\processor.o
 .pdr           0x00000000        0x0 d:/program files (x86)/microchip/xc32/v1.20/bin/../lib/gcc/pic32mx/4.5.2/../../../../pic32mx/lib/./proc/32MX795F512L\processor.o
 .reginfo       0x00000000       0x18 d:/program files (x86)/microchip/xc32/v1.20/bin/../lib/gcc/pic32mx/4.5.2/../../../../pic32mx/lib/size\libmchp_peripheral_32MX795F512L.a(soft_reset_lib.o)
 .pdr           0x00000000       0x20 d:/program files (x86)/microchip/xc32/v1.20/bin/../lib/gcc/pic32mx/4.5.2/../../../../pic32mx/lib/size\libmchp_peripheral_32MX795F512L.a(soft_reset_lib.o)
 .reginfo       0x00000000       0x18 d:/program files (x86)/microchip/xc32/v1.20/bin/../lib/gcc/pic32mx/4.5.2/../../../../pic32mx/lib/size\libmchp_peripheral_32MX795F512L.a(pcache.o)
 .pdr           0x00000000       0x40 d:/program files (x86)/microchip/xc32/v1.20/bin/../lib/gcc/pic32mx/4.5.2/../../../../pic32mx/lib/size\libmchp_peripheral_32MX795F512L.a(pcache.o)
 .reginfo       0x00000000       0x18 d:/program files (x86)/microchip/xc32/v1.20/bin/../lib/gcc/pic32mx/4.5.2/../../../../pic32mx/lib/size\libmchp_peripheral_32MX795F512L.a(int_disable_interrupts_lib.o)
 .pdr           0x00000000       0x20 d:/program files (x86)/microchip/xc32/v1.20/bin/../lib/gcc/pic32mx/4.5.2/../../../../pic32mx/lib/size\libmchp_peripheral_32MX795F512L.a(int_disable_interrupts_lib.o)
 .reginfo       0x00000000       0x18 d:/program files (x86)/microchip/xc32/v1.20/bin/../lib/gcc/pic32mx/4.5.2/../../../../pic32mx/lib/size\libmchp_peripheral_32MX795F512L.a(int_restore_interrupts_lib.o)
 .pdr           0x00000000       0x20 d:/program files (x86)/microchip/xc32/v1.20/bin/../lib/gcc/pic32mx/4.5.2/../../../../pic32mx/lib/size\libmchp_peripheral_32MX795F512L.a(int_restore_interrupts_lib.o)
 .reginfo       0x00000000       0x18 d:/program files (x86)/microchip/xc32/v1.20/bin/../lib/gcc/pic32mx/4.5.2/../../../../pic32mx/lib/size\libmchp_peripheral_32MX795F512L.a(int_enable_mv_int_lib.o)
 .pdr           0x00000000       0x20 d:/program files (x86)/microchip/xc32/v1.20/bin/../lib/gcc/pic32mx/4.5.2/../../../../pic32mx/lib/size\libmchp_peripheral_32MX795F512L.a(int_enable_mv_int_lib.o)
 .reginfo       0x00000000       0x18 d:/program files (x86)/microchip/xc32/v1.20/bin/../lib/gcc/pic32mx/4.5.2/../../../../pic32mx/lib/size\libmchp_peripheral_32MX795F512L.a(puts_uartx_lib_legacy.o)
 .pdr           0x00000000       0x40 d:/program files (x86)/microchip/xc32/v1.20/bin/../lib/gcc/pic32mx/4.5.2/../../../../pic32mx/lib/size\libmchp_peripheral_32MX795F512L.a(puts_uartx_lib_legacy.o)
 .reginfo       0x00000000       0x18 d:/program files (x86)/microchip/xc32/v1.20/bin/../lib/gcc/pic32mx/4.5.2/../../../../pic32mx/lib/size\libmchp_peripheral_32MX795F512L.a(int_enable_interrupts_lib.o)
 .pdr           0x00000000       0x20 d:/program files (x86)/microchip/xc32/v1.20/bin/../lib/gcc/pic32mx/4.5.2/../../../../pic32mx/lib/size\libmchp_peripheral_32MX795F512L.a(int_enable_interrupts_lib.o)
 .reginfo       0x00000000       0x18 d:/program files (x86)/microchip/xc32/v1.20/bin/../lib/gcc/pic32mx/4.5.2/size\libgcc.a(_udivdi3.o)
 .pdr           0x00000000       0x20 d:/program files (x86)/microchip/xc32/v1.20/bin/../lib/gcc/pic32mx/4.5.2/size\libgcc.a(_udivdi3.o)
 .reginfo       0x00000000       0x18 d:/program files (x86)/microchip/xc32/v1.20/bin/../lib/gcc/pic32mx/4.5.2/size\libgcc.a(_umoddi3.o)
 .pdr           0x00000000       0x20 d:/program files (x86)/microchip/xc32/v1.20/bin/../lib/gcc/pic32mx/4.5.2/size\libgcc.a(_umoddi3.o)
 .reginfo       0x00000000       0x18 d:/program files (x86)/microchip/xc32/v1.20/bin/../lib/gcc/pic32mx/4.5.2/../../../../pic32mx/lib/size\libpic32.a(memcmp.o)
 .pdr           0x00000000       0x20 d:/program files (x86)/microchip/xc32/v1.20/bin/../lib/gcc/pic32mx/4.5.2/../../../../pic32mx/lib/size\libpic32.a(memcmp.o)
 .reginfo       0x00000000       0x18 d:/program files (x86)/microchip/xc32/v1.20/bin/../lib/gcc/pic32mx/4.5.2/../../../../pic32mx/lib/size\libpic32.a(memcpy.o)
 .pdr           0x00000000       0x20 d:/program files (x86)/microchip/xc32/v1.20/bin/../lib/gcc/pic32mx/4.5.2/../../../../pic32mx/lib/size\libpic32.a(memcpy.o)
 .reginfo       0x00000000       0x18 d:/program files (x86)/microchip/xc32/v1.20/bin/../lib/gcc/pic32mx/4.5.2/../../../../pic32mx/lib/size\libpic32.a(memset.o)
 .pdr           0x00000000       0x20 d:/program files (x86)/microchip/xc32/v1.20/bin/../lib/gcc/pic32mx/4.5.2/../../../../pic32mx/lib/size\libpic32.a(memset.o)
 .reginfo       0x00000000       0x18 d:/program files (x86)/microchip/xc32/v1.20/bin/../lib/gcc/pic32mx/4.5.2/../../../../pic32mx/lib/size\libpic32.a(strcmp.o)
 .pdr           0x00000000       0x20 d:/program files (x86)/microchip/xc32/v1.20/bin/../lib/gcc/pic32mx/4.5.2/../../../../pic32mx/lib/size\libpic32.a(strcmp.o)
 .reginfo       0x00000000       0x18 d:/program files (x86)/microchip/xc32/v1.20/bin/../lib/gcc/pic32mx/4.5.2/../../../../pic32mx/lib/size\libpic32.a(strcpy.o)
 .pdr           0x00000000       0x20 d:/program files (x86)/microchip/xc32/v1.20/bin/../lib/gcc/pic32mx/4.5.2/../../../../pic32mx/lib/size\libpic32.a(strcpy.o)
 .reginfo       0x00000000       0x18 d:/program files (x86)/microchip/xc32/v1.20/bin/../lib/gcc/pic32mx/4.5.2/../../../../pic32mx/lib/size\libpic32.a(strlen.o)
 .pdr           0x00000000       0x20 d:/program files (x86)/microchip/xc32/v1.20/bin/../lib/gcc/pic32mx/4.5.2/../../../../pic32mx/lib/size\libpic32.a(strlen.o)
 .reginfo       0x00000000       0x18 d:/program files (x86)/microchip/xc32/v1.20/bin/../lib/gcc/pic32mx/4.5.2/../../../../pic32mx/lib/size\libpic32.a(default-bootstrap-exception-handler.o)
 .pdr           0x00000000       0x20 d:/program files (x86)/microchip/xc32/v1.20/bin/../lib/gcc/pic32mx/4.5.2/../../../../pic32mx/lib/size\libpic32.a(default-bootstrap-exception-handler.o)
 .reginfo       0x00000000       0x18 d:/program files (x86)/microchip/xc32/v1.20/bin/../lib/gcc/pic32mx/4.5.2/../../../../pic32mx/lib/size\libpic32.a(default-on-reset.o)
 .pdr           0x00000000       0x20 d:/program files (x86)/microchip/xc32/v1.20/bin/../lib/gcc/pic32mx/4.5.2/../../../../pic32mx/lib/size\libpic32.a(default-on-reset.o)
 .reginfo       0x00000000       0x18 d:/program files (x86)/microchip/xc32/v1.20/bin/../lib/gcc/pic32mx/4.5.2/../../../../pic32mx/lib/size\libpic32.a(default-on-bootstrap.o)
 .pdr           0x00000000       0x20 d:/program files (x86)/microchip/xc32/v1.20/bin/../lib/gcc/pic32mx/4.5.2/../../../../pic32mx/lib/size\libpic32.a(default-on-bootstrap.o)
 .reginfo       0x00000000       0x18 d:/program files (x86)/microchip/xc32/v1.20/bin/../lib/gcc/pic32mx/4.5.2/../../../../pic32mx/lib/size\libpic32.a(default-nmi-handler.o)
 .pdr           0x00000000       0x20 d:/program files (x86)/microchip/xc32/v1.20/bin/../lib/gcc/pic32mx/4.5.2/../../../../pic32mx/lib/size\libpic32.a(default-nmi-handler.o)
 .reginfo       0x00000000       0x18 d:/program files (x86)/microchip/xc32/v1.20/bin/../lib/gcc/pic32mx/4.5.2/../../../../pic32mx/lib/size\libpic32.a(general-exception.o)
 .pdr           0x00000000       0x20 d:/program files (x86)/microchip/xc32/v1.20/bin/../lib/gcc/pic32mx/4.5.2/../../../../pic32mx/lib/size\libpic32.a(general-exception.o)
 .reginfo       0x00000000       0x18 d:/program files (x86)/microchip/xc32/v1.20/bin/../lib/gcc/pic32mx/4.5.2/../../../../pic32mx/lib/size\libpic32.a(vector0.o)
 .pdr           0x00000000       0x20 d:/program files (x86)/microchip/xc32/v1.20/bin/../lib/gcc/pic32mx/4.5.2/../../../../pic32mx/lib/size\libpic32.a(vector0.o)
 .reginfo       0x00000000       0x18 d:/program files (x86)/microchip/xc32/v1.20/bin/../lib/gcc/pic32mx/4.5.2/../../../../pic32mx/lib/size\libpic32.a(vector1.o)
 .pdr           0x00000000       0x20 d:/program files (x86)/microchip/xc32/v1.20/bin/../lib/gcc/pic32mx/4.5.2/../../../../pic32mx/lib/size\libpic32.a(vector1.o)
 .reginfo       0x00000000       0x18 d:/program files (x86)/microchip/xc32/v1.20/bin/../lib/gcc/pic32mx/4.5.2/../../../../pic32mx/lib/size\libpic32.a(vector2.o)
 .pdr           0x00000000       0x20 d:/program files (x86)/microchip/xc32/v1.20/bin/../lib/gcc/pic32mx/4.5.2/../../../../pic32mx/lib/size\libpic32.a(vector2.o)
 .reginfo       0x00000000       0x18 d:/program files (x86)/microchip/xc32/v1.20/bin/../lib/gcc/pic32mx/4.5.2/../../../../pic32mx/lib/size\libpic32.a(vector3.o)
 .pdr           0x00000000       0x20 d:/program files (x86)/microchip/xc32/v1.20/bin/../lib/gcc/pic32mx/4.5.2/../../../../pic32mx/lib/size\libpic32.a(vector3.o)
 .reginfo       0x00000000       0x18 d:/program files (x86)/microchip/xc32/v1.20/bin/../lib/gcc/pic32mx/4.5.2/../../../../pic32mx/lib/size\libpic32.a(vector5.o)
 .pdr           0x00000000       0x20 d:/program files (x86)/microchip/xc32/v1.20/bin/../lib/gcc/pic32mx/4.5.2/../../../../pic32mx/lib/size\libpic32.a(vector5.o)
 .reginfo       0x00000000       0x18 d:/program files (x86)/microchip/xc32/v1.20/bin/../lib/gcc/pic32mx/4.5.2/../../../../pic32mx/lib/size\libpic32.a(vector6.o)
 .pdr           0x00000000       0x20 d:/program files (x86)/microchip/xc32/v1.20/bin/../lib/gcc/pic32mx/4.5.2/../../../../pic32mx/lib/size\libpic32.a(vector6.o)
 .reginfo       0x00000000       0x18 d:/program files (x86)/microchip/xc32/v1.20/bin/../lib/gcc/pic32mx/4.5.2/../../../../pic32mx/lib/size\libpic32.a(vector7.o)
 .pdr           0x00000000       0x20 d:/program files (x86)/microchip/xc32/v1.20/bin/../lib/gcc/pic32mx/4.5.2/../../../../pic32mx/lib/size\libpic32.a(vector7.o)
 .reginfo       0x00000000       0x18 d:/program files (x86)/microchip/xc32/v1.20/bin/../lib/gcc/pic32mx/4.5.2/../../../../pic32mx/lib/size\libpic32.a(vector8.o)
 .pdr           0x00000000       0x20 d:/program files (x86)/microchip/xc32/v1.20/bin/../lib/gcc/pic32mx/4.5.2/../../../../pic32mx/lib/size\libpic32.a(vector8.o)
 .reginfo       0x00000000       0x18 d:/program files (x86)/microchip/xc32/v1.20/bin/../lib/gcc/pic32mx/4.5.2/../../../../pic32mx/lib/size\libpic32.a(vector9.o)
 .pdr           0x00000000       0x20 d:/program files (x86)/microchip/xc32/v1.20/bin/../lib/gcc/pic32mx/4.5.2/../../../../pic32mx/lib/size\libpic32.a(vector9.o)
 .reginfo       0x00000000       0x18 d:/program files (x86)/microchip/xc32/v1.20/bin/../lib/gcc/pic32mx/4.5.2/../../../../pic32mx/lib/size\libpic32.a(vector10.o)
 .pdr           0x00000000       0x20 d:/program files (x86)/microchip/xc32/v1.20/bin/../lib/gcc/pic32mx/4.5.2/../../../../pic32mx/lib/size\libpic32.a(vector10.o)
 .reginfo       0x00000000       0x18 d:/program files (x86)/microchip/xc32/v1.20/bin/../lib/gcc/pic32mx/4.5.2/../../../../pic32mx/lib/size\libpic32.a(vector11.o)
 .pdr           0x00000000       0x20 d:/program files (x86)/microchip/xc32/v1.20/bin/../lib/gcc/pic32mx/4.5.2/../../../../pic32mx/lib/size\libpic32.a(vector11.o)
 .reginfo       0x00000000       0x18 d:/program files (x86)/microchip/xc32/v1.20/bin/../lib/gcc/pic32mx/4.5.2/../../../../pic32mx/lib/size\libpic32.a(vector12.o)
 .pdr           0x00000000       0x20 d:/program files (x86)/microchip/xc32/v1.20/bin/../lib/gcc/pic32mx/4.5.2/../../../../pic32mx/lib/size\libpic32.a(vector12.o)
 .reginfo       0x00000000       0x18 d:/program files (x86)/microchip/xc32/v1.20/bin/../lib/gcc/pic32mx/4.5.2/../../../../pic32mx/lib/size\libpic32.a(vector13.o)
 .pdr           0x00000000       0x20 d:/program files (x86)/microchip/xc32/v1.20/bin/../lib/gcc/pic32mx/4.5.2/../../../../pic32mx/lib/size\libpic32.a(vector13.o)
 .reginfo       0x00000000       0x18 d:/program files (x86)/microchip/xc32/v1.20/bin/../lib/gcc/pic32mx/4.5.2/../../../../pic32mx/lib/size\libpic32.a(vector14.o)
 .pdr           0x00000000       0x20 d:/program files (x86)/microchip/xc32/v1.20/bin/../lib/gcc/pic32mx/4.5.2/../../../../pic32mx/lib/size\libpic32.a(vector14.o)
 .reginfo       0x00000000       0x18 d:/program files (x86)/microchip/xc32/v1.20/bin/../lib/gcc/pic32mx/4.5.2/../../../../pic32mx/lib/size\libpic32.a(vector15.o)
 .pdr           0x00000000       0x20 d:/program files (x86)/microchip/xc32/v1.20/bin/../lib/gcc/pic32mx/4.5.2/../../../../pic32mx/lib/size\libpic32.a(vector15.o)
 .reginfo       0x00000000       0x18 d:/program files (x86)/microchip/xc32/v1.20/bin/../lib/gcc/pic32mx/4.5.2/../../../../pic32mx/lib/size\libpic32.a(vector16.o)
 .pdr           0x00000000       0x20 d:/program files (x86)/microchip/xc32/v1.20/bin/../lib/gcc/pic32mx/4.5.2/../../../../pic32mx/lib/size\libpic32.a(vector16.o)
 .reginfo       0x00000000       0x18 d:/program files (x86)/microchip/xc32/v1.20/bin/../lib/gcc/pic32mx/4.5.2/../../../../pic32mx/lib/size\libpic32.a(vector17.o)
 .pdr           0x00000000       0x20 d:/program files (x86)/microchip/xc32/v1.20/bin/../lib/gcc/pic32mx/4.5.2/../../../../pic32mx/lib/size\libpic32.a(vector17.o)
 .reginfo       0x00000000       0x18 d:/program files (x86)/microchip/xc32/v1.20/bin/../lib/gcc/pic32mx/4.5.2/../../../../pic32mx/lib/size\libpic32.a(vector18.o)
 .pdr           0x00000000       0x20 d:/program files (x86)/microchip/xc32/v1.20/bin/../lib/gcc/pic32mx/4.5.2/../../../../pic32mx/lib/size\libpic32.a(vector18.o)
 .reginfo       0x00000000       0x18 d:/program files (x86)/microchip/xc32/v1.20/bin/../lib/gcc/pic32mx/4.5.2/../../../../pic32mx/lib/size\libpic32.a(vector19.o)
 .pdr           0x00000000       0x20 d:/program files (x86)/microchip/xc32/v1.20/bin/../lib/gcc/pic32mx/4.5.2/../../../../pic32mx/lib/size\libpic32.a(vector19.o)
 .reginfo       0x00000000       0x18 d:/program files (x86)/microchip/xc32/v1.20/bin/../lib/gcc/pic32mx/4.5.2/../../../../pic32mx/lib/size\libpic32.a(vector20.o)
 .pdr           0x00000000       0x20 d:/program files (x86)/microchip/xc32/v1.20/bin/../lib/gcc/pic32mx/4.5.2/../../../../pic32mx/lib/size\libpic32.a(vector20.o)
 .reginfo       0x00000000       0x18 d:/program files (x86)/microchip/xc32/v1.20/bin/../lib/gcc/pic32mx/4.5.2/../../../../pic32mx/lib/size\libpic32.a(vector21.o)
 .pdr           0x00000000       0x20 d:/program files (x86)/microchip/xc32/v1.20/bin/../lib/gcc/pic32mx/4.5.2/../../../../pic32mx/lib/size\libpic32.a(vector21.o)
 .reginfo       0x00000000       0x18 d:/program files (x86)/microchip/xc32/v1.20/bin/../lib/gcc/pic32mx/4.5.2/../../../../pic32mx/lib/size\libpic32.a(vector22.o)
 .pdr           0x00000000       0x20 d:/program files (x86)/microchip/xc32/v1.20/bin/../lib/gcc/pic32mx/4.5.2/../../../../pic32mx/lib/size\libpic32.a(vector22.o)
 .reginfo       0x00000000       0x18 d:/program files (x86)/microchip/xc32/v1.20/bin/../lib/gcc/pic32mx/4.5.2/../../../../pic32mx/lib/size\libpic32.a(vector23.o)
 .pdr           0x00000000       0x20 d:/program files (x86)/microchip/xc32/v1.20/bin/../lib/gcc/pic32mx/4.5.2/../../../../pic32mx/lib/size\libpic32.a(vector23.o)
 .reginfo       0x00000000       0x18 d:/program files (x86)/microchip/xc32/v1.20/bin/../lib/gcc/pic32mx/4.5.2/../../../../pic32mx/lib/size\libpic32.a(vector24.o)
 .pdr           0x00000000       0x20 d:/program files (x86)/microchip/xc32/v1.20/bin/../lib/gcc/pic32mx/4.5.2/../../../../pic32mx/lib/size\libpic32.a(vector24.o)
 .reginfo       0x00000000       0x18 d:/program files (x86)/microchip/xc32/v1.20/bin/../lib/gcc/pic32mx/4.5.2/../../../../pic32mx/lib/size\libpic32.a(vector25.o)
 .pdr           0x00000000       0x20 d:/program files (x86)/microchip/xc32/v1.20/bin/../lib/gcc/pic32mx/4.5.2/../../../../pic32mx/lib/size\libpic32.a(vector25.o)
 .reginfo       0x00000000       0x18 d:/program files (x86)/microchip/xc32/v1.20/bin/../lib/gcc/pic32mx/4.5.2/../../../../pic32mx/lib/size\libpic32.a(vector26.o)
 .pdr           0x00000000       0x20 d:/program files (x86)/microchip/xc32/v1.20/bin/../lib/gcc/pic32mx/4.5.2/../../../../pic32mx/lib/size\libpic32.a(vector26.o)
 .reginfo       0x00000000       0x18 d:/program files (x86)/microchip/xc32/v1.20/bin/../lib/gcc/pic32mx/4.5.2/../../../../pic32mx/lib/size\libpic32.a(vector27.o)
 .pdr           0x00000000       0x20 d:/program files (x86)/microchip/xc32/v1.20/bin/../lib/gcc/pic32mx/4.5.2/../../../../pic32mx/lib/size\libpic32.a(vector27.o)
 .reginfo       0x00000000       0x18 d:/program files (x86)/microchip/xc32/v1.20/bin/../lib/gcc/pic32mx/4.5.2/../../../../pic32mx/lib/size\libpic32.a(vector28.o)
 .pdr           0x00000000       0x20 d:/program files (x86)/microchip/xc32/v1.20/bin/../lib/gcc/pic32mx/4.5.2/../../../../pic32mx/lib/size\libpic32.a(vector28.o)
 .reginfo       0x00000000       0x18 d:/program files (x86)/microchip/xc32/v1.20/bin/../lib/gcc/pic32mx/4.5.2/../../../../pic32mx/lib/size\libpic32.a(vector29.o)
 .pdr           0x00000000       0x20 d:/program files (x86)/microchip/xc32/v1.20/bin/../lib/gcc/pic32mx/4.5.2/../../../../pic32mx/lib/size\libpic32.a(vector29.o)
 .reginfo       0x00000000       0x18 d:/program files (x86)/microchip/xc32/v1.20/bin/../lib/gcc/pic32mx/4.5.2/../../../../pic32mx/lib/size\libpic32.a(vector30.o)
 .pdr           0x00000000       0x20 d:/program files (x86)/microchip/xc32/v1.20/bin/../lib/gcc/pic32mx/4.5.2/../../../../pic32mx/lib/size\libpic32.a(vector30.o)
 .reginfo       0x00000000       0x18 d:/program files (x86)/microchip/xc32/v1.20/bin/../lib/gcc/pic32mx/4.5.2/../../../../pic32mx/lib/size\libpic32.a(vector31.o)
 .pdr           0x00000000       0x20 d:/program files (x86)/microchip/xc32/v1.20/bin/../lib/gcc/pic32mx/4.5.2/../../../../pic32mx/lib/size\libpic32.a(vector31.o)
 .reginfo       0x00000000       0x18 d:/program files (x86)/microchip/xc32/v1.20/bin/../lib/gcc/pic32mx/4.5.2/../../../../pic32mx/lib/size\libpic32.a(vector32.o)
 .pdr           0x00000000       0x20 d:/program files (x86)/microchip/xc32/v1.20/bin/../lib/gcc/pic32mx/4.5.2/../../../../pic32mx/lib/size\libpic32.a(vector32.o)
 .reginfo       0x00000000       0x18 d:/program files (x86)/microchip/xc32/v1.20/bin/../lib/gcc/pic32mx/4.5.2/../../../../pic32mx/lib/size\libpic32.a(vector33.o)
 .pdr           0x00000000       0x20 d:/program files (x86)/microchip/xc32/v1.20/bin/../lib/gcc/pic32mx/4.5.2/../../../../pic32mx/lib/size\libpic32.a(vector33.o)
 .reginfo       0x00000000       0x18 d:/program files (x86)/microchip/xc32/v1.20/bin/../lib/gcc/pic32mx/4.5.2/../../../../pic32mx/lib/size\libpic32.a(vector34.o)
 .pdr           0x00000000       0x20 d:/program files (x86)/microchip/xc32/v1.20/bin/../lib/gcc/pic32mx/4.5.2/../../../../pic32mx/lib/size\libpic32.a(vector34.o)
 .reginfo       0x00000000       0x18 d:/program files (x86)/microchip/xc32/v1.20/bin/../lib/gcc/pic32mx/4.5.2/../../../../pic32mx/lib/size\libpic32.a(vector35.o)
 .pdr           0x00000000       0x20 d:/program files (x86)/microchip/xc32/v1.20/bin/../lib/gcc/pic32mx/4.5.2/../../../../pic32mx/lib/size\libpic32.a(vector35.o)
 .reginfo       0x00000000       0x18 d:/program files (x86)/microchip/xc32/v1.20/bin/../lib/gcc/pic32mx/4.5.2/../../../../pic32mx/lib/size\libpic32.a(vector36.o)
 .pdr           0x00000000       0x20 d:/program files (x86)/microchip/xc32/v1.20/bin/../lib/gcc/pic32mx/4.5.2/../../../../pic32mx/lib/size\libpic32.a(vector36.o)
 .reginfo       0x00000000       0x18 d:/program files (x86)/microchip/xc32/v1.20/bin/../lib/gcc/pic32mx/4.5.2/../../../../pic32mx/lib/size\libpic32.a(vector37.o)
 .pdr           0x00000000       0x20 d:/program files (x86)/microchip/xc32/v1.20/bin/../lib/gcc/pic32mx/4.5.2/../../../../pic32mx/lib/size\libpic32.a(vector37.o)
 .reginfo       0x00000000       0x18 d:/program files (x86)/microchip/xc32/v1.20/bin/../lib/gcc/pic32mx/4.5.2/../../../../pic32mx/lib/size\libpic32.a(vector38.o)
 .pdr           0x00000000       0x20 d:/program files (x86)/microchip/xc32/v1.20/bin/../lib/gcc/pic32mx/4.5.2/../../../../pic32mx/lib/size\libpic32.a(vector38.o)
 .reginfo       0x00000000       0x18 d:/program files (x86)/microchip/xc32/v1.20/bin/../lib/gcc/pic32mx/4.5.2/../../../../pic32mx/lib/size\libpic32.a(vector39.o)
 .pdr           0x00000000       0x20 d:/program files (x86)/microchip/xc32/v1.20/bin/../lib/gcc/pic32mx/4.5.2/../../../../pic32mx/lib/size\libpic32.a(vector39.o)
 .reginfo       0x00000000       0x18 d:/program files (x86)/microchip/xc32/v1.20/bin/../lib/gcc/pic32mx/4.5.2/../../../../pic32mx/lib/size\libpic32.a(vector40.o)
 .pdr           0x00000000       0x20 d:/program files (x86)/microchip/xc32/v1.20/bin/../lib/gcc/pic32mx/4.5.2/../../../../pic32mx/lib/size\libpic32.a(vector40.o)
 .reginfo       0x00000000       0x18 d:/program files (x86)/microchip/xc32/v1.20/bin/../lib/gcc/pic32mx/4.5.2/../../../../pic32mx/lib/size\libpic32.a(vector41.o)
 .pdr           0x00000000       0x20 d:/program files (x86)/microchip/xc32/v1.20/bin/../lib/gcc/pic32mx/4.5.2/../../../../pic32mx/lib/size\libpic32.a(vector41.o)
 .reginfo       0x00000000       0x18 d:/program files (x86)/microchip/xc32/v1.20/bin/../lib/gcc/pic32mx/4.5.2/../../../../pic32mx/lib/size\libpic32.a(vector42.o)
 .pdr           0x00000000       0x20 d:/program files (x86)/microchip/xc32/v1.20/bin/../lib/gcc/pic32mx/4.5.2/../../../../pic32mx/lib/size\libpic32.a(vector42.o)
 .reginfo       0x00000000       0x18 d:/program files (x86)/microchip/xc32/v1.20/bin/../lib/gcc/pic32mx/4.5.2/../../../../pic32mx/lib/size\libpic32.a(vector43.o)
 .pdr           0x00000000       0x20 d:/program files (x86)/microchip/xc32/v1.20/bin/../lib/gcc/pic32mx/4.5.2/../../../../pic32mx/lib/size\libpic32.a(vector43.o)
 .reginfo       0x00000000       0x18 d:/program files (x86)/microchip/xc32/v1.20/bin/../lib/gcc/pic32mx/4.5.2/../../../../pic32mx/lib/size\libpic32.a(vector44.o)
 .pdr           0x00000000       0x20 d:/program files (x86)/microchip/xc32/v1.20/bin/../lib/gcc/pic32mx/4.5.2/../../../../pic32mx/lib/size\libpic32.a(vector44.o)
 .reginfo       0x00000000       0x18 d:/program files (x86)/microchip/xc32/v1.20/bin/../lib/gcc/pic32mx/4.5.2/../../../../pic32mx/lib/size\libpic32.a(vector45.o)
 .pdr           0x00000000       0x20 d:/program files (x86)/microchip/xc32/v1.20/bin/../lib/gcc/pic32mx/4.5.2/../../../../pic32mx/lib/size\libpic32.a(vector45.o)
 .reginfo       0x00000000       0x18 d:/program files (x86)/microchip/xc32/v1.20/bin/../lib/gcc/pic32mx/4.5.2/../../../../pic32mx/lib/size\libpic32.a(vector46.o)
 .pdr           0x00000000       0x20 d:/program files (x86)/microchip/xc32/v1.20/bin/../lib/gcc/pic32mx/4.5.2/../../../../pic32mx/lib/size\libpic32.a(vector46.o)
 .reginfo       0x00000000       0x18 d:/program files (x86)/microchip/xc32/v1.20/bin/../lib/gcc/pic32mx/4.5.2/../../../../pic32mx/lib/size\libpic32.a(vector47.o)
 .pdr           0x00000000       0x20 d:/program files (x86)/microchip/xc32/v1.20/bin/../lib/gcc/pic32mx/4.5.2/../../../../pic32mx/lib/size\libpic32.a(vector47.o)
 .reginfo       0x00000000       0x18 d:/program files (x86)/microchip/xc32/v1.20/bin/../lib/gcc/pic32mx/4.5.2/../../../../pic32mx/lib/size\libpic32.a(vector48.o)
 .pdr           0x00000000       0x20 d:/program files (x86)/microchip/xc32/v1.20/bin/../lib/gcc/pic32mx/4.5.2/../../../../pic32mx/lib/size\libpic32.a(vector48.o)
 .reginfo       0x00000000       0x18 d:/program files (x86)/microchip/xc32/v1.20/bin/../lib/gcc/pic32mx/4.5.2/../../../../pic32mx/lib/size\libpic32.a(vector49.o)
 .pdr           0x00000000       0x20 d:/program files (x86)/microchip/xc32/v1.20/bin/../lib/gcc/pic32mx/4.5.2/../../../../pic32mx/lib/size\libpic32.a(vector49.o)
 .reginfo       0x00000000       0x18 d:/program files (x86)/microchip/xc32/v1.20/bin/../lib/gcc/pic32mx/4.5.2/../../../../pic32mx/lib/size\libpic32.a(vector50.o)
 .pdr           0x00000000       0x20 d:/program files (x86)/microchip/xc32/v1.20/bin/../lib/gcc/pic32mx/4.5.2/../../../../pic32mx/lib/size\libpic32.a(vector50.o)
 .reginfo       0x00000000       0x18 d:/program files (x86)/microchip/xc32/v1.20/bin/../lib/gcc/pic32mx/4.5.2/../../../../pic32mx/lib/size\libpic32.a(vector51.o)
 .pdr           0x00000000       0x20 d:/program files (x86)/microchip/xc32/v1.20/bin/../lib/gcc/pic32mx/4.5.2/../../../../pic32mx/lib/size\libpic32.a(vector51.o)
 .reginfo       0x00000000       0x18 d:/program files (x86)/microchip/xc32/v1.20/bin/../lib/gcc/pic32mx/4.5.2/../../../../pic32mx/lib/size\libpic32.a(vector52.o)
 .pdr           0x00000000       0x20 d:/program files (x86)/microchip/xc32/v1.20/bin/../lib/gcc/pic32mx/4.5.2/../../../../pic32mx/lib/size\libpic32.a(vector52.o)
 .reginfo       0x00000000       0x18 d:/program files (x86)/microchip/xc32/v1.20/bin/../lib/gcc/pic32mx/4.5.2/../../../../pic32mx/lib/size\libpic32.a(vector53.o)
 .pdr           0x00000000       0x20 d:/program files (x86)/microchip/xc32/v1.20/bin/../lib/gcc/pic32mx/4.5.2/../../../../pic32mx/lib/size\libpic32.a(vector53.o)
 .reginfo       0x00000000       0x18 d:/program files (x86)/microchip/xc32/v1.20/bin/../lib/gcc/pic32mx/4.5.2/../../../../pic32mx/lib/size\libpic32.a(vector54.o)
 .pdr           0x00000000       0x20 d:/program files (x86)/microchip/xc32/v1.20/bin/../lib/gcc/pic32mx/4.5.2/../../../../pic32mx/lib/size\libpic32.a(vector54.o)
 .reginfo       0x00000000       0x18 d:/program files (x86)/microchip/xc32/v1.20/bin/../lib/gcc/pic32mx/4.5.2/../../../../pic32mx/lib/size\libpic32.a(vector55.o)
 .pdr           0x00000000       0x20 d:/program files (x86)/microchip/xc32/v1.20/bin/../lib/gcc/pic32mx/4.5.2/../../../../pic32mx/lib/size\libpic32.a(vector55.o)
 .reginfo       0x00000000       0x18 d:/program files (x86)/microchip/xc32/v1.20/bin/../lib/gcc/pic32mx/4.5.2/../../../../pic32mx/lib/size\libpic32.a(vector56.o)
 .pdr           0x00000000       0x20 d:/program files (x86)/microchip/xc32/v1.20/bin/../lib/gcc/pic32mx/4.5.2/../../../../pic32mx/lib/size\libpic32.a(vector56.o)
 .reginfo       0x00000000       0x18 d:/program files (x86)/microchip/xc32/v1.20/bin/../lib/gcc/pic32mx/4.5.2/../../../../pic32mx/lib/size\libpic32.a(vector57.o)
 .pdr           0x00000000       0x20 d:/program files (x86)/microchip/xc32/v1.20/bin/../lib/gcc/pic32mx/4.5.2/../../../../pic32mx/lib/size\libpic32.a(vector57.o)
 .reginfo       0x00000000       0x18 d:/program files (x86)/microchip/xc32/v1.20/bin/../lib/gcc/pic32mx/4.5.2/../../../../pic32mx/lib/size\libpic32.a(vector58.o)
 .pdr           0x00000000       0x20 d:/program files (x86)/microchip/xc32/v1.20/bin/../lib/gcc/pic32mx/4.5.2/../../../../pic32mx/lib/size\libpic32.a(vector58.o)
 .reginfo       0x00000000       0x18 d:/program files (x86)/microchip/xc32/v1.20/bin/../lib/gcc/pic32mx/4.5.2/../../../../pic32mx/lib/size\libpic32.a(vector59.o)
 .pdr           0x00000000       0x20 d:/program files (x86)/microchip/xc32/v1.20/bin/../lib/gcc/pic32mx/4.5.2/../../../../pic32mx/lib/size\libpic32.a(vector59.o)
 .reginfo       0x00000000       0x18 d:/program files (x86)/microchip/xc32/v1.20/bin/../lib/gcc/pic32mx/4.5.2/../../../../pic32mx/lib/size\libpic32.a(vector60.o)
 .pdr           0x00000000       0x20 d:/program files (x86)/microchip/xc32/v1.20/bin/../lib/gcc/pic32mx/4.5.2/../../../../pic32mx/lib/size\libpic32.a(vector60.o)
 .reginfo       0x00000000       0x18 d:/program files (x86)/microchip/xc32/v1.20/bin/../lib/gcc/pic32mx/4.5.2/../../../../pic32mx/lib/size\libpic32.a(vector61.o)
 .pdr           0x00000000       0x20 d:/program files (x86)/microchip/xc32/v1.20/bin/../lib/gcc/pic32mx/4.5.2/../../../../pic32mx/lib/size\libpic32.a(vector61.o)
 .reginfo       0x00000000       0x18 d:/program files (x86)/microchip/xc32/v1.20/bin/../lib/gcc/pic32mx/4.5.2/../../../../pic32mx/lib/size\libpic32.a(vector62.o)
 .pdr           0x00000000       0x20 d:/program files (x86)/microchip/xc32/v1.20/bin/../lib/gcc/pic32mx/4.5.2/../../../../pic32mx/lib/size\libpic32.a(vector62.o)
 .reginfo       0x00000000       0x18 d:/program files (x86)/microchip/xc32/v1.20/bin/../lib/gcc/pic32mx/4.5.2/../../../../pic32mx/lib/size\libpic32.a(vector63.o)
 .pdr           0x00000000       0x20 d:/program files (x86)/microchip/xc32/v1.20/bin/../lib/gcc/pic32mx/4.5.2/../../../../pic32mx/lib/size\libpic32.a(vector63.o)
 .reginfo       0x00000000       0x18 d:/program files (x86)/microchip/xc32/v1.20/bin/../lib/gcc/pic32mx/4.5.2/../../../../pic32mx/lib/size\libpic32.a(defaultinterrupt.o)
 .pdr           0x00000000       0x20 d:/program files (x86)/microchip/xc32/v1.20/bin/../lib/gcc/pic32mx/4.5.2/../../../../pic32mx/lib/size\libpic32.a(defaultinterrupt.o)
 .reginfo       0x00000000       0x18 d:/program files (x86)/microchip/xc32/v1.20/bin/../lib/gcc/pic32mx/4.5.2/../../../../pic32mx/lib/size\libc.a(atoi.o)
 .pdr           0x00000000       0x20 d:/program files (x86)/microchip/xc32/v1.20/bin/../lib/gcc/pic32mx/4.5.2/../../../../pic32mx/lib/size\libc.a(atoi.o)
 .reginfo       0x00000000       0x18 d:/program files (x86)/microchip/xc32/v1.20/bin/../lib/gcc/pic32mx/4.5.2/../../../../pic32mx/lib/size\libc.a(atol.o)
 .pdr           0x00000000       0x20 d:/program files (x86)/microchip/xc32/v1.20/bin/../lib/gcc/pic32mx/4.5.2/../../../../pic32mx/lib/size\libc.a(atol.o)
 .reginfo       0x00000000       0x18 d:/program files (x86)/microchip/xc32/v1.20/bin/../lib/gcc/pic32mx/4.5.2/../../../../pic32mx/lib/size\libc.a(ctype.o)
 .pdr           0x00000000        0x0 d:/program files (x86)/microchip/xc32/v1.20/bin/../lib/gcc/pic32mx/4.5.2/../../../../pic32mx/lib/size\libc.a(ctype.o)
 .reginfo       0x00000000       0x18 d:/program files (x86)/microchip/xc32/v1.20/bin/../lib/gcc/pic32mx/4.5.2/../../../../pic32mx/lib/size\libc.a(ltoa.o)
 .pdr           0x00000000       0x40 d:/program files (x86)/microchip/xc32/v1.20/bin/../lib/gcc/pic32mx/4.5.2/../../../../pic32mx/lib/size\libc.a(ltoa.o)
 .reginfo       0x00000000       0x18 d:/program files (x86)/microchip/xc32/v1.20/bin/../lib/gcc/pic32mx/4.5.2/../../../../pic32mx/lib/size\libc.a(strncpy.o)
 .pdr           0x00000000       0x20 d:/program files (x86)/microchip/xc32/v1.20/bin/../lib/gcc/pic32mx/4.5.2/../../../../pic32mx/lib/size\libc.a(strncpy.o)

Memory Configuration

Name             Origin             Length             Attributes
kseg0_program_mem 0x9d000000         0x00080000         xr
kseg0_boot_mem   0x9fc00490         0x00000970
exception_mem    0x9fc01000         0x00001000
kseg1_boot_mem   0xbfc00000         0x00000490
debug_exec_mem   0xbfc02000         0x00000ff0
config3          0xbfc02ff0         0x00000004
config2          0xbfc02ff4         0x00000004
config1          0xbfc02ff8         0x00000004
config0          0xbfc02ffc         0x00000004
kseg1_data_mem   0xa0000000         0x00020000         w !x
sfrs             0xbf800000         0x00100000
configsfrs       0xbfc02ff0         0x00000010
*default*        0x00000000         0xffffffff

Linker script and memory map

LOAD d:/program files (x86)/microchip/xc32/v1.20/bin/../lib/gcc/pic32mx/4.5.2/../../../../pic32mx/lib/size/crt0.o
LOAD Obj-XC32-EX16_ENC28\Announce.o
LOAD Obj-XC32-EX16_ENC28\ARCFOUR.o
LOAD Obj-XC32-EX16_ENC28\ARP.o
LOAD Obj-XC32-EX16_ENC28\AutoIP.o
LOAD Obj-XC32-EX16_ENC28\BerkeleyAPI.o
LOAD Obj-XC32-EX16_ENC28\BigInt.o
LOAD Obj-XC32-EX16_ENC28\Delay.o
LOAD Obj-XC32-EX16_ENC28\DHCP.o
LOAD Obj-XC32-EX16_ENC28\DHCPs.o
LOAD Obj-XC32-EX16_ENC28\DNS.o
LOAD Obj-XC32-EX16_ENC28\DNSs.o
LOAD Obj-XC32-EX16_ENC28\DynDNS.o
LOAD Obj-XC32-EX16_ENC28\ENC28J60.o
LOAD Obj-XC32-EX16_ENC28\ENCX24J600.o
LOAD Obj-XC32-EX16_ENC28\FileSystem.o
LOAD Obj-XC32-EX16_ENC28\FTP.o
LOAD Obj-XC32-EX16_ENC28\Hashes.o
LOAD Obj-XC32-EX16_ENC28\Helpers.o
LOAD Obj-XC32-EX16_ENC28\HTTP2.o
LOAD Obj-XC32-EX16_ENC28\ICMP.o
LOAD Obj-XC32-EX16_ENC28\IP.o
LOAD Obj-XC32-EX16_ENC28\LCDBlocking.o
LOAD Obj-XC32-EX16_ENC28\MPFS2.o
LOAD Obj-XC32-EX16_ENC28\NBNS.o
LOAD Obj-XC32-EX16_ENC28\Random.o
LOAD Obj-XC32-EX16_ENC28\Reboot.o
LOAD Obj-XC32-EX16_ENC28\RSA.o
LOAD Obj-XC32-EX16_ENC28\SMTP.o
LOAD Obj-XC32-EX16_ENC28\SNMP.o
LOAD Obj-XC32-EX16_ENC28\SNMPv3.o
LOAD Obj-XC32-EX16_ENC28\SNMPv3USM.o
LOAD Obj-XC32-EX16_ENC28\SNTP.o
LOAD Obj-XC32-EX16_ENC28\SPIEEPROM.o
LOAD Obj-XC32-EX16_ENC28\SPIFlash.o
LOAD Obj-XC32-EX16_ENC28\SPIRAM.o
LOAD Obj-XC32-EX16_ENC28\SSL.o
LOAD Obj-XC32-EX16_ENC28\StackTsk.o
LOAD Obj-XC32-EX16_ENC28\TCP.o
LOAD Obj-XC32-EX16_ENC28\TCPPerformanceTest.o
LOAD Obj-XC32-EX16_ENC28\Telnet.o
LOAD Obj-XC32-EX16_ENC28\TFTPc.o
LOAD Obj-XC32-EX16_ENC28\Tick.o
LOAD Obj-XC32-EX16_ENC28\UART2TCPBridge.o
LOAD Obj-XC32-EX16_ENC28\UART.o
LOAD Obj-XC32-EX16_ENC28\UDP.o
LOAD Obj-XC32-EX16_ENC28\UDPPerformanceTest.o
LOAD Obj-XC32-EX16_ENC28\ZeroconfHelper.o
LOAD Obj-XC32-EX16_ENC28\ZeroconfLinkLocal.o
LOAD Obj-XC32-EX16_ENC28\ZeroconfMulticastDNS.o
LOAD Obj-XC32-EX16_ENC28\CustomHTTPApp.o
LOAD Obj-XC32-EX16_ENC28\CustomSNMPApp.o
LOAD Obj-XC32-EX16_ENC28\CustomSSLCert.o
LOAD Obj-XC32-EX16_ENC28\MainDemo.o
LOAD Obj-XC32-EX16_ENC28\BerkeleyTCPClientDemo.o
LOAD Obj-XC32-EX16_ENC28\BerkeleyTCPServerDemo.o
LOAD Obj-XC32-EX16_ENC28\BerkeleyUDPClientDemo.o
LOAD Obj-XC32-EX16_ENC28\GenericTCPClient.o
LOAD Obj-XC32-EX16_ENC28\GenericTCPServer.o
LOAD Obj-XC32-EX16_ENC28\PingDemo.o
LOAD Obj-XC32-EX16_ENC28\SMTPDemo.o
LOAD Obj-XC32-EX16_ENC28\UARTConfig.o
LOAD Obj-XC32-EX16_ENC28\MPFSImg2.o
LOAD Obj-XC32-EX16_ENC28\BigInt_helper_PIC32.o
                0x00000001                __MPLAB_BUILD = 0x1
                0x00000001                __MPLAB_DEBUG = 0x1
LOAD d:/program files (x86)/microchip/xc32/v1.20/bin/../lib/gcc/pic32mx/4.5.2/../../../../pic32mx/lib/./proc/32MX795F512L\default_isr_vectors.o
                0x00000400                PROVIDE (_min_stack_size, 0x400)
LOAD d:/program files (x86)/microchip/xc32/v1.20/bin/../lib/gcc/pic32mx/4.5.2/../../../../pic32mx/lib/./proc/32MX795F512L\processor.o
START GROUP
LOAD d:/program files (x86)/microchip/xc32/v1.20/bin/../lib/gcc/pic32mx/4.5.2/../../../../pic32mx/lib/size\libmchp_peripheral.a
END GROUP
START GROUP
LOAD d:/program files (x86)/microchip/xc32/v1.20/bin/../lib/gcc/pic32mx/4.5.2/../../../../pic32mx/lib/size\libmchp_peripheral_32MX795F512L.a
END GROUP
                0x00000001                PROVIDE (_vector_spacing, 0x1)
                0x9fc01000                _ebase_address = 0x9fc01000
                0xbfc00000                _RESET_ADDR = 0xbfc00000
                0xbfc00380                _BEV_EXCPT_ADDR = 0xbfc00380
                0xbfc00480                _DBG_EXCPT_ADDR = 0xbfc00480
                0xbfc02000                _DBG_CODE_ADDR = 0xbfc02000
                0x00000ff0                _DBG_CODE_SIZE = 0xff0
                0x9fc01180                _GEN_EXCPT_ADDR = (_ebase_address + 0x180)

.config_BFC02FF0
 *(.config_BFC02FF0)

.config_BFC02FF4
                0xbfc02ff4        0x4
 *(.config_BFC02FF4)
 .config_BFC02FF4
                0xbfc02ff4        0x4 Obj-XC32-EX16_ENC28\MainDemo.o

.config_BFC02FF8
                0xbfc02ff8        0x4
 *(.config_BFC02FF8)
 .config_BFC02FF8
                0xbfc02ff8        0x4 Obj-XC32-EX16_ENC28\MainDemo.o

.config_BFC02FFC
                0xbfc02ffc        0x4
 *(.config_BFC02FFC)
 .config_BFC02FFC
                0xbfc02ffc        0x4 Obj-XC32-EX16_ENC28\MainDemo.o
                0xbfc02000                PROVIDE (_DBG_CODE_ADDR, 0xbfc02000)
                0x00000ff0                PROVIDE (_DBG_CODE_SIZE, 0xff0)

.reset          0xbfc00000      0x1f4
 *(.reset)
 .reset         0xbfc00000       0x10 d:/program files (x86)/microchip/xc32/v1.20/bin/../lib/gcc/pic32mx/4.5.2/../../../../pic32mx/lib/size/crt0.o
                0xbfc00000                _reset
 *(.reset.startup)
 .reset.startup
                0xbfc00010      0x1e4 d:/program files (x86)/microchip/xc32/v1.20/bin/../lib/gcc/pic32mx/4.5.2/../../../../pic32mx/lib/size/crt0.o

.bev_excpt      0xbfc00380       0x10
 *(.bev_handler)
 .bev_handler   0xbfc00380       0x10 d:/program files (x86)/microchip/xc32/v1.20/bin/../lib/gcc/pic32mx/4.5.2/../../../../pic32mx/lib/size/crt0.o

.dbg_excpt      0xbfc00480        0x0
                0xbfc00480                . = (. + DEFINED (_DEBUGGER)?0x8:0x0)

.dbg_code       0xbfc02000        0x0
                0xbfc02000                . = (. + DEFINED (_DEBUGGER)?_DBG_CODE_SIZE:0x0)

.app_excpt      0x9fc01180       0x10
 *(.gen_handler)
 .gen_handler   0x9fc01180       0x10 d:/program files (x86)/microchip/xc32/v1.20/bin/../lib/gcc/pic32mx/4.5.2/../../../../pic32mx/lib/size/crt0.o

.vector_0       0x9fc01200        0x8
 *(.vector_0)
 .vector_0      0x9fc01200        0x8 d:/program files (x86)/microchip/xc32/v1.20/bin/../lib/gcc/pic32mx/4.5.2/../../../../pic32mx/lib/size\libpic32.a(vector0.o)
                0x9fc01200                __vector_dispatch_0
                0x00000001                ASSERT (((_vector_spacing == 0x0) || (SIZEOF (.vector_0) <= (_vector_spacing << 0x5))), function at exception vector 0 too large)

.vector_1       0x9fc01220        0x8
 *(.vector_1)
 .vector_1      0x9fc01220        0x8 d:/program files (x86)/microchip/xc32/v1.20/bin/../lib/gcc/pic32mx/4.5.2/../../../../pic32mx/lib/size\libpic32.a(vector1.o)
                0x9fc01220                __vector_dispatch_1
                0x00000001                ASSERT (((_vector_spacing == 0x0) || (SIZEOF (.vector_1) <= (_vector_spacing << 0x5))), function at exception vector 1 too large)

.vector_2       0x9fc01240        0x8
 *(.vector_2)
 .vector_2      0x9fc01240        0x8 d:/program files (x86)/microchip/xc32/v1.20/bin/../lib/gcc/pic32mx/4.5.2/../../../../pic32mx/lib/size\libpic32.a(vector2.o)
                0x9fc01240                __vector_dispatch_2
                0x00000001                ASSERT (((_vector_spacing == 0x0) || (SIZEOF (.vector_2) <= (_vector_spacing << 0x5))), function at exception vector 2 too large)

.vector_3       0x9fc01260        0x8
 *(.vector_3)
 .vector_3      0x9fc01260        0x8 d:/program files (x86)/microchip/xc32/v1.20/bin/../lib/gcc/pic32mx/4.5.2/../../../../pic32mx/lib/size\libpic32.a(vector3.o)
                0x9fc01260                __vector_dispatch_3
                0x00000001                ASSERT (((_vector_spacing == 0x0) || (SIZEOF (.vector_3) <= (_vector_spacing << 0x5))), function at exception vector 3 too large)

.vector_4       0x9fc01280        0x8
 *(.vector_4)
 .vector_4      0x9fc01280        0x8 Obj-XC32-EX16_ENC28\Tick.o
                0x9fc01280                __vector_dispatch_4
                0x00000001                ASSERT (((_vector_spacing == 0x0) || (SIZEOF (.vector_4) <= (_vector_spacing << 0x5))), function at exception vector 4 too large)

.vector_5       0x9fc012a0        0x8
 *(.vector_5)
 .vector_5      0x9fc012a0        0x8 d:/program files (x86)/microchip/xc32/v1.20/bin/../lib/gcc/pic32mx/4.5.2/../../../../pic32mx/lib/size\libpic32.a(vector5.o)
                0x9fc012a0                __vector_dispatch_5
                0x00000001                ASSERT (((_vector_spacing == 0x0) || (SIZEOF (.vector_5) <= (_vector_spacing << 0x5))), function at exception vector 5 too large)

.vector_6       0x9fc012c0        0x8
 *(.vector_6)
 .vector_6      0x9fc012c0        0x8 d:/program files (x86)/microchip/xc32/v1.20/bin/../lib/gcc/pic32mx/4.5.2/../../../../pic32mx/lib/size\libpic32.a(vector6.o)
                0x9fc012c0                __vector_dispatch_6
                0x00000001                ASSERT (((_vector_spacing == 0x0) || (SIZEOF (.vector_6) <= (_vector_spacing << 0x5))), function at exception vector 6 too large)

.vector_7       0x9fc012e0        0x8
 *(.vector_7)
 .vector_7      0x9fc012e0        0x8 d:/program files (x86)/microchip/xc32/v1.20/bin/../lib/gcc/pic32mx/4.5.2/../../../../pic32mx/lib/size\libpic32.a(vector7.o)
                0x9fc012e0                __vector_dispatch_7
                0x00000001                ASSERT (((_vector_spacing == 0x0) || (SIZEOF (.vector_7) <= (_vector_spacing << 0x5))), function at exception vector 7 too large)

.vector_8       0x9fc01300        0x8
 *(.vector_8)
 .vector_8      0x9fc01300        0x8 d:/program files (x86)/microchip/xc32/v1.20/bin/../lib/gcc/pic32mx/4.5.2/../../../../pic32mx/lib/size\libpic32.a(vector8.o)
                0x9fc01300                __vector_dispatch_8
                0x00000001                ASSERT (((_vector_spacing == 0x0) || (SIZEOF (.vector_8) <= (_vector_spacing << 0x5))), function at exception vector 8 too large)

.vector_9       0x9fc01320        0x8
 *(.vector_9)
 .vector_9      0x9fc01320        0x8 d:/program files (x86)/microchip/xc32/v1.20/bin/../lib/gcc/pic32mx/4.5.2/../../../../pic32mx/lib/size\libpic32.a(vector9.o)
                0x9fc01320                __vector_dispatch_9
                0x00000001                ASSERT (((_vector_spacing == 0x0) || (SIZEOF (.vector_9) <= (_vector_spacing << 0x5))), function at exception vector 9 too large)

.vector_10      0x9fc01340        0x8
 *(.vector_10)
 .vector_10     0x9fc01340        0x8 d:/program files (x86)/microchip/xc32/v1.20/bin/../lib/gcc/pic32mx/4.5.2/../../../../pic32mx/lib/size\libpic32.a(vector10.o)
                0x9fc01340                __vector_dispatch_10
                0x00000001                ASSERT (((_vector_spacing == 0x0) || (SIZEOF (.vector_10) <= (_vector_spacing << 0x5))), function at exception vector 10 too large)

.vector_11      0x9fc01360        0x8
 *(.vector_11)
 .vector_11     0x9fc01360        0x8 d:/program files (x86)/microchip/xc32/v1.20/bin/../lib/gcc/pic32mx/4.5.2/../../../../pic32mx/lib/size\libpic32.a(vector11.o)
                0x9fc01360                __vector_dispatch_11
                0x00000001                ASSERT (((_vector_spacing == 0x0) || (SIZEOF (.vector_11) <= (_vector_spacing << 0x5))), function at exception vector 11 too large)

.vector_12      0x9fc01380        0x8
 *(.vector_12)
 .vector_12     0x9fc01380        0x8 d:/program files (x86)/microchip/xc32/v1.20/bin/../lib/gcc/pic32mx/4.5.2/../../../../pic32mx/lib/size\libpic32.a(vector12.o)
                0x9fc01380                __vector_dispatch_12
                0x00000001                ASSERT (((_vector_spacing == 0x0) || (SIZEOF (.vector_12) <= (_vector_spacing << 0x5))), function at exception vector 12 too large)

.vector_13      0x9fc013a0        0x8
 *(.vector_13)
 .vector_13     0x9fc013a0        0x8 d:/program files (x86)/microchip/xc32/v1.20/bin/../lib/gcc/pic32mx/4.5.2/../../../../pic32mx/lib/size\libpic32.a(vector13.o)
                0x9fc013a0                __vector_dispatch_13
                0x00000001                ASSERT (((_vector_spacing == 0x0) || (SIZEOF (.vector_13) <= (_vector_spacing << 0x5))), function at exception vector 13 too large)

.vector_14      0x9fc013c0        0x8
 *(.vector_14)
 .vector_14     0x9fc013c0        0x8 d:/program files (x86)/microchip/xc32/v1.20/bin/../lib/gcc/pic32mx/4.5.2/../../../../pic32mx/lib/size\libpic32.a(vector14.o)
                0x9fc013c0                __vector_dispatch_14
                0x00000001                ASSERT (((_vector_spacing == 0x0) || (SIZEOF (.vector_14) <= (_vector_spacing << 0x5))), function at exception vector 14 too large)

.vector_15      0x9fc013e0        0x8
 *(.vector_15)
 .vector_15     0x9fc013e0        0x8 d:/program files (x86)/microchip/xc32/v1.20/bin/../lib/gcc/pic32mx/4.5.2/../../../../pic32mx/lib/size\libpic32.a(vector15.o)
                0x9fc013e0                __vector_dispatch_15
                0x00000001                ASSERT (((_vector_spacing == 0x0) || (SIZEOF (.vector_15) <= (_vector_spacing << 0x5))), function at exception vector 15 too large)

.vector_16      0x9fc01400        0x8
 *(.vector_16)
 .vector_16     0x9fc01400        0x8 d:/program files (x86)/microchip/xc32/v1.20/bin/../lib/gcc/pic32mx/4.5.2/../../../../pic32mx/lib/size\libpic32.a(vector16.o)
                0x9fc01400                __vector_dispatch_16
                0x00000001                ASSERT (((_vector_spacing == 0x0) || (SIZEOF (.vector_16) <= (_vector_spacing << 0x5))), function at exception vector 16 too large)

.vector_17      0x9fc01420        0x8
 *(.vector_17)
 .vector_17     0x9fc01420        0x8 d:/program files (x86)/microchip/xc32/v1.20/bin/../lib/gcc/pic32mx/4.5.2/../../../../pic32mx/lib/size\libpic32.a(vector17.o)
                0x9fc01420                __vector_dispatch_17
                0x00000001                ASSERT (((_vector_spacing == 0x0) || (SIZEOF (.vector_17) <= (_vector_spacing << 0x5))), function at exception vector 17 too large)

.vector_18      0x9fc01440        0x8
 *(.vector_18)
 .vector_18     0x9fc01440        0x8 d:/program files (x86)/microchip/xc32/v1.20/bin/../lib/gcc/pic32mx/4.5.2/../../../../pic32mx/lib/size\libpic32.a(vector18.o)
                0x9fc01440                __vector_dispatch_18
                0x00000001                ASSERT (((_vector_spacing == 0x0) || (SIZEOF (.vector_18) <= (_vector_spacing << 0x5))), function at exception vector 18 too large)

.vector_19      0x9fc01460        0x8
 *(.vector_19)
 .vector_19     0x9fc01460        0x8 d:/program files (x86)/microchip/xc32/v1.20/bin/../lib/gcc/pic32mx/4.5.2/../../../../pic32mx/lib/size\libpic32.a(vector19.o)
                0x9fc01460                __vector_dispatch_19
                0x00000001                ASSERT (((_vector_spacing == 0x0) || (SIZEOF (.vector_19) <= (_vector_spacing << 0x5))), function at exception vector 19 too large)

.vector_20      0x9fc01480        0x8
 *(.vector_20)
 .vector_20     0x9fc01480        0x8 d:/program files (x86)/microchip/xc32/v1.20/bin/../lib/gcc/pic32mx/4.5.2/../../../../pic32mx/lib/size\libpic32.a(vector20.o)
                0x9fc01480                __vector_dispatch_20
                0x00000001                ASSERT (((_vector_spacing == 0x0) || (SIZEOF (.vector_20) <= (_vector_spacing << 0x5))), function at exception vector 20 too large)

.vector_21      0x9fc014a0        0x8
 *(.vector_21)
 .vector_21     0x9fc014a0        0x8 d:/program files (x86)/microchip/xc32/v1.20/bin/../lib/gcc/pic32mx/4.5.2/../../../../pic32mx/lib/size\libpic32.a(vector21.o)
                0x9fc014a0                __vector_dispatch_21
                0x00000001                ASSERT (((_vector_spacing == 0x0) || (SIZEOF (.vector_21) <= (_vector_spacing << 0x5))), function at exception vector 21 too large)

.vector_22      0x9fc014c0        0x8
 *(.vector_22)
 .vector_22     0x9fc014c0        0x8 d:/program files (x86)/microchip/xc32/v1.20/bin/../lib/gcc/pic32mx/4.5.2/../../../../pic32mx/lib/size\libpic32.a(vector22.o)
                0x9fc014c0                __vector_dispatch_22
                0x00000001                ASSERT (((_vector_spacing == 0x0) || (SIZEOF (.vector_22) <= (_vector_spacing << 0x5))), function at exception vector 22 too large)

.vector_23      0x9fc014e0        0x8
 *(.vector_23)
 .vector_23     0x9fc014e0        0x8 d:/program files (x86)/microchip/xc32/v1.20/bin/../lib/gcc/pic32mx/4.5.2/../../../../pic32mx/lib/size\libpic32.a(vector23.o)
                0x9fc014e0                __vector_dispatch_23
                0x00000001                ASSERT (((_vector_spacing == 0x0) || (SIZEOF (.vector_23) <= (_vector_spacing << 0x5))), function at exception vector 23 too large)

.vector_24      0x9fc01500        0x8
 *(.vector_24)
 .vector_24     0x9fc01500        0x8 d:/program files (x86)/microchip/xc32/v1.20/bin/../lib/gcc/pic32mx/4.5.2/../../../../pic32mx/lib/size\libpic32.a(vector24.o)
                0x9fc01500                __vector_dispatch_24
                0x00000001                ASSERT (((_vector_spacing == 0x0) || (SIZEOF (.vector_24) <= (_vector_spacing << 0x5))), function at exception vector 24 too large)

.vector_25      0x9fc01520        0x8
 *(.vector_25)
 .vector_25     0x9fc01520        0x8 d:/program files (x86)/microchip/xc32/v1.20/bin/../lib/gcc/pic32mx/4.5.2/../../../../pic32mx/lib/size\libpic32.a(vector25.o)
                0x9fc01520                __vector_dispatch_25
                0x00000001                ASSERT (((_vector_spacing == 0x0) || (SIZEOF (.vector_25) <= (_vector_spacing << 0x5))), function at exception vector 25 too large)

.vector_26      0x9fc01540        0x8
 *(.vector_26)
 .vector_26     0x9fc01540        0x8 d:/program files (x86)/microchip/xc32/v1.20/bin/../lib/gcc/pic32mx/4.5.2/../../../../pic32mx/lib/size\libpic32.a(vector26.o)
                0x9fc01540                __vector_dispatch_26
                0x00000001                ASSERT (((_vector_spacing == 0x0) || (SIZEOF (.vector_26) <= (_vector_spacing << 0x5))), function at exception vector 26 too large)

.vector_27      0x9fc01560        0x8
 *(.vector_27)
 .vector_27     0x9fc01560        0x8 d:/program files (x86)/microchip/xc32/v1.20/bin/../lib/gcc/pic32mx/4.5.2/../../../../pic32mx/lib/size\libpic32.a(vector27.o)
                0x9fc01560                __vector_dispatch_27
                0x00000001                ASSERT (((_vector_spacing == 0x0) || (SIZEOF (.vector_27) <= (_vector_spacing << 0x5))), function at exception vector 27 too large)

.vector_28      0x9fc01580        0x8
 *(.vector_28)
 .vector_28     0x9fc01580        0x8 d:/program files (x86)/microchip/xc32/v1.20/bin/../lib/gcc/pic32mx/4.5.2/../../../../pic32mx/lib/size\libpic32.a(vector28.o)
                0x9fc01580                __vector_dispatch_28
                0x00000001                ASSERT (((_vector_spacing == 0x0) || (SIZEOF (.vector_28) <= (_vector_spacing << 0x5))), function at exception vector 28 too large)

.vector_29      0x9fc015a0        0x8
 *(.vector_29)
 .vector_29     0x9fc015a0        0x8 d:/program files (x86)/microchip/xc32/v1.20/bin/../lib/gcc/pic32mx/4.5.2/../../../../pic32mx/lib/size\libpic32.a(vector29.o)
                0x9fc015a0                __vector_dispatch_29
                0x00000001                ASSERT (((_vector_spacing == 0x0) || (SIZEOF (.vector_29) <= (_vector_spacing << 0x5))), function at exception vector 29 too large)

.vector_30      0x9fc015c0        0x8
 *(.vector_30)
 .vector_30     0x9fc015c0        0x8 d:/program files (x86)/microchip/xc32/v1.20/bin/../lib/gcc/pic32mx/4.5.2/../../../../pic32mx/lib/size\libpic32.a(vector30.o)
                0x9fc015c0                __vector_dispatch_30
                0x00000001                ASSERT (((_vector_spacing == 0x0) || (SIZEOF (.vector_30) <= (_vector_spacing << 0x5))), function at exception vector 30 too large)

.vector_31      0x9fc015e0        0x8
 *(.vector_31)
 .vector_31     0x9fc015e0        0x8 d:/program files (x86)/microchip/xc32/v1.20/bin/../lib/gcc/pic32mx/4.5.2/../../../../pic32mx/lib/size\libpic32.a(vector31.o)
                0x9fc015e0                __vector_dispatch_31
                0x00000001                ASSERT (((_vector_spacing == 0x0) || (SIZEOF (.vector_31) <= (_vector_spacing << 0x5))), function at exception vector 31 too large)

.vector_32      0x9fc01600        0x8
 *(.vector_32)
 .vector_32     0x9fc01600        0x8 d:/program files (x86)/microchip/xc32/v1.20/bin/../lib/gcc/pic32mx/4.5.2/../../../../pic32mx/lib/size\libpic32.a(vector32.o)
                0x9fc01600                __vector_dispatch_32
                0x00000001                ASSERT (((_vector_spacing == 0x0) || (SIZEOF (.vector_32) <= (_vector_spacing << 0x5))), function at exception vector 32 too large)

.vector_33      0x9fc01620        0x8
 *(.vector_33)
 .vector_33     0x9fc01620        0x8 d:/program files (x86)/microchip/xc32/v1.20/bin/../lib/gcc/pic32mx/4.5.2/../../../../pic32mx/lib/size\libpic32.a(vector33.o)
                0x9fc01620                __vector_dispatch_33
                0x00000001                ASSERT (((_vector_spacing == 0x0) || (SIZEOF (.vector_33) <= (_vector_spacing << 0x5))), function at exception vector 33 too large)

.vector_34      0x9fc01640        0x8
 *(.vector_34)
 .vector_34     0x9fc01640        0x8 d:/program files (x86)/microchip/xc32/v1.20/bin/../lib/gcc/pic32mx/4.5.2/../../../../pic32mx/lib/size\libpic32.a(vector34.o)
                0x9fc01640                __vector_dispatch_34
                0x00000001                ASSERT (((_vector_spacing == 0x0) || (SIZEOF (.vector_34) <= (_vector_spacing << 0x5))), function at exception vector 34 too large)

.vector_35      0x9fc01660        0x8
 *(.vector_35)
 .vector_35     0x9fc01660        0x8 d:/program files (x86)/microchip/xc32/v1.20/bin/../lib/gcc/pic32mx/4.5.2/../../../../pic32mx/lib/size\libpic32.a(vector35.o)
                0x9fc01660                __vector_dispatch_35
                0x00000001                ASSERT (((_vector_spacing == 0x0) || (SIZEOF (.vector_35) <= (_vector_spacing << 0x5))), function at exception vector 35 too large)

.vector_36      0x9fc01680        0x8
 *(.vector_36)
 .vector_36     0x9fc01680        0x8 d:/program files (x86)/microchip/xc32/v1.20/bin/../lib/gcc/pic32mx/4.5.2/../../../../pic32mx/lib/size\libpic32.a(vector36.o)
                0x9fc01680                __vector_dispatch_36
                0x00000001                ASSERT (((_vector_spacing == 0x0) || (SIZEOF (.vector_36) <= (_vector_spacing << 0x5))), function at exception vector 36 too large)

.vector_37      0x9fc016a0        0x8
 *(.vector_37)
 .vector_37     0x9fc016a0        0x8 d:/program files (x86)/microchip/xc32/v1.20/bin/../lib/gcc/pic32mx/4.5.2/../../../../pic32mx/lib/size\libpic32.a(vector37.o)
                0x9fc016a0                __vector_dispatch_37
                0x00000001                ASSERT (((_vector_spacing == 0x0) || (SIZEOF (.vector_37) <= (_vector_spacing << 0x5))), function at exception vector 37 too large)

.vector_38      0x9fc016c0        0x8
 *(.vector_38)
 .vector_38     0x9fc016c0        0x8 d:/program files (x86)/microchip/xc32/v1.20/bin/../lib/gcc/pic32mx/4.5.2/../../../../pic32mx/lib/size\libpic32.a(vector38.o)
                0x9fc016c0                __vector_dispatch_38
                0x00000001                ASSERT (((_vector_spacing == 0x0) || (SIZEOF (.vector_38) <= (_vector_spacing << 0x5))), function at exception vector 38 too large)

.vector_39      0x9fc016e0        0x8
 *(.vector_39)
 .vector_39     0x9fc016e0        0x8 d:/program files (x86)/microchip/xc32/v1.20/bin/../lib/gcc/pic32mx/4.5.2/../../../../pic32mx/lib/size\libpic32.a(vector39.o)
                0x9fc016e0                __vector_dispatch_39
                0x00000001                ASSERT (((_vector_spacing == 0x0) || (SIZEOF (.vector_39) <= (_vector_spacing << 0x5))), function at exception vector 39 too large)

.vector_40      0x9fc01700        0x8
 *(.vector_40)
 .vector_40     0x9fc01700        0x8 d:/program files (x86)/microchip/xc32/v1.20/bin/../lib/gcc/pic32mx/4.5.2/../../../../pic32mx/lib/size\libpic32.a(vector40.o)
                0x9fc01700                __vector_dispatch_40
                0x00000001                ASSERT (((_vector_spacing == 0x0) || (SIZEOF (.vector_40) <= (_vector_spacing << 0x5))), function at exception vector 40 too large)

.vector_41      0x9fc01720        0x8
 *(.vector_41)
 .vector_41     0x9fc01720        0x8 d:/program files (x86)/microchip/xc32/v1.20/bin/../lib/gcc/pic32mx/4.5.2/../../../../pic32mx/lib/size\libpic32.a(vector41.o)
                0x9fc01720                __vector_dispatch_41
                0x00000001                ASSERT (((_vector_spacing == 0x0) || (SIZEOF (.vector_41) <= (_vector_spacing << 0x5))), function at exception vector 41 too large)

.vector_42      0x9fc01740        0x8
 *(.vector_42)
 .vector_42     0x9fc01740        0x8 d:/program files (x86)/microchip/xc32/v1.20/bin/../lib/gcc/pic32mx/4.5.2/../../../../pic32mx/lib/size\libpic32.a(vector42.o)
                0x9fc01740                __vector_dispatch_42
                0x00000001                ASSERT (((_vector_spacing == 0x0) || (SIZEOF (.vector_42) <= (_vector_spacing << 0x5))), function at exception vector 42 too large)

.vector_43      0x9fc01760        0x8
 *(.vector_43)
 .vector_43     0x9fc01760        0x8 d:/program files (x86)/microchip/xc32/v1.20/bin/../lib/gcc/pic32mx/4.5.2/../../../../pic32mx/lib/size\libpic32.a(vector43.o)
                0x9fc01760                __vector_dispatch_43
                0x00000001                ASSERT (((_vector_spacing == 0x0) || (SIZEOF (.vector_43) <= (_vector_spacing << 0x5))), function at exception vector 43 too large)

.vector_44      0x9fc01780        0x8
 *(.vector_44)
 .vector_44     0x9fc01780        0x8 d:/program files (x86)/microchip/xc32/v1.20/bin/../lib/gcc/pic32mx/4.5.2/../../../../pic32mx/lib/size\libpic32.a(vector44.o)
                0x9fc01780                __vector_dispatch_44
                0x00000001                ASSERT (((_vector_spacing == 0x0) || (SIZEOF (.vector_44) <= (_vector_spacing << 0x5))), function at exception vector 44 too large)

.vector_45      0x9fc017a0        0x8
 *(.vector_45)
 .vector_45     0x9fc017a0        0x8 d:/program files (x86)/microchip/xc32/v1.20/bin/../lib/gcc/pic32mx/4.5.2/../../../../pic32mx/lib/size\libpic32.a(vector45.o)
                0x9fc017a0                __vector_dispatch_45
                0x00000001                ASSERT (((_vector_spacing == 0x0) || (SIZEOF (.vector_45) <= (_vector_spacing << 0x5))), function at exception vector 45 too large)

.vector_46      0x9fc017c0        0x8
 *(.vector_46)
 .vector_46     0x9fc017c0        0x8 d:/program files (x86)/microchip/xc32/v1.20/bin/../lib/gcc/pic32mx/4.5.2/../../../../pic32mx/lib/size\libpic32.a(vector46.o)
                0x9fc017c0                __vector_dispatch_46
                0x00000001                ASSERT (((_vector_spacing == 0x0) || (SIZEOF (.vector_46) <= (_vector_spacing << 0x5))), function at exception vector 46 too large)

.vector_47      0x9fc017e0        0x8
 *(.vector_47)
 .vector_47     0x9fc017e0        0x8 d:/program files (x86)/microchip/xc32/v1.20/bin/../lib/gcc/pic32mx/4.5.2/../../../../pic32mx/lib/size\libpic32.a(vector47.o)
                0x9fc017e0                __vector_dispatch_47
                0x00000001                ASSERT (((_vector_spacing == 0x0) || (SIZEOF (.vector_47) <= (_vector_spacing << 0x5))), function at exception vector 47 too large)

.vector_48      0x9fc01800        0x8
 *(.vector_48)
 .vector_48     0x9fc01800        0x8 d:/program files (x86)/microchip/xc32/v1.20/bin/../lib/gcc/pic32mx/4.5.2/../../../../pic32mx/lib/size\libpic32.a(vector48.o)
                0x9fc01800                __vector_dispatch_48
                0x00000001                ASSERT (((_vector_spacing == 0x0) || (SIZEOF (.vector_48) <= (_vector_spacing << 0x5))), function at exception vector 48 too large)

.vector_49      0x9fc01820        0x8
 *(.vector_49)
 .vector_49     0x9fc01820        0x8 d:/program files (x86)/microchip/xc32/v1.20/bin/../lib/gcc/pic32mx/4.5.2/../../../../pic32mx/lib/size\libpic32.a(vector49.o)
                0x9fc01820                __vector_dispatch_49
                0x00000001                ASSERT (((_vector_spacing == 0x0) || (SIZEOF (.vector_49) <= (_vector_spacing << 0x5))), function at exception vector 49 too large)

.vector_50      0x9fc01840        0x8
 *(.vector_50)
 .vector_50     0x9fc01840        0x8 d:/program files (x86)/microchip/xc32/v1.20/bin/../lib/gcc/pic32mx/4.5.2/../../../../pic32mx/lib/size\libpic32.a(vector50.o)
                0x9fc01840                __vector_dispatch_50
                0x00000001                ASSERT (((_vector_spacing == 0x0) || (SIZEOF (.vector_50) <= (_vector_spacing << 0x5))), function at exception vector 50 too large)

.vector_51      0x9fc01860        0x8
 *(.vector_51)
 .vector_51     0x9fc01860        0x8 d:/program files (x86)/microchip/xc32/v1.20/bin/../lib/gcc/pic32mx/4.5.2/../../../../pic32mx/lib/size\libpic32.a(vector51.o)
                0x9fc01860                __vector_dispatch_51
                0x00000001                ASSERT (((_vector_spacing == 0x0) || (SIZEOF (.vector_51) <= (_vector_spacing << 0x5))), function at exception vector 51 too large)

.vector_52      0x9fc01880        0x8
 *(.vector_52)
 .vector_52     0x9fc01880        0x8 d:/program files (x86)/microchip/xc32/v1.20/bin/../lib/gcc/pic32mx/4.5.2/../../../../pic32mx/lib/size\libpic32.a(vector52.o)
                0x9fc01880                __vector_dispatch_52
                0x00000001                ASSERT (((_vector_spacing == 0x0) || (SIZEOF (.vector_52) <= (_vector_spacing << 0x5))), function at exception vector 52 too large)

.vector_53      0x9fc018a0        0x8
 *(.vector_53)
 .vector_53     0x9fc018a0        0x8 d:/program files (x86)/microchip/xc32/v1.20/bin/../lib/gcc/pic32mx/4.5.2/../../../../pic32mx/lib/size\libpic32.a(vector53.o)
                0x9fc018a0                __vector_dispatch_53
                0x00000001                ASSERT (((_vector_spacing == 0x0) || (SIZEOF (.vector_53) <= (_vector_spacing << 0x5))), function at exception vector 53 too large)

.vector_54      0x9fc018c0        0x8
 *(.vector_54)
 .vector_54     0x9fc018c0        0x8 d:/program files (x86)/microchip/xc32/v1.20/bin/../lib/gcc/pic32mx/4.5.2/../../../../pic32mx/lib/size\libpic32.a(vector54.o)
                0x9fc018c0                __vector_dispatch_54
                0x00000001                ASSERT (((_vector_spacing == 0x0) || (SIZEOF (.vector_54) <= (_vector_spacing << 0x5))), function at exception vector 54 too large)

.vector_55      0x9fc018e0        0x8
 *(.vector_55)
 .vector_55     0x9fc018e0        0x8 d:/program files (x86)/microchip/xc32/v1.20/bin/../lib/gcc/pic32mx/4.5.2/../../../../pic32mx/lib/size\libpic32.a(vector55.o)
                0x9fc018e0                __vector_dispatch_55
                0x00000001                ASSERT (((_vector_spacing == 0x0) || (SIZEOF (.vector_55) <= (_vector_spacing << 0x5))), function at exception vector 55 too large)

.vector_56      0x9fc01900        0x8
 *(.vector_56)
 .vector_56     0x9fc01900        0x8 d:/program files (x86)/microchip/xc32/v1.20/bin/../lib/gcc/pic32mx/4.5.2/../../../../pic32mx/lib/size\libpic32.a(vector56.o)
                0x9fc01900                __vector_dispatch_56
                0x00000001                ASSERT (((_vector_spacing == 0x0) || (SIZEOF (.vector_56) <= (_vector_spacing << 0x5))), function at exception vector 56 too large)

.vector_57      0x9fc01920        0x8
 *(.vector_57)
 .vector_57     0x9fc01920        0x8 d:/program files (x86)/microchip/xc32/v1.20/bin/../lib/gcc/pic32mx/4.5.2/../../../../pic32mx/lib/size\libpic32.a(vector57.o)
                0x9fc01920                __vector_dispatch_57
                0x00000001                ASSERT (((_vector_spacing == 0x0) || (SIZEOF (.vector_57) <= (_vector_spacing << 0x5))), function at exception vector 57 too large)

.vector_58      0x9fc01940        0x8
 *(.vector_58)
 .vector_58     0x9fc01940        0x8 d:/program files (x86)/microchip/xc32/v1.20/bin/../lib/gcc/pic32mx/4.5.2/../../../../pic32mx/lib/size\libpic32.a(vector58.o)
                0x9fc01940                __vector_dispatch_58
                0x00000001                ASSERT (((_vector_spacing == 0x0) || (SIZEOF (.vector_58) <= (_vector_spacing << 0x5))), function at exception vector 58 too large)

.vector_59      0x9fc01960        0x8
 *(.vector_59)
 .vector_59     0x9fc01960        0x8 d:/program files (x86)/microchip/xc32/v1.20/bin/../lib/gcc/pic32mx/4.5.2/../../../../pic32mx/lib/size\libpic32.a(vector59.o)
                0x9fc01960                __vector_dispatch_59
                0x00000001                ASSERT (((_vector_spacing == 0x0) || (SIZEOF (.vector_59) <= (_vector_spacing << 0x5))), function at exception vector 59 too large)

.vector_60      0x9fc01980        0x8
 *(.vector_60)
 .vector_60     0x9fc01980        0x8 d:/program files (x86)/microchip/xc32/v1.20/bin/../lib/gcc/pic32mx/4.5.2/../../../../pic32mx/lib/size\libpic32.a(vector60.o)
                0x9fc01980                __vector_dispatch_60
                0x00000001                ASSERT (((_vector_spacing == 0x0) || (SIZEOF (.vector_60) <= (_vector_spacing << 0x5))), function at exception vector 60 too large)

.vector_61      0x9fc019a0        0x8
 *(.vector_61)
 .vector_61     0x9fc019a0        0x8 d:/program files (x86)/microchip/xc32/v1.20/bin/../lib/gcc/pic32mx/4.5.2/../../../../pic32mx/lib/size\libpic32.a(vector61.o)
                0x9fc019a0                __vector_dispatch_61
                0x00000001                ASSERT (((_vector_spacing == 0x0) || (SIZEOF (.vector_61) <= (_vector_spacing << 0x5))), function at exception vector 61 too large)

.vector_62      0x9fc019c0        0x8
 *(.vector_62)
 .vector_62     0x9fc019c0        0x8 d:/program files (x86)/microchip/xc32/v1.20/bin/../lib/gcc/pic32mx/4.5.2/../../../../pic32mx/lib/size\libpic32.a(vector62.o)
                0x9fc019c0                __vector_dispatch_62
                0x00000001                ASSERT (((_vector_spacing == 0x0) || (SIZEOF (.vector_62) <= (_vector_spacing << 0x5))), function at exception vector 62 too large)

.vector_63      0x9fc019e0        0x8
 *(.vector_63)
 .vector_63     0x9fc019e0        0x8 d:/program files (x86)/microchip/xc32/v1.20/bin/../lib/gcc/pic32mx/4.5.2/../../../../pic32mx/lib/size\libpic32.a(vector63.o)
                0x9fc019e0                __vector_dispatch_63
                0x00000001                ASSERT (((_vector_spacing == 0x0) || (SIZEOF (.vector_63) <= (_vector_spacing << 0x5))), function at exception vector 63 too large)

.startup
 *(.startup)

.text           0x9d000000        0x0
 *(.stub .gnu.linkonce.t.*)
 *(.text.*personality*)
 *(.mips16.fn.*)
 *(.mips16.call.*)
 *(.gnu.warning)
                0x9d000000                . = ALIGN (0x4)

.init           0x9d000000        0x0
 *crti.o(.init)
 *crtbegin.o(.init)
 *(EXCLUDE_FILE(*crtn.o *crtend?.o *crtend.o) .init)
 *crtend.o(.init)
 *crtn.o(.init)
                0x9d000000                . = ALIGN (0x4)

.fini           0x9d000000        0x0
 *(.fini)
                0x9d000000                . = ALIGN (0x4)

.preinit_array  0x9d000000        0x0
                0x9d000000                PROVIDE (__preinit_array_start, .)
 *(.preinit_array)
                0x9d000000                PROVIDE (__preinit_array_end, .)
                0x9d000000                . = ALIGN (0x4)

.init_array     0x9d000000        0x0
                0x9d000000                PROVIDE (__init_array_start, .)
 *(SORT(.init_array.*))
 *(.init_array)
                0x9d000000                PROVIDE (__init_array_end, .)
                0x9d000000                . = ALIGN (0x4)

.fini_array     0x9d000000        0x0
                0x9d000000                PROVIDE (__fini_array_start, .)
 *(SORT(.fini_array.*))
 *(.fini_array)
                0x9d000000                PROVIDE (__fini_array_end, .)
                0x9d000000                . = ALIGN (0x4)

.ctors          0x9d000000        0x0
 *crtbegin.o(.ctors)
 *crtbegin?.o(.ctors)
 *(EXCLUDE_FILE(*crtend?.o *crtend.o) .ctors)
 *(SORT(.ctors.*))
 *(.ctors)
                0x9d000000                . = ALIGN (0x4)

.dtors          0x9d000000        0x0
 *crtbegin.o(.dtors)
 *crtbegin?.o(.dtors)
 *(EXCLUDE_FILE(*crtend?.o *crtend.o) .dtors)
 *(SORT(.dtors.*))
 *(.dtors)
                0x9d000000                . = ALIGN (0x4)

.rodata         0x9d000000        0x0
 *(.gnu.linkonce.r.*)
 *(.rodata1)
                0x9d000000                . = ALIGN (0x4)

.sdata2         0x9fc00490        0x0
 *(.sdata2 .sdata2.* .gnu.linkonce.s2.*)
                0x9fc00490                . = ALIGN (0x4)

.sbss2          0x9fc00490        0x0
 *(.sbss2 .sbss2.* .gnu.linkonce.sb2.*)
                0x9fc00490                . = ALIGN (0x4)

.eh_frame_hdr
 *(.eh_frame_hdr)
                0x9fc00490                . = ALIGN (0x4)

.eh_frame
 *(.eh_frame)
                0x9fc00490                . = ALIGN (0x4)

.gcc_except_table
 *(.gcc_except_table .gcc_except_table.*)
                0x9fc00490                . = ALIGN (0x4)

.dbg_data       0xa0000000        0x0
                0xa0000000                . = (. + DEFINED (_DEBUGGER)?0x200:0x0)

.jcr            0xa0000000        0x0
 *(.jcr)
                0xa0000000                . = ALIGN (0x4)

.eh_frame       0xa0000000       0x30
 *(.eh_frame)
 .eh_frame      0xa0000000       0x20 d:/program files (x86)/microchip/xc32/v1.20/bin/../lib/gcc/pic32mx/4.5.2/size\libgcc.a(_udivdi3.o)
 .eh_frame      0xa0000020       0x10 d:/program files (x86)/microchip/xc32/v1.20/bin/../lib/gcc/pic32mx/4.5.2/size\libgcc.a(_umoddi3.o)
                0xa0000030                . = ALIGN (0x4)

.gcc_except_table
 *(.gcc_except_table .gcc_except_table.*)
                0xa0000030                . = ALIGN (0x4)

.persist        0xa0000030        0x8
                0xa0000030                _persist_begin = .
 *(.persist .persist.*)
 *(.pbss .pbss.*)
 .pbss          0xa0000030        0x4 Obj-XC32-EX16_ENC28\DNS.o
 .pbss          0xa0000034        0x2 Obj-XC32-EX16_ENC28\TCP.o
 .pbss          0xa0000036        0x2 Obj-XC32-EX16_ENC28\UDP.o
                0xa0000038                . = ALIGN (0x4)
                0xa0000038                _persist_end = .

.data           0xa0000038        0x0
 *(.gnu.linkonce.d.*)
 *(.data1)
                0xa0000038                . = ALIGN (0x4)
                0xa0000038                . = .
                0xa0008030                _gp = (ALIGN (0x10) + 0x7ff0)

.got            0xa0000038        0x0
 *(.got.plt)
 *(.got)
                0xa0000038                . = ALIGN (0x4)

.sdata          0xa0000038       0x24
                0xa0000038                _sdata_begin = .
 *(.sdata .sdata.* .gnu.linkonce.s.*)
 .sdata         0xa0000038        0xc Obj-XC32-EX16_ENC28\DHCPs.o
                0xa000003c                bDHCPServerEnabled
 .sdata         0xa0000044        0x8 Obj-XC32-EX16_ENC28\DNS.o
 .sdata         0xa000004c        0x4 Obj-XC32-EX16_ENC28\Helpers.o
 .sdata         0xa0000050        0x1 Obj-XC32-EX16_ENC28\Reboot.o
 .sdata         0xa0000051        0x1 Obj-XC32-EX16_ENC28\SNTP.o
 .sdata         0xa0000052        0x2 Obj-XC32-EX16_ENC28\TCP.o
 .sdata         0xa0000054        0x2 Obj-XC32-EX16_ENC28\TCPPerformanceTest.o
 .sdata         0xa0000056        0x2 Obj-XC32-EX16_ENC28\UDP.o
 .sdata         0xa0000058        0x4 Obj-XC32-EX16_ENC28\MainDemo.o
                0xa0000058                __C30_UART
                0xa000005c                . = ALIGN (0x4)
                0xa000005c                _sdata_end = .

.lit8
 *(.lit8)

.lit4
 *(.lit4)
                0xa000005c                . = ALIGN (0x4)
                0xa000005c                _data_end = .
                0xa000005c                _bss_begin = .

.sbss           0xa000005c       0xe8
                0xa000005c                _sbss_begin = .
 *(.dynsbss)
 *(.sbss .sbss.* .gnu.linkonce.sb.*)
 .sbss          0xa000005c        0x8 Obj-XC32-EX16_ENC28\Announce.o
 .sbss          0xa0000064        0x4 Obj-XC32-EX16_ENC28\ARP.o
 .sbss          0xa0000068        0x4 Obj-XC32-EX16_ENC28\DHCP.o
                0xa0000068                DHCPClientInitializedOnce
 .sbss          0xa000006c        0xc Obj-XC32-EX16_ENC28\DHCPs.o
 .sbss          0xa0000078       0x14 Obj-XC32-EX16_ENC28\DNS.o
 .sbss          0xa000008c       0x10 Obj-XC32-EX16_ENC28\ENC28J60.o
 .sbss          0xa000009c       0x10 Obj-XC32-EX16_ENC28\ICMP.o
 .sbss          0xa00000ac        0x4 Obj-XC32-EX16_ENC28\IP.o
 .sbss          0xa00000b0        0x8 Obj-XC32-EX16_ENC28\MPFS2.o
 .sbss          0xa00000b8        0x8 Obj-XC32-EX16_ENC28\NBNS.o
 .sbss          0xa00000c0       0x10 Obj-XC32-EX16_ENC28\SNTP.o
 .sbss          0xa00000d0        0x8 Obj-XC32-EX16_ENC28\SPIEEPROM.o
 .sbss          0xa00000d8        0xc Obj-XC32-EX16_ENC28\StackTsk.o
 .sbss          0xa00000e4       0x14 Obj-XC32-EX16_ENC28\TCPPerformanceTest.o
 .sbss          0xa00000f8       0x10 Obj-XC32-EX16_ENC28\Tick.o
 .sbss          0xa0000108        0x8 Obj-XC32-EX16_ENC28\UDP.o
 .sbss          0xa0000110        0x8 Obj-XC32-EX16_ENC28\CustomHTTPApp.o
 .sbss          0xa0000118        0xc Obj-XC32-EX16_ENC28\MainDemo.o
 .sbss          0xa0000124        0x8 Obj-XC32-EX16_ENC28\PingDemo.o
 *(.scommon)
 .scommon       0xa000012c        0x1 Obj-XC32-EX16_ENC28\HTTP2.o
                0xa000012c                curHTTPID
 *fill*         0xa000012d        0x3 00
 .scommon       0xa0000130        0x4 Obj-XC32-EX16_ENC28\MPFS2.o
                0xa0000130                lastRead
 .scommon       0xa0000134        0x6 Obj-XC32-EX16_ENC28\UDP.o
                0xa0000134                activeUDPSocket
                0xa0000136                UDPTxCount
                0xa0000138                UDPRxCount
 *fill*         0xa000013a        0x2 00
 .scommon       0xa000013c        0x8 Obj-XC32-EX16_ENC28\MainDemo.o
                0xa000013c                AN0String
                0xa0000144                _sbss_end = .
                0xa0000144                . = ALIGN (0x4)

.bss            0xa0000144      0x258
 *(.dynbss)
 *(COMMON)
 COMMON         0xa0000144       0x78 Obj-XC32-EX16_ENC28\DHCPs.o
                0xa0000144                DhcpIpPool
 COMMON         0xa00001bc       0x9c Obj-XC32-EX16_ENC28\HTTP2.o
                0xa00001bc                curHTTP
                0xa0000248                httpStubs
 COMMON         0xa0000258       0x21 Obj-XC32-EX16_ENC28\LCDBlocking.o
                0xa0000258                LCDText
 *fill*         0xa0000279        0x3 00
 COMMON         0xa000027c        0xa Obj-XC32-EX16_ENC28\StackTsk.o
                0xa000027c                remoteNode
 *fill*         0xa0000286        0x2 00
 COMMON         0xa0000288       0xe0 Obj-XC32-EX16_ENC28\UDP.o
                0xa0000288                UDPSocketInfo
 COMMON         0xa0000368       0x33 Obj-XC32-EX16_ENC28\MainDemo.o
                0xa0000368                AppConfig
                0xa000039c                . = ALIGN ((. != 0x0)?0x4:0x1)
 *fill*         0xa000039b        0x1 00
                0xa000039c                . = ALIGN (0x4)
                0xa000039c                _end = .
                0xa000039c                _bss_end = .
                0x00020000                _bmxdudba_address = 0x20000
                0x00020000                _bmxdupba_address = 0x20000

/DISCARD/
 *(.pdr)
 *(.rel.dyn)
 *(.note.GNU-stack)
 *(.note.GNU-stack)
 *(.gnu_debuglink)
 *(.gnu.lto_*)
 *(.discard)

.gptab.sdata
 *(.gptab.data)
 *(.gptab.sdata)

.gptab.sbss
 *(.gptab.bss)
 *(.gptab.sbss)

.mdebug.abi32   0xa000039c        0x0
 *(.mdebug.abi32)
 .mdebug.abi32  0xa000039c        0x0 Obj-XC32-EX16_ENC28\Announce.o
 .mdebug.abi32  0xa000039c        0x0 Obj-XC32-EX16_ENC28\ARCFOUR.o
 .mdebug.abi32  0xa000039c        0x0 Obj-XC32-EX16_ENC28\ARP.o
 .mdebug.abi32  0xa000039c        0x0 Obj-XC32-EX16_ENC28\AutoIP.o
 .mdebug.abi32  0xa000039c        0x0 Obj-XC32-EX16_ENC28\BerkeleyAPI.o
 .mdebug.abi32  0xa000039c        0x0 Obj-XC32-EX16_ENC28\BigInt.o
 .mdebug.abi32  0xa000039c        0x0 Obj-XC32-EX16_ENC28\Delay.o
 .mdebug.abi32  0xa000039c        0x0 Obj-XC32-EX16_ENC28\DHCP.o
 .mdebug.abi32  0xa000039c        0x0 Obj-XC32-EX16_ENC28\DHCPs.o
 .mdebug.abi32  0xa000039c        0x0 Obj-XC32-EX16_ENC28\DNS.o
 .mdebug.abi32  0xa000039c        0x0 Obj-XC32-EX16_ENC28\DNSs.o
 .mdebug.abi32  0xa000039c        0x0 Obj-XC32-EX16_ENC28\DynDNS.o
 .mdebug.abi32  0xa000039c        0x0 Obj-XC32-EX16_ENC28\ENC28J60.o
 .mdebug.abi32  0xa000039c        0x0 Obj-XC32-EX16_ENC28\ENCX24J600.o
 .mdebug.abi32  0xa000039c        0x0 Obj-XC32-EX16_ENC28\FileSystem.o
 .mdebug.abi32  0xa000039c        0x0 Obj-XC32-EX16_ENC28\FTP.o
 .mdebug.abi32  0xa000039c        0x0 Obj-XC32-EX16_ENC28\Hashes.o
 .mdebug.abi32  0xa000039c        0x0 Obj-XC32-EX16_ENC28\Helpers.o
 .mdebug.abi32  0xa000039c        0x0 Obj-XC32-EX16_ENC28\HTTP2.o
 .mdebug.abi32  0xa000039c        0x0 Obj-XC32-EX16_ENC28\ICMP.o
 .mdebug.abi32  0xa000039c        0x0 Obj-XC32-EX16_ENC28\IP.o
 .mdebug.abi32  0xa000039c        0x0 Obj-XC32-EX16_ENC28\LCDBlocking.o
 .mdebug.abi32  0xa000039c        0x0 Obj-XC32-EX16_ENC28\MPFS2.o
 .mdebug.abi32  0xa000039c        0x0 Obj-XC32-EX16_ENC28\NBNS.o
 .mdebug.abi32  0xa000039c        0x0 Obj-XC32-EX16_ENC28\Random.o
 .mdebug.abi32  0xa000039c        0x0 Obj-XC32-EX16_ENC28\Reboot.o
 .mdebug.abi32  0xa000039c        0x0 Obj-XC32-EX16_ENC28\RSA.o
 .mdebug.abi32  0xa000039c        0x0 Obj-XC32-EX16_ENC28\SMTP.o
 .mdebug.abi32  0xa000039c        0x0 Obj-XC32-EX16_ENC28\SNMP.o
 .mdebug.abi32  0xa000039c        0x0 Obj-XC32-EX16_ENC28\SNMPv3.o
 .mdebug.abi32  0xa000039c        0x0 Obj-XC32-EX16_ENC28\SNMPv3USM.o
 .mdebug.abi32  0xa000039c        0x0 Obj-XC32-EX16_ENC28\SNTP.o
 .mdebug.abi32  0xa000039c        0x0 Obj-XC32-EX16_ENC28\SPIEEPROM.o
 .mdebug.abi32  0xa000039c        0x0 Obj-XC32-EX16_ENC28\SPIFlash.o
 .mdebug.abi32  0xa000039c        0x0 Obj-XC32-EX16_ENC28\SPIRAM.o
 .mdebug.abi32  0xa000039c        0x0 Obj-XC32-EX16_ENC28\SSL.o
 .mdebug.abi32  0xa000039c        0x0 Obj-XC32-EX16_ENC28\StackTsk.o
 .mdebug.abi32  0xa000039c        0x0 Obj-XC32-EX16_ENC28\TCP.o
 .mdebug.abi32  0xa000039c        0x0 Obj-XC32-EX16_ENC28\TCPPerformanceTest.o
 .mdebug.abi32  0xa000039c        0x0 Obj-XC32-EX16_ENC28\Telnet.o
 .mdebug.abi32  0xa000039c        0x0 Obj-XC32-EX16_ENC28\TFTPc.o
 .mdebug.abi32  0xa000039c        0x0 Obj-XC32-EX16_ENC28\Tick.o
 .mdebug.abi32  0xa000039c        0x0 Obj-XC32-EX16_ENC28\UART2TCPBridge.o
 .mdebug.abi32  0xa000039c        0x0 Obj-XC32-EX16_ENC28\UART.o
 .mdebug.abi32  0xa000039c        0x0 Obj-XC32-EX16_ENC28\UDP.o
 .mdebug.abi32  0xa000039c        0x0 Obj-XC32-EX16_ENC28\UDPPerformanceTest.o
 .mdebug.abi32  0xa000039c        0x0 Obj-XC32-EX16_ENC28\ZeroconfHelper.o
 .mdebug.abi32  0xa000039c        0x0 Obj-XC32-EX16_ENC28\ZeroconfLinkLocal.o
 .mdebug.abi32  0xa000039c        0x0 Obj-XC32-EX16_ENC28\ZeroconfMulticastDNS.o
 .mdebug.abi32  0xa000039c        0x0 Obj-XC32-EX16_ENC28\CustomHTTPApp.o
 .mdebug.abi32  0xa000039c        0x0 Obj-XC32-EX16_ENC28\CustomSNMPApp.o
 .mdebug.abi32  0xa000039c        0x0 Obj-XC32-EX16_ENC28\CustomSSLCert.o
 .mdebug.abi32  0xa000039c        0x0 Obj-XC32-EX16_ENC28\MainDemo.o
 .mdebug.abi32  0xa000039c        0x0 Obj-XC32-EX16_ENC28\BerkeleyTCPClientDemo.o
 .mdebug.abi32  0xa000039c        0x0 Obj-XC32-EX16_ENC28\BerkeleyTCPServerDemo.o
 .mdebug.abi32  0xa000039c        0x0 Obj-XC32-EX16_ENC28\BerkeleyUDPClientDemo.o
 .mdebug.abi32  0xa000039c        0x0 Obj-XC32-EX16_ENC28\GenericTCPClient.o
 .mdebug.abi32  0xa000039c        0x0 Obj-XC32-EX16_ENC28\GenericTCPServer.o
 .mdebug.abi32  0xa000039c        0x0 Obj-XC32-EX16_ENC28\PingDemo.o
 .mdebug.abi32  0xa000039c        0x0 Obj-XC32-EX16_ENC28\SMTPDemo.o
 .mdebug.abi32  0xa000039c        0x0 Obj-XC32-EX16_ENC28\UARTConfig.o
 .mdebug.abi32  0xa000039c        0x0 Obj-XC32-EX16_ENC28\MPFSImg2.o
 .mdebug.abi32  0xa000039c        0x0 d:/program files (x86)/microchip/xc32/v1.20/bin/../lib/gcc/pic32mx/4.5.2/../../../../pic32mx/lib/size\libmchp_peripheral_32MX795F512L.a(soft_reset_lib.o)
 .mdebug.abi32  0xa000039c        0x0 d:/program files (x86)/microchip/xc32/v1.20/bin/../lib/gcc/pic32mx/4.5.2/../../../../pic32mx/lib/size\libmchp_peripheral_32MX795F512L.a(pcache.o)
 .mdebug.abi32  0xa000039c        0x0 d:/program files (x86)/microchip/xc32/v1.20/bin/../lib/gcc/pic32mx/4.5.2/../../../../pic32mx/lib/size\libmchp_peripheral_32MX795F512L.a(int_disable_interrupts_lib.o)
 .mdebug.abi32  0xa000039c        0x0 d:/program files (x86)/microchip/xc32/v1.20/bin/../lib/gcc/pic32mx/4.5.2/../../../../pic32mx/lib/size\libmchp_peripheral_32MX795F512L.a(int_restore_interrupts_lib.o)
 .mdebug.abi32  0xa000039c        0x0 d:/program files (x86)/microchip/xc32/v1.20/bin/../lib/gcc/pic32mx/4.5.2/../../../../pic32mx/lib/size\libmchp_peripheral_32MX795F512L.a(int_enable_mv_int_lib.o)
 .mdebug.abi32  0xa000039c        0x0 d:/program files (x86)/microchip/xc32/v1.20/bin/../lib/gcc/pic32mx/4.5.2/../../../../pic32mx/lib/size\libmchp_peripheral_32MX795F512L.a(puts_uartx_lib_legacy.o)
 .mdebug.abi32  0xa000039c        0x0 d:/program files (x86)/microchip/xc32/v1.20/bin/../lib/gcc/pic32mx/4.5.2/../../../../pic32mx/lib/size\libmchp_peripheral_32MX795F512L.a(int_enable_interrupts_lib.o)
 .mdebug.abi32  0xa000039c        0x0 d:/program files (x86)/microchip/xc32/v1.20/bin/../lib/gcc/pic32mx/4.5.2/size\libgcc.a(_udivdi3.o)
 .mdebug.abi32  0xa000039c        0x0 d:/program files (x86)/microchip/xc32/v1.20/bin/../lib/gcc/pic32mx/4.5.2/size\libgcc.a(_umoddi3.o)
 .mdebug.abi32  0xa000039c        0x0 d:/program files (x86)/microchip/xc32/v1.20/bin/../lib/gcc/pic32mx/4.5.2/../../../../pic32mx/lib/size\libpic32.a(default-bootstrap-exception-handler.o)
 .mdebug.abi32  0xa000039c        0x0 d:/program files (x86)/microchip/xc32/v1.20/bin/../lib/gcc/pic32mx/4.5.2/../../../../pic32mx/lib/size\libpic32.a(default-on-reset.o)
 .mdebug.abi32  0xa000039c        0x0 d:/program files (x86)/microchip/xc32/v1.20/bin/../lib/gcc/pic32mx/4.5.2/../../../../pic32mx/lib/size\libpic32.a(default-on-bootstrap.o)
 .mdebug.abi32  0xa000039c        0x0 d:/program files (x86)/microchip/xc32/v1.20/bin/../lib/gcc/pic32mx/4.5.2/../../../../pic32mx/lib/size\libpic32.a(defaultinterrupt.o)
 .mdebug.abi32  0xa000039c        0x0 d:/program files (x86)/microchip/xc32/v1.20/bin/../lib/gcc/pic32mx/4.5.2/../../../../pic32mx/lib/size\libc.a(atoi.o)
 .mdebug.abi32  0xa000039c        0x0 d:/program files (x86)/microchip/xc32/v1.20/bin/../lib/gcc/pic32mx/4.5.2/../../../../pic32mx/lib/size\libc.a(atol.o)
 .mdebug.abi32  0xa000039c        0x0 d:/program files (x86)/microchip/xc32/v1.20/bin/../lib/gcc/pic32mx/4.5.2/../../../../pic32mx/lib/size\libc.a(ctype.o)
 .mdebug.abi32  0xa000039c        0x0 d:/program files (x86)/microchip/xc32/v1.20/bin/../lib/gcc/pic32mx/4.5.2/../../../../pic32mx/lib/size\libc.a(ltoa.o)
 .mdebug.abi32  0xa000039c        0x0 d:/program files (x86)/microchip/xc32/v1.20/bin/../lib/gcc/pic32mx/4.5.2/../../../../pic32mx/lib/size\libc.a(strncpy.o)

.mdebug.abiN32
 *(.mdebug.abiN32)

.mdebug.abi64
 *(.mdebug.abi64)

.mdebug.abiO64
 *(.mdebug.abiO64)

.mdebug.eabi32
 *(.mdebug.eabi32)

.mdebug.eabi64
 *(.mdebug.eabi64)

.gcc_compiled_long32
 *(.gcc_compiled_long32)

.gcc_compiled_long64
 *(.gcc_compiled_long64)

.stab
 *(.stab)

.stabstr
 *(.stabstr)

.stab.excl
 *(.stab.excl)

.stab.exclstr
 *(.stab.exclstr)

.stab.index
 *(.stab.index)

.stab.indexstr
 *(.stab.indexstr)

.comment        0x00000000      0x141
 *(.comment)
 .comment       0x00000000       0x3c Obj-XC32-EX16_ENC28\Announce.o
                                 0x3d (size before relaxing)
 .comment       0x00000000       0x3d Obj-XC32-EX16_ENC28\ARCFOUR.o
 .comment       0x00000000       0x3d Obj-XC32-EX16_ENC28\ARP.o
 .comment       0x00000000       0x3d Obj-XC32-EX16_ENC28\AutoIP.o
 .comment       0x00000000       0x3d Obj-XC32-EX16_ENC28\BerkeleyAPI.o
 .comment       0x00000000       0x3d Obj-XC32-EX16_ENC28\BigInt.o
 .comment       0x00000000       0x3d Obj-XC32-EX16_ENC28\Delay.o
 .comment       0x00000000       0x3d Obj-XC32-EX16_ENC28\DHCP.o
 .comment       0x00000000       0x3d Obj-XC32-EX16_ENC28\DHCPs.o
 .comment       0x00000000       0x3d Obj-XC32-EX16_ENC28\DNS.o
 .comment       0x00000000       0x3d Obj-XC32-EX16_ENC28\DNSs.o
 .comment       0x00000000       0x3d Obj-XC32-EX16_ENC28\DynDNS.o
 .comment       0x00000000       0x3d Obj-XC32-EX16_ENC28\ENC28J60.o
 .comment       0x00000000       0x3d Obj-XC32-EX16_ENC28\ENCX24J600.o
 .comment       0x00000000       0x3d Obj-XC32-EX16_ENC28\FileSystem.o
 .comment       0x00000000       0x3d Obj-XC32-EX16_ENC28\FTP.o
 .comment       0x00000000       0x3d Obj-XC32-EX16_ENC28\Hashes.o
 .comment       0x00000000       0x3d Obj-XC32-EX16_ENC28\Helpers.o
 .comment       0x00000000       0x3d Obj-XC32-EX16_ENC28\HTTP2.o
 .comment       0x00000000       0x3d Obj-XC32-EX16_ENC28\ICMP.o
 .comment       0x00000000       0x3d Obj-XC32-EX16_ENC28\IP.o
 .comment       0x00000000       0x3d Obj-XC32-EX16_ENC28\LCDBlocking.o
 .comment       0x00000000       0x3d Obj-XC32-EX16_ENC28\MPFS2.o
 .comment       0x00000000       0x3d Obj-XC32-EX16_ENC28\NBNS.o
 .comment       0x00000000       0x3d Obj-XC32-EX16_ENC28\Random.o
 .comment       0x00000000       0x3d Obj-XC32-EX16_ENC28\Reboot.o
 .comment       0x00000000       0x3d Obj-XC32-EX16_ENC28\RSA.o
 .comment       0x00000000       0x3d Obj-XC32-EX16_ENC28\SMTP.o
 .comment       0x00000000       0x3d Obj-XC32-EX16_ENC28\SNMP.o
 .comment       0x00000000       0x3d Obj-XC32-EX16_ENC28\SNMPv3.o
 .comment       0x00000000       0x3d Obj-XC32-EX16_ENC28\SNMPv3USM.o
 .comment       0x00000000       0x3d Obj-XC32-EX16_ENC28\SNTP.o
 .comment       0x00000000       0x3d Obj-XC32-EX16_ENC28\SPIEEPROM.o
 .comment       0x00000000       0x3d Obj-XC32-EX16_ENC28\SPIFlash.o
 .comment       0x00000000       0x3d Obj-XC32-EX16_ENC28\SPIRAM.o
 .comment       0x00000000       0x3d Obj-XC32-EX16_ENC28\SSL.o
 .comment       0x00000000       0x3d Obj-XC32-EX16_ENC28\StackTsk.o
 .comment       0x00000000       0x3d Obj-XC32-EX16_ENC28\TCP.o
 .comment       0x00000000       0x3d Obj-XC32-EX16_ENC28\TCPPerformanceTest.o
 .comment       0x00000000       0x3d Obj-XC32-EX16_ENC28\Telnet.o
 .comment       0x00000000       0x3d Obj-XC32-EX16_ENC28\TFTPc.o
 .comment       0x00000000       0x3d Obj-XC32-EX16_ENC28\Tick.o
 .comment       0x00000000       0x3d Obj-XC32-EX16_ENC28\UART2TCPBridge.o
 .comment       0x00000000       0x3d Obj-XC32-EX16_ENC28\UART.o
 .comment       0x00000000       0x3d Obj-XC32-EX16_ENC28\UDP.o
 .comment       0x00000000       0x3d Obj-XC32-EX16_ENC28\UDPPerformanceTest.o
 .comment       0x00000000       0x3d Obj-XC32-EX16_ENC28\ZeroconfHelper.o
 .comment       0x00000000       0x3d Obj-XC32-EX16_ENC28\ZeroconfLinkLocal.o
 .comment       0x00000000       0x3d Obj-XC32-EX16_ENC28\ZeroconfMulticastDNS.o
 .comment       0x00000000       0x3d Obj-XC32-EX16_ENC28\CustomHTTPApp.o
 .comment       0x00000000       0x3d Obj-XC32-EX16_ENC28\CustomSNMPApp.o
 .comment       0x00000000       0x3d Obj-XC32-EX16_ENC28\CustomSSLCert.o
 .comment       0x00000000       0x3d Obj-XC32-EX16_ENC28\MainDemo.o
 .comment       0x00000000       0x3d Obj-XC32-EX16_ENC28\BerkeleyTCPClientDemo.o
 .comment       0x00000000       0x3d Obj-XC32-EX16_ENC28\BerkeleyTCPServerDemo.o
 .comment       0x00000000       0x3d Obj-XC32-EX16_ENC28\BerkeleyUDPClientDemo.o
 .comment       0x00000000       0x3d Obj-XC32-EX16_ENC28\GenericTCPClient.o
 .comment       0x00000000       0x3d Obj-XC32-EX16_ENC28\GenericTCPServer.o
 .comment       0x00000000       0x3d Obj-XC32-EX16_ENC28\PingDemo.o
 .comment       0x00000000       0x3d Obj-XC32-EX16_ENC28\SMTPDemo.o
 .comment       0x00000000       0x3d Obj-XC32-EX16_ENC28\UARTConfig.o
 .comment       0x00000000       0x3d Obj-XC32-EX16_ENC28\MPFSImg2.o
 .comment       0x00000000       0x3d d:/program files (x86)/microchip/xc32/v1.20/bin/../lib/gcc/pic32mx/4.5.2/../../../../pic32mx/lib/size\libmchp_peripheral_32MX795F512L.a(soft_reset_lib.o)
 .comment       0x00000000       0x3d d:/program files (x86)/microchip/xc32/v1.20/bin/../lib/gcc/pic32mx/4.5.2/../../../../pic32mx/lib/size\libmchp_peripheral_32MX795F512L.a(pcache.o)
 .comment       0x00000000       0x3d d:/program files (x86)/microchip/xc32/v1.20/bin/../lib/gcc/pic32mx/4.5.2/../../../../pic32mx/lib/size\libmchp_peripheral_32MX795F512L.a(int_disable_interrupts_lib.o)
 .comment       0x00000000       0x3d d:/program files (x86)/microchip/xc32/v1.20/bin/../lib/gcc/pic32mx/4.5.2/../../../../pic32mx/lib/size\libmchp_peripheral_32MX795F512L.a(int_restore_interrupts_lib.o)
 .comment       0x00000000       0x3d d:/program files (x86)/microchip/xc32/v1.20/bin/../lib/gcc/pic32mx/4.5.2/../../../../pic32mx/lib/size\libmchp_peripheral_32MX795F512L.a(int_enable_mv_int_lib.o)
 .comment       0x00000000       0x3d d:/program files (x86)/microchip/xc32/v1.20/bin/../lib/gcc/pic32mx/4.5.2/../../../../pic32mx/lib/size\libmchp_peripheral_32MX795F512L.a(puts_uartx_lib_legacy.o)
 .comment       0x00000000       0x3d d:/program files (x86)/microchip/xc32/v1.20/bin/../lib/gcc/pic32mx/4.5.2/../../../../pic32mx/lib/size\libmchp_peripheral_32MX795F512L.a(int_enable_interrupts_lib.o)
 .comment       0x00000000       0x3d d:/program files (x86)/microchip/xc32/v1.20/bin/../lib/gcc/pic32mx/4.5.2/size\libgcc.a(_udivdi3.o)
 .comment       0x00000000       0x3d d:/program files (x86)/microchip/xc32/v1.20/bin/../lib/gcc/pic32mx/4.5.2/size\libgcc.a(_umoddi3.o)
 .comment       0x0000003c       0x18 d:/program files (x86)/microchip/xc32/v1.20/bin/../lib/gcc/pic32mx/4.5.2/../../../../pic32mx/lib/size\libpic32.a(memcmp.o)
                                 0x19 (size before relaxing)
 .comment       0x00000054       0x18 d:/program files (x86)/microchip/xc32/v1.20/bin/../lib/gcc/pic32mx/4.5.2/../../../../pic32mx/lib/size\libpic32.a(memset.o)
                                 0x19 (size before relaxing)
 .comment       0x0000006c       0x55 d:/program files (x86)/microchip/xc32/v1.20/bin/../lib/gcc/pic32mx/4.5.2/../../../../pic32mx/lib/size\libpic32.a(strcmp.o)
                                 0x56 (size before relaxing)
 .comment       0x000000c1       0x19 d:/program files (x86)/microchip/xc32/v1.20/bin/../lib/gcc/pic32mx/4.5.2/../../../../pic32mx/lib/size\libpic32.a(strcpy.o)
                                 0x1a (size before relaxing)
 .comment       0x000000da       0x19 d:/program files (x86)/microchip/xc32/v1.20/bin/../lib/gcc/pic32mx/4.5.2/../../../../pic32mx/lib/size\libpic32.a(strlen.o)
                                 0x1a (size before relaxing)
 .comment       0x00000000       0x3d d:/program files (x86)/microchip/xc32/v1.20/bin/../lib/gcc/pic32mx/4.5.2/../../../../pic32mx/lib/size\libpic32.a(default-bootstrap-exception-handler.o)
 .comment       0x00000000       0x3d d:/program files (x86)/microchip/xc32/v1.20/bin/../lib/gcc/pic32mx/4.5.2/../../../../pic32mx/lib/size\libpic32.a(default-on-reset.o)
 .comment       0x00000000       0x3d d:/program files (x86)/microchip/xc32/v1.20/bin/../lib/gcc/pic32mx/4.5.2/../../../../pic32mx/lib/size\libpic32.a(default-on-bootstrap.o)
 .comment       0x00000000       0x3d d:/program files (x86)/microchip/xc32/v1.20/bin/../lib/gcc/pic32mx/4.5.2/../../../../pic32mx/lib/size\libpic32.a(defaultinterrupt.o)
 .comment       0x00000000       0x3d d:/program files (x86)/microchip/xc32/v1.20/bin/../lib/gcc/pic32mx/4.5.2/../../../../pic32mx/lib/size\libc.a(atoi.o)
 .comment       0x00000000       0x3d d:/program files (x86)/microchip/xc32/v1.20/bin/../lib/gcc/pic32mx/4.5.2/../../../../pic32mx/lib/size\libc.a(atol.o)
 .comment       0x000000f3       0x4e d:/program files (x86)/microchip/xc32/v1.20/bin/../lib/gcc/pic32mx/4.5.2/../../../../pic32mx/lib/size\libc.a(ctype.o)
                                 0x8b (size before relaxing)
 .comment       0x00000000       0x3d d:/program files (x86)/microchip/xc32/v1.20/bin/../lib/gcc/pic32mx/4.5.2/../../../../pic32mx/lib/size\libc.a(ltoa.o)
 .comment       0x00000000       0x3d d:/program files (x86)/microchip/xc32/v1.20/bin/../lib/gcc/pic32mx/4.5.2/../../../../pic32mx/lib/size\libc.a(strncpy.o)

.debug
 *(.debug)

.line
 *(.line)

.debug_srcinfo
 *(.debug_srcinfo)

.debug_sfnames
 *(.debug_sfnames)

.debug_aranges  0x00000000      0x598
 *(.debug_aranges)
 .debug_aranges
                0x00000000       0x20 Obj-XC32-EX16_ENC28\Announce.o
 .debug_aranges
                0x00000020       0x20 Obj-XC32-EX16_ENC28\ARP.o
 .debug_aranges
                0x00000040       0x20 Obj-XC32-EX16_ENC28\Delay.o
 .debug_aranges
                0x00000060       0x20 Obj-XC32-EX16_ENC28\DHCP.o
 .debug_aranges
                0x00000080       0x20 Obj-XC32-EX16_ENC28\DHCPs.o
 .debug_aranges
                0x000000a0       0x20 Obj-XC32-EX16_ENC28\DNS.o
 .debug_aranges
                0x000000c0       0x20 Obj-XC32-EX16_ENC28\ENC28J60.o
 .debug_aranges
                0x000000e0       0x20 Obj-XC32-EX16_ENC28\Helpers.o
 .debug_aranges
                0x00000100       0x20 Obj-XC32-EX16_ENC28\HTTP2.o
 .debug_aranges
                0x00000120       0x20 Obj-XC32-EX16_ENC28\ICMP.o
 .debug_aranges
                0x00000140       0x20 Obj-XC32-EX16_ENC28\IP.o
 .debug_aranges
                0x00000160       0x20 Obj-XC32-EX16_ENC28\LCDBlocking.o
 .debug_aranges
                0x00000180       0x20 Obj-XC32-EX16_ENC28\MPFS2.o
 .debug_aranges
                0x000001a0       0x20 Obj-XC32-EX16_ENC28\NBNS.o
 .debug_aranges
                0x000001c0       0x20 Obj-XC32-EX16_ENC28\Reboot.o
 .debug_aranges
                0x000001e0       0x20 Obj-XC32-EX16_ENC28\SNTP.o
 .debug_aranges
                0x00000200       0x20 Obj-XC32-EX16_ENC28\SPIEEPROM.o
 .debug_aranges
                0x00000220       0x20 Obj-XC32-EX16_ENC28\StackTsk.o
 .debug_aranges
                0x00000240       0x20 Obj-XC32-EX16_ENC28\TCP.o
 .debug_aranges
                0x00000260       0x20 Obj-XC32-EX16_ENC28\TCPPerformanceTest.o
 .debug_aranges
                0x00000280       0x20 Obj-XC32-EX16_ENC28\Tick.o
 .debug_aranges
                0x000002a0       0x20 Obj-XC32-EX16_ENC28\UART.o
 .debug_aranges
                0x000002c0       0x20 Obj-XC32-EX16_ENC28\UDP.o
 .debug_aranges
                0x000002e0       0x20 Obj-XC32-EX16_ENC28\CustomHTTPApp.o
 .debug_aranges
                0x00000300       0x20 Obj-XC32-EX16_ENC28\MainDemo.o
 .debug_aranges
                0x00000320       0x20 Obj-XC32-EX16_ENC28\PingDemo.o
 .debug_aranges
                0x00000340       0x20 Obj-XC32-EX16_ENC28\UARTConfig.o
 .debug_aranges
                0x00000360       0x20 d:/program files (x86)/microchip/xc32/v1.20/bin/../lib/gcc/pic32mx/4.5.2/../../../../pic32mx/lib/size\libmchp_peripheral_32MX795F512L.a(soft_reset_lib.o)
 .debug_aranges
                0x00000380       0x28 d:/program files (x86)/microchip/xc32/v1.20/bin/../lib/gcc/pic32mx/4.5.2/../../../../pic32mx/lib/size\libmchp_peripheral_32MX795F512L.a(pcache.o)
 .debug_aranges
                0x000003a8       0x20 d:/program files (x86)/microchip/xc32/v1.20/bin/../lib/gcc/pic32mx/4.5.2/../../../../pic32mx/lib/size\libmchp_peripheral_32MX795F512L.a(int_disable_interrupts_lib.o)
 .debug_aranges
                0x000003c8       0x20 d:/program files (x86)/microchip/xc32/v1.20/bin/../lib/gcc/pic32mx/4.5.2/../../../../pic32mx/lib/size\libmchp_peripheral_32MX795F512L.a(int_restore_interrupts_lib.o)
 .debug_aranges
                0x000003e8       0x20 d:/program files (x86)/microchip/xc32/v1.20/bin/../lib/gcc/pic32mx/4.5.2/../../../../pic32mx/lib/size\libmchp_peripheral_32MX795F512L.a(int_enable_mv_int_lib.o)
 .debug_aranges
                0x00000408       0x28 d:/program files (x86)/microchip/xc32/v1.20/bin/../lib/gcc/pic32mx/4.5.2/../../../../pic32mx/lib/size\libmchp_peripheral_32MX795F512L.a(puts_uartx_lib_legacy.o)
 .debug_aranges
                0x00000430       0x20 d:/program files (x86)/microchip/xc32/v1.20/bin/../lib/gcc/pic32mx/4.5.2/../../../../pic32mx/lib/size\libmchp_peripheral_32MX795F512L.a(int_enable_interrupts_lib.o)
 .debug_aranges
                0x00000450       0x20 d:/program files (x86)/microchip/xc32/v1.20/bin/../lib/gcc/pic32mx/4.5.2/size\libgcc.a(_udivdi3.o)
 .debug_aranges
                0x00000470       0x20 d:/program files (x86)/microchip/xc32/v1.20/bin/../lib/gcc/pic32mx/4.5.2/size\libgcc.a(_umoddi3.o)
 .debug_aranges
                0x00000490       0x20 d:/program files (x86)/microchip/xc32/v1.20/bin/../lib/gcc/pic32mx/4.5.2/../../../../pic32mx/lib/size\libpic32.a(default-bootstrap-exception-handler.o)
 .debug_aranges
                0x000004b0       0x20 d:/program files (x86)/microchip/xc32/v1.20/bin/../lib/gcc/pic32mx/4.5.2/../../../../pic32mx/lib/size\libpic32.a(default-on-reset.o)
 .debug_aranges
                0x000004d0       0x20 d:/program files (x86)/microchip/xc32/v1.20/bin/../lib/gcc/pic32mx/4.5.2/../../../../pic32mx/lib/size\libpic32.a(default-on-bootstrap.o)
 .debug_aranges
                0x000004f0       0x20 d:/program files (x86)/microchip/xc32/v1.20/bin/../lib/gcc/pic32mx/4.5.2/../../../../pic32mx/lib/size\libpic32.a(defaultinterrupt.o)
 .debug_aranges
                0x00000510       0x20 d:/program files (x86)/microchip/xc32/v1.20/bin/../lib/gcc/pic32mx/4.5.2/../../../../pic32mx/lib/size\libc.a(atoi.o)
 .debug_aranges
                0x00000530       0x20 d:/program files (x86)/microchip/xc32/v1.20/bin/../lib/gcc/pic32mx/4.5.2/../../../../pic32mx/lib/size\libc.a(atol.o)
 .debug_aranges
                0x00000550       0x28 d:/program files (x86)/microchip/xc32/v1.20/bin/../lib/gcc/pic32mx/4.5.2/../../../../pic32mx/lib/size\libc.a(ltoa.o)
 .debug_aranges
                0x00000578       0x20 d:/program files (x86)/microchip/xc32/v1.20/bin/../lib/gcc/pic32mx/4.5.2/../../../../pic32mx/lib/size\libc.a(strncpy.o)

.debug_pubnames
                0x00000000     0x152e
 *(.debug_pubnames)
 .debug_pubnames
                0x00000000       0x33 Obj-XC32-EX16_ENC28\Announce.o
 .debug_pubnames
                0x00000033       0x6f Obj-XC32-EX16_ENC28\ARP.o
 .debug_pubnames
                0x000000a2       0x2c Obj-XC32-EX16_ENC28\Delay.o
 .debug_pubnames
                0x000000ce       0xcc Obj-XC32-EX16_ENC28\DHCP.o
 .debug_pubnames
                0x0000019a       0x78 Obj-XC32-EX16_ENC28\DHCPs.o
 .debug_pubnames
                0x00000212       0x55 Obj-XC32-EX16_ENC28\DNS.o
 .debug_pubnames
                0x00000267      0x1b8 Obj-XC32-EX16_ENC28\ENC28J60.o
 .debug_pubnames
                0x0000041f      0x11b Obj-XC32-EX16_ENC28\Helpers.o
 .debug_pubnames
                0x0000053a       0xcf Obj-XC32-EX16_ENC28\HTTP2.o
 .debug_pubnames
                0x00000609       0x7f Obj-XC32-EX16_ENC28\ICMP.o
 .debug_pubnames
                0x00000688       0x44 Obj-XC32-EX16_ENC28\IP.o
 .debug_pubnames
                0x000006cc       0x45 Obj-XC32-EX16_ENC28\LCDBlocking.o
 .debug_pubnames
                0x00000711      0x17c Obj-XC32-EX16_ENC28\MPFS2.o
 .debug_pubnames
                0x0000088d       0x1f Obj-XC32-EX16_ENC28\NBNS.o
 .debug_pubnames
                0x000008ac       0x21 Obj-XC32-EX16_ENC28\Reboot.o
 .debug_pubnames
                0x000008cd       0x37 Obj-XC32-EX16_ENC28\SNTP.o
 .debug_pubnames
                0x00000904       0xaa Obj-XC32-EX16_ENC28\SPIEEPROM.o
 .debug_pubnames
                0x000009ae       0x53 Obj-XC32-EX16_ENC28\StackTsk.o
 .debug_pubnames
                0x00000a01      0x1ba Obj-XC32-EX16_ENC28\TCP.o
 .debug_pubnames
                0x00000bbb       0x5b Obj-XC32-EX16_ENC28\TCPPerformanceTest.o
 .debug_pubnames
                0x00000c16       0x7e Obj-XC32-EX16_ENC28\Tick.o
 .debug_pubnames
                0x00000c94       0x25 Obj-XC32-EX16_ENC28\UART.o
 .debug_pubnames
                0x00000cb9      0x155 Obj-XC32-EX16_ENC28\UDP.o
 .debug_pubnames
                0x00000e0e      0x3bd Obj-XC32-EX16_ENC28\CustomHTTPApp.o
 .debug_pubnames
                0x000011cb       0x8a Obj-XC32-EX16_ENC28\MainDemo.o
 .debug_pubnames
                0x00001255       0x1f Obj-XC32-EX16_ENC28\PingDemo.o
 .debug_pubnames
                0x00001274       0x23 Obj-XC32-EX16_ENC28\UARTConfig.o
 .debug_pubnames
                0x00001297       0x20 d:/program files (x86)/microchip/xc32/v1.20/bin/../lib/gcc/pic32mx/4.5.2/../../../../pic32mx/lib/size\libmchp_peripheral_32MX795F512L.a(soft_reset_lib.o)
 .debug_pubnames
                0x000012b7       0x3b d:/program files (x86)/microchip/xc32/v1.20/bin/../lib/gcc/pic32mx/4.5.2/../../../../pic32mx/lib/size\libmchp_peripheral_32MX795F512L.a(pcache.o)
 .debug_pubnames
                0x000012f2       0x2b d:/program files (x86)/microchip/xc32/v1.20/bin/../lib/gcc/pic32mx/4.5.2/../../../../pic32mx/lib/size\libmchp_peripheral_32MX795F512L.a(int_disable_interrupts_lib.o)
 .debug_pubnames
                0x0000131d       0x2b d:/program files (x86)/microchip/xc32/v1.20/bin/../lib/gcc/pic32mx/4.5.2/../../../../pic32mx/lib/size\libmchp_peripheral_32MX795F512L.a(int_restore_interrupts_lib.o)
 .debug_pubnames
                0x00001348       0x36 d:/program files (x86)/microchip/xc32/v1.20/bin/../lib/gcc/pic32mx/4.5.2/../../../../pic32mx/lib/size\libmchp_peripheral_32MX795F512L.a(int_enable_mv_int_lib.o)
 .debug_pubnames
                0x0000137e       0x2e d:/program files (x86)/microchip/xc32/v1.20/bin/../lib/gcc/pic32mx/4.5.2/../../../../pic32mx/lib/size\libmchp_peripheral_32MX795F512L.a(puts_uartx_lib_legacy.o)
 .debug_pubnames
                0x000013ac       0x2a d:/program files (x86)/microchip/xc32/v1.20/bin/../lib/gcc/pic32mx/4.5.2/../../../../pic32mx/lib/size\libmchp_peripheral_32MX795F512L.a(int_enable_interrupts_lib.o)
 .debug_pubnames
                0x000013d6       0x20 d:/program files (x86)/microchip/xc32/v1.20/bin/../lib/gcc/pic32mx/4.5.2/size\libgcc.a(_udivdi3.o)
 .debug_pubnames
                0x000013f6       0x20 d:/program files (x86)/microchip/xc32/v1.20/bin/../lib/gcc/pic32mx/4.5.2/size\libgcc.a(_umoddi3.o)
 .debug_pubnames
                0x00001416       0x33 d:/program files (x86)/microchip/xc32/v1.20/bin/../lib/gcc/pic32mx/4.5.2/../../../../pic32mx/lib/size\libpic32.a(default-bootstrap-exception-handler.o)
 .debug_pubnames
                0x00001449       0x20 d:/program files (x86)/microchip/xc32/v1.20/bin/../lib/gcc/pic32mx/4.5.2/../../../../pic32mx/lib/size\libpic32.a(default-on-reset.o)
 .debug_pubnames
                0x00001469       0x24 d:/program files (x86)/microchip/xc32/v1.20/bin/../lib/gcc/pic32mx/4.5.2/../../../../pic32mx/lib/size\libpic32.a(default-on-bootstrap.o)
 .debug_pubnames
                0x0000148d       0x28 d:/program files (x86)/microchip/xc32/v1.20/bin/../lib/gcc/pic32mx/4.5.2/../../../../pic32mx/lib/size\libpic32.a(defaultinterrupt.o)
 .debug_pubnames
                0x000014b5       0x1b d:/program files (x86)/microchip/xc32/v1.20/bin/../lib/gcc/pic32mx/4.5.2/../../../../pic32mx/lib/size\libc.a(atoi.o)
 .debug_pubnames
                0x000014d0       0x1b d:/program files (x86)/microchip/xc32/v1.20/bin/../lib/gcc/pic32mx/4.5.2/../../../../pic32mx/lib/size\libc.a(atol.o)
 .debug_pubnames
                0x000014eb       0x25 d:/program files (x86)/microchip/xc32/v1.20/bin/../lib/gcc/pic32mx/4.5.2/../../../../pic32mx/lib/size\libc.a(ltoa.o)
 .debug_pubnames
                0x00001510       0x1e d:/program files (x86)/microchip/xc32/v1.20/bin/../lib/gcc/pic32mx/4.5.2/../../../../pic32mx/lib/size\libc.a(strncpy.o)

.debug_info     0x00000000    0x5c5ef
 *(.debug_info .gnu.linkonce.wi.*)
 .debug_info    0x00000000     0x1b4c Obj-XC32-EX16_ENC28\Announce.o
 .debug_info    0x00001b4c     0x1154 Obj-XC32-EX16_ENC28\ARCFOUR.o
 .debug_info    0x00002ca0     0x1b7d Obj-XC32-EX16_ENC28\ARP.o
 .debug_info    0x0000481d     0x1153 Obj-XC32-EX16_ENC28\AutoIP.o
 .debug_info    0x00005970     0x1158 Obj-XC32-EX16_ENC28\BerkeleyAPI.o
 .debug_info    0x00006ac8     0x1153 Obj-XC32-EX16_ENC28\BigInt.o
 .debug_info    0x00007c1b     0x11e7 Obj-XC32-EX16_ENC28\Delay.o
 .debug_info    0x00008e02     0x213b Obj-XC32-EX16_ENC28\DHCP.o
 .debug_info    0x0000af3d     0x22b4 Obj-XC32-EX16_ENC28\DHCPs.o
 .debug_info    0x0000d1f1     0x1d9e Obj-XC32-EX16_ENC28\DNS.o
 .debug_info    0x0000ef8f     0x1151 Obj-XC32-EX16_ENC28\DNSs.o
 .debug_info    0x000100e0     0x1153 Obj-XC32-EX16_ENC28\DynDNS.o
 .debug_info    0x00011233     0x3eec Obj-XC32-EX16_ENC28\ENC28J60.o
 .debug_info    0x0001511f     0x1157 Obj-XC32-EX16_ENC28\ENCX24J600.o
 .debug_info    0x00016276     0x1157 Obj-XC32-EX16_ENC28\FileSystem.o
 .debug_info    0x000173cd     0x1150 Obj-XC32-EX16_ENC28\FTP.o
 .debug_info    0x0001851d     0x1153 Obj-XC32-EX16_ENC28\Hashes.o
 .debug_info    0x00019670     0x254f Obj-XC32-EX16_ENC28\Helpers.o
 .debug_info    0x0001bbbf     0x23c9 Obj-XC32-EX16_ENC28\HTTP2.o
 .debug_info    0x0001df88     0x1ae2 Obj-XC32-EX16_ENC28\ICMP.o
 .debug_info    0x0001fa6a     0x1b2f Obj-XC32-EX16_ENC28\IP.o
 .debug_info    0x00021599     0x19b2 Obj-XC32-EX16_ENC28\LCDBlocking.o
 .debug_info    0x00022f4b     0x1990 Obj-XC32-EX16_ENC28\MPFS2.o
 .debug_info    0x000248db     0x1c83 Obj-XC32-EX16_ENC28\NBNS.o
 .debug_info    0x0002655e     0x1153 Obj-XC32-EX16_ENC28\Random.o
 .debug_info    0x000276b1     0x1a7c Obj-XC32-EX16_ENC28\Reboot.o
 .debug_info    0x0002912d     0x1150 Obj-XC32-EX16_ENC28\RSA.o
 .debug_info    0x0002a27d     0x1151 Obj-XC32-EX16_ENC28\SMTP.o
 .debug_info    0x0002b3ce     0x1151 Obj-XC32-EX16_ENC28\SNMP.o
 .debug_info    0x0002c51f     0x1153 Obj-XC32-EX16_ENC28\SNMPv3.o
 .debug_info    0x0002d672     0x1156 Obj-XC32-EX16_ENC28\SNMPv3USM.o
 .debug_info    0x0002e7c8     0x14d3 Obj-XC32-EX16_ENC28\SNTP.o
 .debug_info    0x0002fc9b     0x2414 Obj-XC32-EX16_ENC28\SPIEEPROM.o
 .debug_info    0x000320af     0x1155 Obj-XC32-EX16_ENC28\SPIFlash.o
 .debug_info    0x00033204     0x1153 Obj-XC32-EX16_ENC28\SPIRAM.o
 .debug_info    0x00034357     0x1150 Obj-XC32-EX16_ENC28\SSL.o
 .debug_info    0x000354a7     0x1a3e Obj-XC32-EX16_ENC28\StackTsk.o
 .debug_info    0x00036ee5     0x31b9 Obj-XC32-EX16_ENC28\TCP.o
 .debug_info    0x0003a09e     0x1875 Obj-XC32-EX16_ENC28\TCPPerformanceTest.o
 .debug_info    0x0003b913     0x1153 Obj-XC32-EX16_ENC28\Telnet.o
 .debug_info    0x0003ca66     0x1152 Obj-XC32-EX16_ENC28\TFTPc.o
 .debug_info    0x0003dbb8     0x1ca4 Obj-XC32-EX16_ENC28\Tick.o
 .debug_info    0x0003f85c     0x115b Obj-XC32-EX16_ENC28\UART2TCPBridge.o
 .debug_info    0x000409b7     0x143c Obj-XC32-EX16_ENC28\UART.o
 .debug_info    0x00041df3     0x21fa Obj-XC32-EX16_ENC28\UDP.o
 .debug_info    0x00043fed     0x115f Obj-XC32-EX16_ENC28\UDPPerformanceTest.o
 .debug_info    0x0004514c     0x115b Obj-XC32-EX16_ENC28\ZeroconfHelper.o
 .debug_info    0x000462a7     0x115e Obj-XC32-EX16_ENC28\ZeroconfLinkLocal.o
 .debug_info    0x00047405     0x1161 Obj-XC32-EX16_ENC28\ZeroconfMulticastDNS.o
 .debug_info    0x00048566     0x2b00 Obj-XC32-EX16_ENC28\CustomHTTPApp.o
 .debug_info    0x0004b066     0x113e Obj-XC32-EX16_ENC28\CustomSNMPApp.o
 .debug_info    0x0004c1a4     0x113e Obj-XC32-EX16_ENC28\CustomSSLCert.o
 .debug_info    0x0004d2e2     0x2ed2 Obj-XC32-EX16_ENC28\MainDemo.o
 .debug_info    0x000501b4     0x1146 Obj-XC32-EX16_ENC28\BerkeleyTCPClientDemo.o
 .debug_info    0x000512fa     0x1146 Obj-XC32-EX16_ENC28\BerkeleyTCPServerDemo.o
 .debug_info    0x00052440     0x1146 Obj-XC32-EX16_ENC28\BerkeleyUDPClientDemo.o
 .debug_info    0x00053586     0x1141 Obj-XC32-EX16_ENC28\GenericTCPClient.o
 .debug_info    0x000546c7     0x1141 Obj-XC32-EX16_ENC28\GenericTCPServer.o
 .debug_info    0x00055808     0x13d0 Obj-XC32-EX16_ENC28\PingDemo.o
 .debug_info    0x00056bd8     0x1139 Obj-XC32-EX16_ENC28\SMTPDemo.o
 .debug_info    0x00057d11     0x1e2a Obj-XC32-EX16_ENC28\UARTConfig.o
 .debug_info    0x00059b3b     0x1139 Obj-XC32-EX16_ENC28\MPFSImg2.o
 .debug_info    0x0005ac74       0xb2 d:/program files (x86)/microchip/xc32/v1.20/bin/../lib/gcc/pic32mx/4.5.2/../../../../pic32mx/lib/size\libmchp_peripheral_32MX795F512L.a(soft_reset_lib.o)
 .debug_info    0x0005ad26       0xbf d:/program files (x86)/microchip/xc32/v1.20/bin/../lib/gcc/pic32mx/4.5.2/../../../../pic32mx/lib/size\libmchp_peripheral_32MX795F512L.a(pcache.o)
 .debug_info    0x0005ade5       0xb6 d:/program files (x86)/microchip/xc32/v1.20/bin/../lib/gcc/pic32mx/4.5.2/../../../../pic32mx/lib/size\libmchp_peripheral_32MX795F512L.a(int_disable_interrupts_lib.o)
 .debug_info    0x0005ae9b       0xb6 d:/program files (x86)/microchip/xc32/v1.20/bin/../lib/gcc/pic32mx/4.5.2/../../../../pic32mx/lib/size\libmchp_peripheral_32MX795F512L.a(int_restore_interrupts_lib.o)
 .debug_info    0x0005af51       0xbc d:/program files (x86)/microchip/xc32/v1.20/bin/../lib/gcc/pic32mx/4.5.2/../../../../pic32mx/lib/size\libmchp_peripheral_32MX795F512L.a(int_enable_mv_int_lib.o)
 .debug_info    0x0005b00d       0xbf d:/program files (x86)/microchip/xc32/v1.20/bin/../lib/gcc/pic32mx/4.5.2/../../../../pic32mx/lib/size\libmchp_peripheral_32MX795F512L.a(puts_uartx_lib_legacy.o)
 .debug_info    0x0005b0cc       0xb4 d:/program files (x86)/microchip/xc32/v1.20/bin/../lib/gcc/pic32mx/4.5.2/../../../../pic32mx/lib/size\libmchp_peripheral_32MX795F512L.a(int_enable_interrupts_lib.o)
 .debug_info    0x0005b180      0x746 d:/program files (x86)/microchip/xc32/v1.20/bin/../lib/gcc/pic32mx/4.5.2/size\libgcc.a(_udivdi3.o)
 .debug_info    0x0005b8c6      0x783 d:/program files (x86)/microchip/xc32/v1.20/bin/../lib/gcc/pic32mx/4.5.2/size\libgcc.a(_umoddi3.o)
 .debug_info    0x0005c049       0xd6 d:/program files (x86)/microchip/xc32/v1.20/bin/../lib/gcc/pic32mx/4.5.2/../../../../pic32mx/lib/size\libpic32.a(default-bootstrap-exception-handler.o)
 .debug_info    0x0005c11f       0xb0 d:/program files (x86)/microchip/xc32/v1.20/bin/../lib/gcc/pic32mx/4.5.2/../../../../pic32mx/lib/size\libpic32.a(default-on-reset.o)
 .debug_info    0x0005c1cf       0xb8 d:/program files (x86)/microchip/xc32/v1.20/bin/../lib/gcc/pic32mx/4.5.2/../../../../pic32mx/lib/size\libpic32.a(default-on-bootstrap.o)
 .debug_info    0x0005c287       0xca d:/program files (x86)/microchip/xc32/v1.20/bin/../lib/gcc/pic32mx/4.5.2/../../../../pic32mx/lib/size\libpic32.a(defaultinterrupt.o)
 .debug_info    0x0005c351       0xa1 d:/program files (x86)/microchip/xc32/v1.20/bin/../lib/gcc/pic32mx/4.5.2/../../../../pic32mx/lib/size\libc.a(atoi.o)
 .debug_info    0x0005c3f2       0xa1 d:/program files (x86)/microchip/xc32/v1.20/bin/../lib/gcc/pic32mx/4.5.2/../../../../pic32mx/lib/size\libc.a(atol.o)
 .debug_info    0x0005c493        0x0 d:/program files (x86)/microchip/xc32/v1.20/bin/../lib/gcc/pic32mx/4.5.2/../../../../pic32mx/lib/size\libc.a(ctype.o)
 .debug_info    0x0005c493       0xb5 d:/program files (x86)/microchip/xc32/v1.20/bin/../lib/gcc/pic32mx/4.5.2/../../../../pic32mx/lib/size\libc.a(ltoa.o)
 .debug_info    0x0005c548       0xa7 d:/program files (x86)/microchip/xc32/v1.20/bin/../lib/gcc/pic32mx/4.5.2/../../../../pic32mx/lib/size\libc.a(strncpy.o)

.debug_abbrev   0x00000000     0x754e
 *(.debug_abbrev)
 .debug_abbrev  0x00000000      0x1ff Obj-XC32-EX16_ENC28\Announce.o
 .debug_abbrev  0x000001ff      0x166 Obj-XC32-EX16_ENC28\ARCFOUR.o
 .debug_abbrev  0x00000365      0x275 Obj-XC32-EX16_ENC28\ARP.o
 .debug_abbrev  0x000005da      0x166 Obj-XC32-EX16_ENC28\AutoIP.o
 .debug_abbrev  0x00000740      0x166 Obj-XC32-EX16_ENC28\BerkeleyAPI.o
 .debug_abbrev  0x000008a6      0x166 Obj-XC32-EX16_ENC28\BigInt.o
 .debug_abbrev  0x00000a0c      0x19b Obj-XC32-EX16_ENC28\Delay.o
 .debug_abbrev  0x00000ba7      0x2bd Obj-XC32-EX16_ENC28\DHCP.o
 .debug_abbrev  0x00000e64      0x29b Obj-XC32-EX16_ENC28\DHCPs.o
 .debug_abbrev  0x000010ff      0x271 Obj-XC32-EX16_ENC28\DNS.o
 .debug_abbrev  0x00001370      0x166 Obj-XC32-EX16_ENC28\DNSs.o
 .debug_abbrev  0x000014d6      0x166 Obj-XC32-EX16_ENC28\DynDNS.o
 .debug_abbrev  0x0000163c      0x317 Obj-XC32-EX16_ENC28\ENC28J60.o
 .debug_abbrev  0x00001953      0x166 Obj-XC32-EX16_ENC28\ENCX24J600.o
 .debug_abbrev  0x00001ab9      0x166 Obj-XC32-EX16_ENC28\FileSystem.o
 .debug_abbrev  0x00001c1f      0x166 Obj-XC32-EX16_ENC28\FTP.o
 .debug_abbrev  0x00001d85      0x166 Obj-XC32-EX16_ENC28\Hashes.o
 .debug_abbrev  0x00001eeb      0x24c Obj-XC32-EX16_ENC28\Helpers.o
 .debug_abbrev  0x00002137      0x2cc Obj-XC32-EX16_ENC28\HTTP2.o
 .debug_abbrev  0x00002403      0x246 Obj-XC32-EX16_ENC28\ICMP.o
 .debug_abbrev  0x00002649      0x242 Obj-XC32-EX16_ENC28\IP.o
 .debug_abbrev  0x0000288b      0x205 Obj-XC32-EX16_ENC28\LCDBlocking.o
 .debug_abbrev  0x00002a90      0x296 Obj-XC32-EX16_ENC28\MPFS2.o
 .debug_abbrev  0x00002d26      0x247 Obj-XC32-EX16_ENC28\NBNS.o
 .debug_abbrev  0x00002f6d      0x166 Obj-XC32-EX16_ENC28\Random.o
 .debug_abbrev  0x000030d3      0x1c0 Obj-XC32-EX16_ENC28\Reboot.o
 .debug_abbrev  0x00003293      0x166 Obj-XC32-EX16_ENC28\RSA.o
 .debug_abbrev  0x000033f9      0x166 Obj-XC32-EX16_ENC28\SMTP.o
 .debug_abbrev  0x0000355f      0x166 Obj-XC32-EX16_ENC28\SNMP.o
 .debug_abbrev  0x000036c5      0x166 Obj-XC32-EX16_ENC28\SNMPv3.o
 .debug_abbrev  0x0000382b      0x166 Obj-XC32-EX16_ENC28\SNMPv3USM.o
 .debug_abbrev  0x00003991      0x1d9 Obj-XC32-EX16_ENC28\SNTP.o
 .debug_abbrev  0x00003b6a      0x2bc Obj-XC32-EX16_ENC28\SPIEEPROM.o
 .debug_abbrev  0x00003e26      0x166 Obj-XC32-EX16_ENC28\SPIFlash.o
 .debug_abbrev  0x00003f8c      0x166 Obj-XC32-EX16_ENC28\SPIRAM.o
 .debug_abbrev  0x000040f2      0x166 Obj-XC32-EX16_ENC28\SSL.o
 .debug_abbrev  0x00004258      0x223 Obj-XC32-EX16_ENC28\StackTsk.o
 .debug_abbrev  0x0000447b      0x2d2 Obj-XC32-EX16_ENC28\TCP.o
 .debug_abbrev  0x0000474d      0x20a Obj-XC32-EX16_ENC28\TCPPerformanceTest.o
 .debug_abbrev  0x00004957      0x166 Obj-XC32-EX16_ENC28\Telnet.o
 .debug_abbrev  0x00004abd      0x166 Obj-XC32-EX16_ENC28\TFTPc.o
 .debug_abbrev  0x00004c23      0x219 Obj-XC32-EX16_ENC28\Tick.o
 .debug_abbrev  0x00004e3c      0x166 Obj-XC32-EX16_ENC28\UART2TCPBridge.o
 .debug_abbrev  0x00004fa2      0x19d Obj-XC32-EX16_ENC28\UART.o
 .debug_abbrev  0x0000513f      0x2fc Obj-XC32-EX16_ENC28\UDP.o
 .debug_abbrev  0x0000543b      0x166 Obj-XC32-EX16_ENC28\UDPPerformanceTest.o
 .debug_abbrev  0x000055a1      0x166 Obj-XC32-EX16_ENC28\ZeroconfHelper.o
 .debug_abbrev  0x00005707      0x166 Obj-XC32-EX16_ENC28\ZeroconfLinkLocal.o
 .debug_abbrev  0x0000586d      0x166 Obj-XC32-EX16_ENC28\ZeroconfMulticastDNS.o
 .debug_abbrev  0x000059d3      0x2c2 Obj-XC32-EX16_ENC28\CustomHTTPApp.o
 .debug_abbrev  0x00005c95      0x166 Obj-XC32-EX16_ENC28\CustomSNMPApp.o
 .debug_abbrev  0x00005dfb      0x166 Obj-XC32-EX16_ENC28\CustomSSLCert.o
 .debug_abbrev  0x00005f61      0x3a8 Obj-XC32-EX16_ENC28\MainDemo.o
 .debug_abbrev  0x00006309      0x166 Obj-XC32-EX16_ENC28\BerkeleyTCPClientDemo.o
 .debug_abbrev  0x0000646f      0x166 Obj-XC32-EX16_ENC28\BerkeleyTCPServerDemo.o
 .debug_abbrev  0x000065d5      0x166 Obj-XC32-EX16_ENC28\BerkeleyUDPClientDemo.o
 .debug_abbrev  0x0000673b      0x166 Obj-XC32-EX16_ENC28\GenericTCPClient.o
 .debug_abbrev  0x000068a1      0x166 Obj-XC32-EX16_ENC28\GenericTCPServer.o
 .debug_abbrev  0x00006a07      0x1ab Obj-XC32-EX16_ENC28\PingDemo.o
 .debug_abbrev  0x00006bb2      0x166 Obj-XC32-EX16_ENC28\SMTPDemo.o
 .debug_abbrev  0x00006d18      0x1fc Obj-XC32-EX16_ENC28\UARTConfig.o
 .debug_abbrev  0x00006f14      0x166 Obj-XC32-EX16_ENC28\MPFSImg2.o
 .debug_abbrev  0x0000707a       0x34 d:/program files (x86)/microchip/xc32/v1.20/bin/../lib/gcc/pic32mx/4.5.2/../../../../pic32mx/lib/size\libmchp_peripheral_32MX795F512L.a(soft_reset_lib.o)
 .debug_abbrev  0x000070ae       0x25 d:/program files (x86)/microchip/xc32/v1.20/bin/../lib/gcc/pic32mx/4.5.2/../../../../pic32mx/lib/size\libmchp_peripheral_32MX795F512L.a(pcache.o)
 .debug_abbrev  0x000070d3       0x25 d:/program files (x86)/microchip/xc32/v1.20/bin/../lib/gcc/pic32mx/4.5.2/../../../../pic32mx/lib/size\libmchp_peripheral_32MX795F512L.a(int_disable_interrupts_lib.o)
 .debug_abbrev  0x000070f8       0x25 d:/program files (x86)/microchip/xc32/v1.20/bin/../lib/gcc/pic32mx/4.5.2/../../../../pic32mx/lib/size\libmchp_peripheral_32MX795F512L.a(int_restore_interrupts_lib.o)
 .debug_abbrev  0x0000711d       0x25 d:/program files (x86)/microchip/xc32/v1.20/bin/../lib/gcc/pic32mx/4.5.2/../../../../pic32mx/lib/size\libmchp_peripheral_32MX795F512L.a(int_enable_mv_int_lib.o)
 .debug_abbrev  0x00007142       0x25 d:/program files (x86)/microchip/xc32/v1.20/bin/../lib/gcc/pic32mx/4.5.2/../../../../pic32mx/lib/size\libmchp_peripheral_32MX795F512L.a(puts_uartx_lib_legacy.o)
 .debug_abbrev  0x00007167       0x25 d:/program files (x86)/microchip/xc32/v1.20/bin/../lib/gcc/pic32mx/4.5.2/../../../../pic32mx/lib/size\libmchp_peripheral_32MX795F512L.a(int_enable_interrupts_lib.o)
 .debug_abbrev  0x0000718c      0x13d d:/program files (x86)/microchip/xc32/v1.20/bin/../lib/gcc/pic32mx/4.5.2/size\libgcc.a(_udivdi3.o)
 .debug_abbrev  0x000072c9      0x15c d:/program files (x86)/microchip/xc32/v1.20/bin/../lib/gcc/pic32mx/4.5.2/size\libgcc.a(_umoddi3.o)
 .debug_abbrev  0x00007425       0x25 d:/program files (x86)/microchip/xc32/v1.20/bin/../lib/gcc/pic32mx/4.5.2/../../../../pic32mx/lib/size\libpic32.a(default-bootstrap-exception-handler.o)
 .debug_abbrev  0x0000744a       0x25 d:/program files (x86)/microchip/xc32/v1.20/bin/../lib/gcc/pic32mx/4.5.2/../../../../pic32mx/lib/size\libpic32.a(default-on-reset.o)
 .debug_abbrev  0x0000746f       0x25 d:/program files (x86)/microchip/xc32/v1.20/bin/../lib/gcc/pic32mx/4.5.2/../../../../pic32mx/lib/size\libpic32.a(default-on-bootstrap.o)
 .debug_abbrev  0x00007494       0x25 d:/program files (x86)/microchip/xc32/v1.20/bin/../lib/gcc/pic32mx/4.5.2/../../../../pic32mx/lib/size\libpic32.a(defaultinterrupt.o)
 .debug_abbrev  0x000074b9       0x25 d:/program files (x86)/microchip/xc32/v1.20/bin/../lib/gcc/pic32mx/4.5.2/../../../../pic32mx/lib/size\libc.a(atoi.o)
 .debug_abbrev  0x000074de       0x25 d:/program files (x86)/microchip/xc32/v1.20/bin/../lib/gcc/pic32mx/4.5.2/../../../../pic32mx/lib/size\libc.a(atol.o)
 .debug_abbrev  0x00007503        0x1 d:/program files (x86)/microchip/xc32/v1.20/bin/../lib/gcc/pic32mx/4.5.2/../../../../pic32mx/lib/size\libc.a(ctype.o)
 .debug_abbrev  0x00007504       0x25 d:/program files (x86)/microchip/xc32/v1.20/bin/../lib/gcc/pic32mx/4.5.2/../../../../pic32mx/lib/size\libc.a(ltoa.o)
 .debug_abbrev  0x00007529       0x25 d:/program files (x86)/microchip/xc32/v1.20/bin/../lib/gcc/pic32mx/4.5.2/../../../../pic32mx/lib/size\libc.a(strncpy.o)

.debug_line     0x00000000     0x8cc4
 *(.debug_line)
 .debug_line    0x00000000      0x21f Obj-XC32-EX16_ENC28\Announce.o
 .debug_line    0x0000021f      0x141 Obj-XC32-EX16_ENC28\ARCFOUR.o
 .debug_line    0x00000360      0x247 Obj-XC32-EX16_ENC28\ARP.o
 .debug_line    0x000005a7      0x141 Obj-XC32-EX16_ENC28\AutoIP.o
 .debug_line    0x000006e8      0x141 Obj-XC32-EX16_ENC28\BerkeleyAPI.o
 .debug_line    0x00000829      0x141 Obj-XC32-EX16_ENC28\BigInt.o
 .debug_line    0x0000096a      0x18b Obj-XC32-EX16_ENC28\Delay.o
 .debug_line    0x00000af5      0x40a Obj-XC32-EX16_ENC28\DHCP.o
 .debug_line    0x00000eff      0x3ea Obj-XC32-EX16_ENC28\DHCPs.o
 .debug_line    0x000012e9      0x323 Obj-XC32-EX16_ENC28\DNS.o
 .debug_line    0x0000160c      0x141 Obj-XC32-EX16_ENC28\DNSs.o
 .debug_line    0x0000174d      0x141 Obj-XC32-EX16_ENC28\DynDNS.o
 .debug_line    0x0000188e      0x5a0 Obj-XC32-EX16_ENC28\ENC28J60.o
 .debug_line    0x00001e2e      0x141 Obj-XC32-EX16_ENC28\ENCX24J600.o
 .debug_line    0x00001f6f      0x141 Obj-XC32-EX16_ENC28\FileSystem.o
 .debug_line    0x000020b0      0x141 Obj-XC32-EX16_ENC28\FTP.o
 .debug_line    0x000021f1      0x141 Obj-XC32-EX16_ENC28\Hashes.o
 .debug_line    0x00002332      0x3e2 Obj-XC32-EX16_ENC28\Helpers.o
 .debug_line    0x00002714      0x6ce Obj-XC32-EX16_ENC28\HTTP2.o
 .debug_line    0x00002de2      0x246 Obj-XC32-EX16_ENC28\ICMP.o
 .debug_line    0x00003028      0x1fb Obj-XC32-EX16_ENC28\IP.o
 .debug_line    0x00003223      0x230 Obj-XC32-EX16_ENC28\LCDBlocking.o
 .debug_line    0x00003453      0x3b8 Obj-XC32-EX16_ENC28\MPFS2.o
 .debug_line    0x0000380b      0x252 Obj-XC32-EX16_ENC28\NBNS.o
 .debug_line    0x00003a5d      0x141 Obj-XC32-EX16_ENC28\Random.o
 .debug_line    0x00003b9e      0x1e6 Obj-XC32-EX16_ENC28\Reboot.o
 .debug_line    0x00003d84      0x141 Obj-XC32-EX16_ENC28\RSA.o
 .debug_line    0x00003ec5      0x141 Obj-XC32-EX16_ENC28\SMTP.o
 .debug_line    0x00004006      0x141 Obj-XC32-EX16_ENC28\SNMP.o
 .debug_line    0x00004147      0x141 Obj-XC32-EX16_ENC28\SNMPv3.o
 .debug_line    0x00004288      0x141 Obj-XC32-EX16_ENC28\SNMPv3USM.o
 .debug_line    0x000043c9      0x210 Obj-XC32-EX16_ENC28\SNTP.o
 .debug_line    0x000045d9      0x2d8 Obj-XC32-EX16_ENC28\SPIEEPROM.o
 .debug_line    0x000048b1      0x141 Obj-XC32-EX16_ENC28\SPIFlash.o
 .debug_line    0x000049f2      0x141 Obj-XC32-EX16_ENC28\SPIRAM.o
 .debug_line    0x00004b33      0x141 Obj-XC32-EX16_ENC28\SSL.o
 .debug_line    0x00004c74      0x22a Obj-XC32-EX16_ENC28\StackTsk.o
 .debug_line    0x00004e9e      0xb6f Obj-XC32-EX16_ENC28\TCP.o
 .debug_line    0x00005a0d      0x249 Obj-XC32-EX16_ENC28\TCPPerformanceTest.o
 .debug_line    0x00005c56      0x141 Obj-XC32-EX16_ENC28\Telnet.o
 .debug_line    0x00005d97      0x141 Obj-XC32-EX16_ENC28\TFTPc.o
 .debug_line    0x00005ed8      0x1d6 Obj-XC32-EX16_ENC28\Tick.o
 .debug_line    0x000060ae      0x141 Obj-XC32-EX16_ENC28\UART2TCPBridge.o
 .debug_line    0x000061ef      0x18a Obj-XC32-EX16_ENC28\UART.o
 .debug_line    0x00006379      0x37f Obj-XC32-EX16_ENC28\UDP.o
 .debug_line    0x000066f8      0x141 Obj-XC32-EX16_ENC28\UDPPerformanceTest.o
 .debug_line    0x00006839      0x141 Obj-XC32-EX16_ENC28\ZeroconfHelper.o
 .debug_line    0x0000697a      0x141 Obj-XC32-EX16_ENC28\ZeroconfLinkLocal.o
 .debug_line    0x00006abb      0x141 Obj-XC32-EX16_ENC28\ZeroconfMulticastDNS.o
 .debug_line    0x00006bfc      0x48b Obj-XC32-EX16_ENC28\CustomHTTPApp.o
 .debug_line    0x00007087      0x141 Obj-XC32-EX16_ENC28\CustomSNMPApp.o
 .debug_line    0x000071c8      0x141 Obj-XC32-EX16_ENC28\CustomSSLCert.o
 .debug_line    0x00007309      0x374 Obj-XC32-EX16_ENC28\MainDemo.o
 .debug_line    0x0000767d      0x141 Obj-XC32-EX16_ENC28\BerkeleyTCPClientDemo.o
 .debug_line    0x000077be      0x141 Obj-XC32-EX16_ENC28\BerkeleyTCPServerDemo.o
 .debug_line    0x000078ff      0x141 Obj-XC32-EX16_ENC28\BerkeleyUDPClientDemo.o
 .debug_line    0x00007a40      0x141 Obj-XC32-EX16_ENC28\GenericTCPClient.o
 .debug_line    0x00007b81      0x141 Obj-XC32-EX16_ENC28\GenericTCPServer.o
 .debug_line    0x00007cc2      0x1c9 Obj-XC32-EX16_ENC28\PingDemo.o
 .debug_line    0x00007e8b      0x141 Obj-XC32-EX16_ENC28\SMTPDemo.o
 .debug_line    0x00007fcc      0x265 Obj-XC32-EX16_ENC28\UARTConfig.o
 .debug_line    0x00008231      0x141 Obj-XC32-EX16_ENC28\MPFSImg2.o
 .debug_line    0x00008372       0xbf d:/program files (x86)/microchip/xc32/v1.20/bin/../lib/gcc/pic32mx/4.5.2/../../../../pic32mx/lib/size\libmchp_peripheral_32MX795F512L.a(soft_reset_lib.o)
 .debug_line    0x00008431       0x62 d:/program files (x86)/microchip/xc32/v1.20/bin/../lib/gcc/pic32mx/4.5.2/../../../../pic32mx/lib/size\libmchp_peripheral_32MX795F512L.a(pcache.o)
 .debug_line    0x00008493       0x73 d:/program files (x86)/microchip/xc32/v1.20/bin/../lib/gcc/pic32mx/4.5.2/../../../../pic32mx/lib/size\libmchp_peripheral_32MX795F512L.a(int_disable_interrupts_lib.o)
 .debug_line    0x00008506       0x73 d:/program files (x86)/microchip/xc32/v1.20/bin/../lib/gcc/pic32mx/4.5.2/../../../../pic32mx/lib/size\libmchp_peripheral_32MX795F512L.a(int_restore_interrupts_lib.o)
 .debug_line    0x00008579       0x6e d:/program files (x86)/microchip/xc32/v1.20/bin/../lib/gcc/pic32mx/4.5.2/../../../../pic32mx/lib/size\libmchp_peripheral_32MX795F512L.a(int_enable_mv_int_lib.o)
 .debug_line    0x000085e7       0x6f d:/program files (x86)/microchip/xc32/v1.20/bin/../lib/gcc/pic32mx/4.5.2/../../../../pic32mx/lib/size\libmchp_peripheral_32MX795F512L.a(puts_uartx_lib_legacy.o)
 .debug_line    0x00008656       0x72 d:/program files (x86)/microchip/xc32/v1.20/bin/../lib/gcc/pic32mx/4.5.2/../../../../pic32mx/lib/size\libmchp_peripheral_32MX795F512L.a(int_enable_interrupts_lib.o)
 .debug_line    0x000086c8      0x119 d:/program files (x86)/microchip/xc32/v1.20/bin/../lib/gcc/pic32mx/4.5.2/size\libgcc.a(_udivdi3.o)
 .debug_line    0x000087e1      0x11f d:/program files (x86)/microchip/xc32/v1.20/bin/../lib/gcc/pic32mx/4.5.2/size\libgcc.a(_umoddi3.o)
 .debug_line    0x00008900       0x8b d:/program files (x86)/microchip/xc32/v1.20/bin/../lib/gcc/pic32mx/4.5.2/../../../../pic32mx/lib/size\libpic32.a(default-bootstrap-exception-handler.o)
 .debug_line    0x0000898b       0x78 d:/program files (x86)/microchip/xc32/v1.20/bin/../lib/gcc/pic32mx/4.5.2/../../../../pic32mx/lib/size\libpic32.a(default-on-reset.o)
 .debug_line    0x00008a03       0x7c d:/program files (x86)/microchip/xc32/v1.20/bin/../lib/gcc/pic32mx/4.5.2/../../../../pic32mx/lib/size\libpic32.a(default-on-bootstrap.o)
 .debug_line    0x00008a7f       0x8a d:/program files (x86)/microchip/xc32/v1.20/bin/../lib/gcc/pic32mx/4.5.2/../../../../pic32mx/lib/size\libpic32.a(defaultinterrupt.o)
 .debug_line    0x00008b09       0x6e d:/program files (x86)/microchip/xc32/v1.20/bin/../lib/gcc/pic32mx/4.5.2/../../../../pic32mx/lib/size\libc.a(atoi.o)
 .debug_line    0x00008b77       0x6e d:/program files (x86)/microchip/xc32/v1.20/bin/../lib/gcc/pic32mx/4.5.2/../../../../pic32mx/lib/size\libc.a(atol.o)
 .debug_line    0x00008be5        0x0 d:/program files (x86)/microchip/xc32/v1.20/bin/../lib/gcc/pic32mx/4.5.2/../../../../pic32mx/lib/size\libc.a(ctype.o)
 .debug_line    0x00008be5       0x6e d:/program files (x86)/microchip/xc32/v1.20/bin/../lib/gcc/pic32mx/4.5.2/../../../../pic32mx/lib/size\libc.a(ltoa.o)
 .debug_line    0x00008c53       0x71 d:/program files (x86)/microchip/xc32/v1.20/bin/../lib/gcc/pic32mx/4.5.2/../../../../pic32mx/lib/size\libc.a(strncpy.o)

.debug_frame    0x00000000     0x2328
 *(.debug_frame)
 .debug_frame   0x00000000       0x48 Obj-XC32-EX16_ENC28\Announce.o
 .debug_frame   0x00000048       0xd4 Obj-XC32-EX16_ENC28\ARP.o
 .debug_frame   0x0000011c       0x48 Obj-XC32-EX16_ENC28\Delay.o
 .debug_frame   0x00000164      0x154 Obj-XC32-EX16_ENC28\DHCP.o
 .debug_frame   0x000002b8      0x198 Obj-XC32-EX16_ENC28\DHCPs.o
 .debug_frame   0x00000450       0xb8 Obj-XC32-EX16_ENC28\DNS.o
 .debug_frame   0x00000508      0x398 Obj-XC32-EX16_ENC28\ENC28J60.o
 .debug_frame   0x000008a0      0x1f0 Obj-XC32-EX16_ENC28\Helpers.o
 .debug_frame   0x00000a90      0x224 Obj-XC32-EX16_ENC28\HTTP2.o
 .debug_frame   0x00000cb4       0xb8 Obj-XC32-EX16_ENC28\ICMP.o
 .debug_frame   0x00000d6c       0x80 Obj-XC32-EX16_ENC28\IP.o
 .debug_frame   0x00000dec       0x80 Obj-XC32-EX16_ENC28\LCDBlocking.o
 .debug_frame   0x00000e6c      0x29c Obj-XC32-EX16_ENC28\MPFS2.o
 .debug_frame   0x00001108       0x64 Obj-XC32-EX16_ENC28\NBNS.o
 .debug_frame   0x0000116c       0x2c Obj-XC32-EX16_ENC28\Reboot.o
 .debug_frame   0x00001198       0x48 Obj-XC32-EX16_ENC28\SNTP.o
 .debug_frame   0x000011e0      0x144 Obj-XC32-EX16_ENC28\SPIEEPROM.o
 .debug_frame   0x00001324       0x64 Obj-XC32-EX16_ENC28\StackTsk.o
 .debug_frame   0x00001388      0x3dc Obj-XC32-EX16_ENC28\TCP.o
 .debug_frame   0x00001764       0x80 Obj-XC32-EX16_ENC28\TCPPerformanceTest.o
 .debug_frame   0x000017e4       0xd8 Obj-XC32-EX16_ENC28\Tick.o
 .debug_frame   0x000018bc       0x2c Obj-XC32-EX16_ENC28\UART.o
 .debug_frame   0x000018e8      0x20c Obj-XC32-EX16_ENC28\UDP.o
 .debug_frame   0x00001af4      0x478 Obj-XC32-EX16_ENC28\CustomHTTPApp.o
 .debug_frame   0x00001f6c       0xdc Obj-XC32-EX16_ENC28\MainDemo.o
 .debug_frame   0x00002048       0x30 Obj-XC32-EX16_ENC28\PingDemo.o
 .debug_frame   0x00002078       0x48 Obj-XC32-EX16_ENC28\UARTConfig.o
 .debug_frame   0x000020c0       0x28 d:/program files (x86)/microchip/xc32/v1.20/bin/../lib/gcc/pic32mx/4.5.2/../../../../pic32mx/lib/size\libmchp_peripheral_32MX795F512L.a(soft_reset_lib.o)
 .debug_frame   0x000020e8       0x30 d:/program files (x86)/microchip/xc32/v1.20/bin/../lib/gcc/pic32mx/4.5.2/../../../../pic32mx/lib/size\libmchp_peripheral_32MX795F512L.a(pcache.o)
 .debug_frame   0x00002118       0x20 d:/program files (x86)/microchip/xc32/v1.20/bin/../lib/gcc/pic32mx/4.5.2/../../../../pic32mx/lib/size\libmchp_peripheral_32MX795F512L.a(int_disable_interrupts_lib.o)
 .debug_frame   0x00002138       0x20 d:/program files (x86)/microchip/xc32/v1.20/bin/../lib/gcc/pic32mx/4.5.2/../../../../pic32mx/lib/size\libmchp_peripheral_32MX795F512L.a(int_restore_interrupts_lib.o)
 .debug_frame   0x00002158       0x28 d:/program files (x86)/microchip/xc32/v1.20/bin/../lib/gcc/pic32mx/4.5.2/../../../../pic32mx/lib/size\libmchp_peripheral_32MX795F512L.a(int_enable_mv_int_lib.o)
 .debug_frame   0x00002180       0x30 d:/program files (x86)/microchip/xc32/v1.20/bin/../lib/gcc/pic32mx/4.5.2/../../../../pic32mx/lib/size\libmchp_peripheral_32MX795F512L.a(puts_uartx_lib_legacy.o)
 .debug_frame   0x000021b0       0x20 d:/program files (x86)/microchip/xc32/v1.20/bin/../lib/gcc/pic32mx/4.5.2/../../../../pic32mx/lib/size\libmchp_peripheral_32MX795F512L.a(int_enable_interrupts_lib.o)
 .debug_frame   0x000021d0       0x20 d:/program files (x86)/microchip/xc32/v1.20/bin/../lib/gcc/pic32mx/4.5.2/size\libgcc.a(_udivdi3.o)
 .debug_frame   0x000021f0       0x20 d:/program files (x86)/microchip/xc32/v1.20/bin/../lib/gcc/pic32mx/4.5.2/size\libgcc.a(_umoddi3.o)
 .debug_frame   0x00002210       0x20 d:/program files (x86)/microchip/xc32/v1.20/bin/../lib/gcc/pic32mx/4.5.2/../../../../pic32mx/lib/size\libpic32.a(default-bootstrap-exception-handler.o)
 .debug_frame   0x00002230       0x20 d:/program files (x86)/microchip/xc32/v1.20/bin/../lib/gcc/pic32mx/4.5.2/../../../../pic32mx/lib/size\libpic32.a(default-on-reset.o)
 .debug_frame   0x00002250       0x20 d:/program files (x86)/microchip/xc32/v1.20/bin/../lib/gcc/pic32mx/4.5.2/../../../../pic32mx/lib/size\libpic32.a(default-on-bootstrap.o)
 .debug_frame   0x00002270       0x20 d:/program files (x86)/microchip/xc32/v1.20/bin/../lib/gcc/pic32mx/4.5.2/../../../../pic32mx/lib/size\libpic32.a(defaultinterrupt.o)
 .debug_frame   0x00002290       0x20 d:/program files (x86)/microchip/xc32/v1.20/bin/../lib/gcc/pic32mx/4.5.2/../../../../pic32mx/lib/size\libc.a(atoi.o)
 .debug_frame   0x000022b0       0x20 d:/program files (x86)/microchip/xc32/v1.20/bin/../lib/gcc/pic32mx/4.5.2/../../../../pic32mx/lib/size\libc.a(atol.o)
 .debug_frame   0x000022d0       0x38 d:/program files (x86)/microchip/xc32/v1.20/bin/../lib/gcc/pic32mx/4.5.2/../../../../pic32mx/lib/size\libc.a(ltoa.o)
 .debug_frame   0x00002308       0x20 d:/program files (x86)/microchip/xc32/v1.20/bin/../lib/gcc/pic32mx/4.5.2/../../../../pic32mx/lib/size\libc.a(strncpy.o)

.debug_str      0x00000000     0x4f18
 *(.debug_str)
 .debug_str     0x00000000      0x15b Obj-XC32-EX16_ENC28\Announce.o
 .debug_str     0x0000015b      0x12f Obj-XC32-EX16_ENC28\ARCFOUR.o
 .debug_str     0x0000028a      0x147 Obj-XC32-EX16_ENC28\ARP.o
 .debug_str     0x000003d1      0x12f Obj-XC32-EX16_ENC28\AutoIP.o
 .debug_str     0x00000500      0x12f Obj-XC32-EX16_ENC28\BerkeleyAPI.o
 .debug_str     0x0000062f      0x12f Obj-XC32-EX16_ENC28\BigInt.o
 .debug_str     0x0000075e      0x12f Obj-XC32-EX16_ENC28\Delay.o
 .debug_str     0x0000088d      0x177 Obj-XC32-EX16_ENC28\DHCP.o
 .debug_str     0x00000a04      0x181 Obj-XC32-EX16_ENC28\DHCPs.o
 .debug_str     0x00000b85      0x139 Obj-XC32-EX16_ENC28\DNS.o
 .debug_str     0x00000cbe      0x12f Obj-XC32-EX16_ENC28\DNSs.o
 .debug_str     0x00000ded      0x12f Obj-XC32-EX16_ENC28\DynDNS.o
 .debug_str     0x00000f1c      0x1e5 Obj-XC32-EX16_ENC28\ENC28J60.o
 .debug_str     0x00001101      0x12f Obj-XC32-EX16_ENC28\ENCX24J600.o
 .debug_str     0x00001230      0x12f Obj-XC32-EX16_ENC28\FileSystem.o
 .debug_str     0x0000135f      0x12f Obj-XC32-EX16_ENC28\FTP.o
 .debug_str     0x0000148e      0x12f Obj-XC32-EX16_ENC28\Hashes.o
 .debug_str     0x000015bd      0x142 Obj-XC32-EX16_ENC28\Helpers.o
 .debug_str     0x000016ff      0x15b Obj-XC32-EX16_ENC28\HTTP2.o
 .debug_str     0x0000185a      0x12f Obj-XC32-EX16_ENC28\ICMP.o
 .debug_str     0x00001989      0x142 Obj-XC32-EX16_ENC28\IP.o
 .debug_str     0x00001acb      0x155 Obj-XC32-EX16_ENC28\LCDBlocking.o
 .debug_str     0x00001c20      0x13e Obj-XC32-EX16_ENC28\MPFS2.o
 .debug_str     0x00001d5e      0x152 Obj-XC32-EX16_ENC28\NBNS.o
 .debug_str     0x00001eb0      0x12f Obj-XC32-EX16_ENC28\Random.o
 .debug_str     0x00001fdf      0x14d Obj-XC32-EX16_ENC28\Reboot.o
 .debug_str     0x0000212c      0x12f Obj-XC32-EX16_ENC28\RSA.o
 .debug_str     0x0000225b      0x12f Obj-XC32-EX16_ENC28\SMTP.o
 .debug_str     0x0000238a      0x12f Obj-XC32-EX16_ENC28\SNMP.o
 .debug_str     0x000024b9      0x12f Obj-XC32-EX16_ENC28\SNMPv3.o
 .debug_str     0x000025e8      0x12f Obj-XC32-EX16_ENC28\SNMPv3USM.o
 .debug_str     0x00002717      0x12f Obj-XC32-EX16_ENC28\SNTP.o
 .debug_str     0x00002846      0x197 Obj-XC32-EX16_ENC28\SPIEEPROM.o
 .debug_str     0x000029dd      0x12f Obj-XC32-EX16_ENC28\SPIFlash.o
 .debug_str     0x00002b0c      0x12f Obj-XC32-EX16_ENC28\SPIRAM.o
 .debug_str     0x00002c3b      0x12f Obj-XC32-EX16_ENC28\SSL.o
 .debug_str     0x00002d6a      0x144 Obj-XC32-EX16_ENC28\StackTsk.o
 .debug_str     0x00002eae      0x1fa Obj-XC32-EX16_ENC28\TCP.o
 .debug_str     0x000030a8      0x144 Obj-XC32-EX16_ENC28\TCPPerformanceTest.o
 .debug_str     0x000031ec      0x12f Obj-XC32-EX16_ENC28\Telnet.o
 .debug_str     0x0000331b      0x12f Obj-XC32-EX16_ENC28\TFTPc.o
 .debug_str     0x0000344a      0x14b Obj-XC32-EX16_ENC28\Tick.o
 .debug_str     0x00003595      0x12f Obj-XC32-EX16_ENC28\UART2TCPBridge.o
 .debug_str     0x000036c4      0x139 Obj-XC32-EX16_ENC28\UART.o
 .debug_str     0x000037fd      0x1ae Obj-XC32-EX16_ENC28\UDP.o
 .debug_str     0x000039ab      0x12f Obj-XC32-EX16_ENC28\UDPPerformanceTest.o
 .debug_str     0x00003ada      0x12f Obj-XC32-EX16_ENC28\ZeroconfHelper.o
 .debug_str     0x00003c09      0x12f Obj-XC32-EX16_ENC28\ZeroconfLinkLocal.o
 .debug_str     0x00003d38      0x12f Obj-XC32-EX16_ENC28\ZeroconfMulticastDNS.o
 .debug_str     0x00003e67      0x19a Obj-XC32-EX16_ENC28\CustomHTTPApp.o
 .debug_str     0x00004001      0x12f Obj-XC32-EX16_ENC28\CustomSNMPApp.o
 .debug_str     0x00004130      0x12f Obj-XC32-EX16_ENC28\CustomSSLCert.o
 .debug_str     0x0000425f      0x1eb Obj-XC32-EX16_ENC28\MainDemo.o
 .debug_str     0x0000444a      0x12f Obj-XC32-EX16_ENC28\BerkeleyTCPClientDemo.o
 .debug_str     0x00004579      0x12f Obj-XC32-EX16_ENC28\BerkeleyTCPServerDemo.o
 .debug_str     0x000046a8      0x12f Obj-XC32-EX16_ENC28\BerkeleyUDPClientDemo.o
 .debug_str     0x000047d7      0x12f Obj-XC32-EX16_ENC28\GenericTCPClient.o
 .debug_str     0x00004906      0x12f Obj-XC32-EX16_ENC28\GenericTCPServer.o
 .debug_str     0x00004a35      0x139 Obj-XC32-EX16_ENC28\PingDemo.o
 .debug_str     0x00004b6e      0x12f Obj-XC32-EX16_ENC28\SMTPDemo.o
 .debug_str     0x00004c9d      0x14c Obj-XC32-EX16_ENC28\UARTConfig.o
 .debug_str     0x00004de9      0x12f Obj-XC32-EX16_ENC28\MPFSImg2.o
 .debug_str     0x00004f18        0x0 d:/program files (x86)/microchip/xc32/v1.20/bin/../lib/gcc/pic32mx/4.5.2/../../../../pic32mx/lib/size\libmchp_peripheral_32MX795F512L.a(soft_reset_lib.o)
 .debug_str     0x00004f18        0x0 d:/program files (x86)/microchip/xc32/v1.20/bin/../lib/gcc/pic32mx/4.5.2/../../../../pic32mx/lib/size\libmchp_peripheral_32MX795F512L.a(pcache.o)
 .debug_str     0x00004f18        0x0 d:/program files (x86)/microchip/xc32/v1.20/bin/../lib/gcc/pic32mx/4.5.2/../../../../pic32mx/lib/size\libmchp_peripheral_32MX795F512L.a(int_disable_interrupts_lib.o)
 .debug_str     0x00004f18        0x0 d:/program files (x86)/microchip/xc32/v1.20/bin/../lib/gcc/pic32mx/4.5.2/../../../../pic32mx/lib/size\libmchp_peripheral_32MX795F512L.a(int_restore_interrupts_lib.o)
 .debug_str     0x00004f18        0x0 d:/program files (x86)/microchip/xc32/v1.20/bin/../lib/gcc/pic32mx/4.5.2/../../../../pic32mx/lib/size\libmchp_peripheral_32MX795F512L.a(int_enable_mv_int_lib.o)
 .debug_str     0x00004f18        0x0 d:/program files (x86)/microchip/xc32/v1.20/bin/../lib/gcc/pic32mx/4.5.2/../../../../pic32mx/lib/size\libmchp_peripheral_32MX795F512L.a(puts_uartx_lib_legacy.o)
 .debug_str     0x00004f18        0x0 d:/program files (x86)/microchip/xc32/v1.20/bin/../lib/gcc/pic32mx/4.5.2/../../../../pic32mx/lib/size\libmchp_peripheral_32MX795F512L.a(int_enable_interrupts_lib.o)
 .debug_str     0x00004f18        0x0 d:/program files (x86)/microchip/xc32/v1.20/bin/../lib/gcc/pic32mx/4.5.2/size\libgcc.a(_udivdi3.o)
 .debug_str     0x00004f18        0x0 d:/program files (x86)/microchip/xc32/v1.20/bin/../lib/gcc/pic32mx/4.5.2/size\libgcc.a(_umoddi3.o)
 .debug_str     0x00004f18        0x0 d:/program files (x86)/microchip/xc32/v1.20/bin/../lib/gcc/pic32mx/4.5.2/../../../../pic32mx/lib/size\libpic32.a(default-bootstrap-exception-handler.o)
 .debug_str     0x00004f18        0x0 d:/program files (x86)/microchip/xc32/v1.20/bin/../lib/gcc/pic32mx/4.5.2/../../../../pic32mx/lib/size\libpic32.a(default-on-reset.o)
 .debug_str     0x00004f18        0x0 d:/program files (x86)/microchip/xc32/v1.20/bin/../lib/gcc/pic32mx/4.5.2/../../../../pic32mx/lib/size\libpic32.a(default-on-bootstrap.o)
 .debug_str     0x00004f18        0x0 d:/program files (x86)/microchip/xc32/v1.20/bin/../lib/gcc/pic32mx/4.5.2/../../../../pic32mx/lib/size\libpic32.a(defaultinterrupt.o)
 .debug_str     0x00004f18        0x0 d:/program files (x86)/microchip/xc32/v1.20/bin/../lib/gcc/pic32mx/4.5.2/../../../../pic32mx/lib/size\libc.a(atoi.o)
 .debug_str     0x00004f18        0x0 d:/program files (x86)/microchip/xc32/v1.20/bin/../lib/gcc/pic32mx/4.5.2/../../../../pic32mx/lib/size\libc.a(atol.o)
 .debug_str     0x00004f18        0x0 d:/program files (x86)/microchip/xc32/v1.20/bin/../lib/gcc/pic32mx/4.5.2/../../../../pic32mx/lib/size\libc.a(ctype.o)
 .debug_str     0x00004f18        0x0 d:/program files (x86)/microchip/xc32/v1.20/bin/../lib/gcc/pic32mx/4.5.2/../../../../pic32mx/lib/size\libc.a(ltoa.o)
 .debug_str     0x00004f18        0x0 d:/program files (x86)/microchip/xc32/v1.20/bin/../lib/gcc/pic32mx/4.5.2/../../../../pic32mx/lib/size\libc.a(strncpy.o)

.debug_loc      0x00000000     0x14da
 *(.debug_loc)
 .debug_loc     0x00000000      0xa67 d:/program files (x86)/microchip/xc32/v1.20/bin/../lib/gcc/pic32mx/4.5.2/size\libgcc.a(_udivdi3.o)
 .debug_loc     0x00000a67      0xa73 d:/program files (x86)/microchip/xc32/v1.20/bin/../lib/gcc/pic32mx/4.5.2/size\libgcc.a(_umoddi3.o)

.debug_macinfo
 *(.debug_macinfo)

.debug_weaknames
 *(.debug_weaknames)

.debug_funcnames
 *(.debug_funcnames)

.debug_typenames
 *(.debug_typenames)

.debug_varnames
 *(.debug_varnames)

.debug_pubtypes
                0x00000000     0x4ad7
 *(.debug_pubtypes)
 .debug_pubtypes
                0x00000000      0x19a Obj-XC32-EX16_ENC28\Announce.o
 .debug_pubtypes
                0x0000019a       0xe7 Obj-XC32-EX16_ENC28\ARCFOUR.o
 .debug_pubtypes
                0x00000281      0x17e Obj-XC32-EX16_ENC28\ARP.o
 .debug_pubtypes
                0x000003ff       0xe7 Obj-XC32-EX16_ENC28\AutoIP.o
 .debug_pubtypes
                0x000004e6       0xe7 Obj-XC32-EX16_ENC28\BerkeleyAPI.o
 .debug_pubtypes
                0x000005cd       0xe7 Obj-XC32-EX16_ENC28\BigInt.o
 .debug_pubtypes
                0x000006b4       0xfa Obj-XC32-EX16_ENC28\Delay.o
 .debug_pubtypes
                0x000007ae      0x1d8 Obj-XC32-EX16_ENC28\DHCP.o
 .debug_pubtypes
                0x00000986      0x1f7 Obj-XC32-EX16_ENC28\DHCPs.o
 .debug_pubtypes
                0x00000b7d      0x1ad Obj-XC32-EX16_ENC28\DNS.o
 .debug_pubtypes
                0x00000d2a       0xe7 Obj-XC32-EX16_ENC28\DNSs.o
 .debug_pubtypes
                0x00000e11       0xe7 Obj-XC32-EX16_ENC28\DynDNS.o
 .debug_pubtypes
                0x00000ef8      0x201 Obj-XC32-EX16_ENC28\ENC28J60.o
 .debug_pubtypes
                0x000010f9       0xe7 Obj-XC32-EX16_ENC28\ENCX24J600.o
 .debug_pubtypes
                0x000011e0       0xe7 Obj-XC32-EX16_ENC28\FileSystem.o
 .debug_pubtypes
                0x000012c7       0xe7 Obj-XC32-EX16_ENC28\FTP.o
 .debug_pubtypes
                0x000013ae       0xe7 Obj-XC32-EX16_ENC28\Hashes.o
 .debug_pubtypes
                0x00001495      0x167 Obj-XC32-EX16_ENC28\Helpers.o
 .debug_pubtypes
                0x000015fc      0x1d7 Obj-XC32-EX16_ENC28\HTTP2.o
 .debug_pubtypes
                0x000017d3      0x16f Obj-XC32-EX16_ENC28\ICMP.o
 .debug_pubtypes
                0x00001942      0x18c Obj-XC32-EX16_ENC28\IP.o
 .debug_pubtypes
                0x00001ace      0x136 Obj-XC32-EX16_ENC28\LCDBlocking.o
 .debug_pubtypes
                0x00001c04      0x168 Obj-XC32-EX16_ENC28\MPFS2.o
 .debug_pubtypes
                0x00001d6c      0x1bb Obj-XC32-EX16_ENC28\NBNS.o
 .debug_pubtypes
                0x00001f27       0xe7 Obj-XC32-EX16_ENC28\Random.o
 .debug_pubtypes
                0x0000200e      0x17c Obj-XC32-EX16_ENC28\Reboot.o
 .debug_pubtypes
                0x0000218a       0xe7 Obj-XC32-EX16_ENC28\RSA.o
 .debug_pubtypes
                0x00002271       0xe7 Obj-XC32-EX16_ENC28\SMTP.o
 .debug_pubtypes
                0x00002358       0xe7 Obj-XC32-EX16_ENC28\SNMP.o
 .debug_pubtypes
                0x0000243f       0xe7 Obj-XC32-EX16_ENC28\SNMPv3.o
 .debug_pubtypes
                0x00002526       0xe7 Obj-XC32-EX16_ENC28\SNMPv3USM.o
 .debug_pubtypes
                0x0000260d      0x13e Obj-XC32-EX16_ENC28\SNTP.o
 .debug_pubtypes
                0x0000274b      0x1ab Obj-XC32-EX16_ENC28\SPIEEPROM.o
 .debug_pubtypes
                0x000028f6       0xe7 Obj-XC32-EX16_ENC28\SPIFlash.o
 .debug_pubtypes
                0x000029dd       0xe7 Obj-XC32-EX16_ENC28\SPIRAM.o
 .debug_pubtypes
                0x00002ac4       0xe7 Obj-XC32-EX16_ENC28\SSL.o
 .debug_pubtypes
                0x00002bab      0x17c Obj-XC32-EX16_ENC28\StackTsk.o
 .debug_pubtypes
                0x00002d27      0x224 Obj-XC32-EX16_ENC28\TCP.o
 .debug_pubtypes
                0x00002f4b      0x137 Obj-XC32-EX16_ENC28\TCPPerformanceTest.o
 .debug_pubtypes
                0x00003082       0xe7 Obj-XC32-EX16_ENC28\Telnet.o
 .debug_pubtypes
                0x00003169       0xe7 Obj-XC32-EX16_ENC28\TFTPc.o
 .debug_pubtypes
                0x00003250      0x144 Obj-XC32-EX16_ENC28\Tick.o
 .debug_pubtypes
                0x00003394       0xe7 Obj-XC32-EX16_ENC28\UART2TCPBridge.o
 .debug_pubtypes
                0x0000347b      0x102 Obj-XC32-EX16_ENC28\UART.o
 .debug_pubtypes
                0x0000357d      0x1eb Obj-XC32-EX16_ENC28\UDP.o
 .debug_pubtypes
                0x00003768       0xe7 Obj-XC32-EX16_ENC28\UDPPerformanceTest.o
 .debug_pubtypes
                0x0000384f       0xe7 Obj-XC32-EX16_ENC28\ZeroconfHelper.o
 .debug_pubtypes
                0x00003936       0xe7 Obj-XC32-EX16_ENC28\ZeroconfLinkLocal.o
 .debug_pubtypes
                0x00003a1d       0xe7 Obj-XC32-EX16_ENC28\ZeroconfMulticastDNS.o
 .debug_pubtypes
                0x00003b04      0x214 Obj-XC32-EX16_ENC28\CustomHTTPApp.o
 .debug_pubtypes
                0x00003d18       0xe7 Obj-XC32-EX16_ENC28\CustomSNMPApp.o
 .debug_pubtypes
                0x00003dff       0xe7 Obj-XC32-EX16_ENC28\CustomSSLCert.o
 .debug_pubtypes
                0x00003ee6      0x228 Obj-XC32-EX16_ENC28\MainDemo.o
 .debug_pubtypes
                0x0000410e       0xe7 Obj-XC32-EX16_ENC28\BerkeleyTCPClientDemo.o
 .debug_pubtypes
                0x000041f5       0xe7 Obj-XC32-EX16_ENC28\BerkeleyTCPServerDemo.o
 .debug_pubtypes
                0x000042dc       0xe7 Obj-XC32-EX16_ENC28\BerkeleyUDPClientDemo.o
 .debug_pubtypes
                0x000043c3       0xe7 Obj-XC32-EX16_ENC28\GenericTCPClient.o
 .debug_pubtypes
                0x000044aa       0xe7 Obj-XC32-EX16_ENC28\GenericTCPServer.o
 .debug_pubtypes
                0x00004591      0x128 Obj-XC32-EX16_ENC28\PingDemo.o
 .debug_pubtypes
                0x000046b9       0xe7 Obj-XC32-EX16_ENC28\SMTPDemo.o
 .debug_pubtypes
                0x000047a0      0x19e Obj-XC32-EX16_ENC28\UARTConfig.o
 .debug_pubtypes
                0x0000493e       0xe7 Obj-XC32-EX16_ENC28\MPFSImg2.o
 .debug_pubtypes
                0x00004a25       0x59 d:/program files (x86)/microchip/xc32/v1.20/bin/../lib/gcc/pic32mx/4.5.2/size\libgcc.a(_udivdi3.o)
 .debug_pubtypes
                0x00004a7e       0x59 d:/program files (x86)/microchip/xc32/v1.20/bin/../lib/gcc/pic32mx/4.5.2/size\libgcc.a(_umoddi3.o)

.debug_ranges   0x00000000      0x320
 *(.debug_ranges)
 .debug_ranges  0x00000000       0x18 Obj-XC32-EX16_ENC28\DHCPs.o
 .debug_ranges  0x00000018       0x18 Obj-XC32-EX16_ENC28\ENC28J60.o
 .debug_ranges  0x00000030       0x18 Obj-XC32-EX16_ENC28\TCP.o
 .debug_ranges  0x00000048       0x18 Obj-XC32-EX16_ENC28\UDP.o
 .debug_ranges  0x00000060       0x30 Obj-XC32-EX16_ENC28\MainDemo.o
 .debug_ranges  0x00000090       0x10 d:/program files (x86)/microchip/xc32/v1.20/bin/../lib/gcc/pic32mx/4.5.2/../../../../pic32mx/lib/size\libmchp_peripheral_32MX795F512L.a(soft_reset_lib.o)
 .debug_ranges  0x000000a0       0x18 d:/program files (x86)/microchip/xc32/v1.20/bin/../lib/gcc/pic32mx/4.5.2/../../../../pic32mx/lib/size\libmchp_peripheral_32MX795F512L.a(pcache.o)
 .debug_ranges  0x000000b8       0x10 d:/program files (x86)/microchip/xc32/v1.20/bin/../lib/gcc/pic32mx/4.5.2/../../../../pic32mx/lib/size\libmchp_peripheral_32MX795F512L.a(int_disable_interrupts_lib.o)
 .debug_ranges  0x000000c8       0x10 d:/program files (x86)/microchip/xc32/v1.20/bin/../lib/gcc/pic32mx/4.5.2/../../../../pic32mx/lib/size\libmchp_peripheral_32MX795F512L.a(int_restore_interrupts_lib.o)
 .debug_ranges  0x000000d8       0x10 d:/program files (x86)/microchip/xc32/v1.20/bin/../lib/gcc/pic32mx/4.5.2/../../../../pic32mx/lib/size\libmchp_peripheral_32MX795F512L.a(int_enable_mv_int_lib.o)
 .debug_ranges  0x000000e8       0x18 d:/program files (x86)/microchip/xc32/v1.20/bin/../lib/gcc/pic32mx/4.5.2/../../../../pic32mx/lib/size\libmchp_peripheral_32MX795F512L.a(puts_uartx_lib_legacy.o)
 .debug_ranges  0x00000100       0x10 d:/program files (x86)/microchip/xc32/v1.20/bin/../lib/gcc/pic32mx/4.5.2/../../../../pic32mx/lib/size\libmchp_peripheral_32MX795F512L.a(int_enable_interrupts_lib.o)
 .debug_ranges  0x00000110       0xc0 d:/program files (x86)/microchip/xc32/v1.20/bin/../lib/gcc/pic32mx/4.5.2/size\libgcc.a(_udivdi3.o)
 .debug_ranges  0x000001d0       0xc8 d:/program files (x86)/microchip/xc32/v1.20/bin/../lib/gcc/pic32mx/4.5.2/size\libgcc.a(_umoddi3.o)
 .debug_ranges  0x00000298       0x10 d:/program files (x86)/microchip/xc32/v1.20/bin/../lib/gcc/pic32mx/4.5.2/../../../../pic32mx/lib/size\libpic32.a(default-bootstrap-exception-handler.o)
 .debug_ranges  0x000002a8       0x10 d:/program files (x86)/microchip/xc32/v1.20/bin/../lib/gcc/pic32mx/4.5.2/../../../../pic32mx/lib/size\libpic32.a(default-on-reset.o)
 .debug_ranges  0x000002b8       0x10 d:/program files (x86)/microchip/xc32/v1.20/bin/../lib/gcc/pic32mx/4.5.2/../../../../pic32mx/lib/size\libpic32.a(default-on-bootstrap.o)
 .debug_ranges  0x000002c8       0x10 d:/program files (x86)/microchip/xc32/v1.20/bin/../lib/gcc/pic32mx/4.5.2/../../../../pic32mx/lib/size\libpic32.a(defaultinterrupt.o)
 .debug_ranges  0x000002d8       0x10 d:/program files (x86)/microchip/xc32/v1.20/bin/../lib/gcc/pic32mx/4.5.2/../../../../pic32mx/lib/size\libc.a(atoi.o)
 .debug_ranges  0x000002e8       0x10 d:/program files (x86)/microchip/xc32/v1.20/bin/../lib/gcc/pic32mx/4.5.2/../../../../pic32mx/lib/size\libc.a(atol.o)
 .debug_ranges  0x000002f8       0x18 d:/program files (x86)/microchip/xc32/v1.20/bin/../lib/gcc/pic32mx/4.5.2/../../../../pic32mx/lib/size\libc.a(ltoa.o)
 .debug_ranges  0x00000310       0x10 d:/program files (x86)/microchip/xc32/v1.20/bin/../lib/gcc/pic32mx/4.5.2/../../../../pic32mx/lib/size\libc.a(strncpy.o)

.gnu.attributes
                0x00000000       0x10
 *(.gnu.attributes)
 .gnu.attributes
                0x00000000       0x10 Obj-XC32-EX16_ENC28\Announce.o
 .gnu.attributes
                0x00000010       0x10 Obj-XC32-EX16_ENC28\ARCFOUR.o
 .gnu.attributes
                0x00000020       0x10 Obj-XC32-EX16_ENC28\ARP.o
 .gnu.attributes
                0x00000030       0x10 Obj-XC32-EX16_ENC28\AutoIP.o
 .gnu.attributes
                0x00000040       0x10 Obj-XC32-EX16_ENC28\BerkeleyAPI.o
 .gnu.attributes
                0x00000050       0x10 Obj-XC32-EX16_ENC28\BigInt.o
 .gnu.attributes
                0x00000060       0x10 Obj-XC32-EX16_ENC28\Delay.o
 .gnu.attributes
                0x00000070       0x10 Obj-XC32-EX16_ENC28\DHCP.o
 .gnu.attributes
                0x00000080       0x10 Obj-XC32-EX16_ENC28\DHCPs.o
 .gnu.attributes
                0x00000090       0x10 Obj-XC32-EX16_ENC28\DNS.o
 .gnu.attributes
                0x000000a0       0x10 Obj-XC32-EX16_ENC28\DNSs.o
 .gnu.attributes
                0x000000b0       0x10 Obj-XC32-EX16_ENC28\DynDNS.o
 .gnu.attributes
                0x000000c0       0x10 Obj-XC32-EX16_ENC28\ENC28J60.o
 .gnu.attributes
                0x000000d0       0x10 Obj-XC32-EX16_ENC28\ENCX24J600.o
 .gnu.attributes
                0x000000e0       0x10 Obj-XC32-EX16_ENC28\FileSystem.o
 .gnu.attributes
                0x000000f0       0x10 Obj-XC32-EX16_ENC28\FTP.o
 .gnu.attributes
                0x00000100       0x10 Obj-XC32-EX16_ENC28\Hashes.o
 .gnu.attributes
                0x00000110       0x10 Obj-XC32-EX16_ENC28\Helpers.o
 .gnu.attributes
                0x00000120       0x10 Obj-XC32-EX16_ENC28\HTTP2.o
 .gnu.attributes
                0x00000130       0x10 Obj-XC32-EX16_ENC28\ICMP.o
 .gnu.attributes
                0x00000140       0x10 Obj-XC32-EX16_ENC28\IP.o
 .gnu.attributes
                0x00000150       0x10 Obj-XC32-EX16_ENC28\LCDBlocking.o
 .gnu.attributes
                0x00000160       0x10 Obj-XC32-EX16_ENC28\MPFS2.o
 .gnu.attributes
                0x00000170       0x10 Obj-XC32-EX16_ENC28\NBNS.o
 .gnu.attributes
                0x00000180       0x10 Obj-XC32-EX16_ENC28\Random.o
 .gnu.attributes
                0x00000190       0x10 Obj-XC32-EX16_ENC28\Reboot.o
 .gnu.attributes
                0x000001a0       0x10 Obj-XC32-EX16_ENC28\RSA.o
 .gnu.attributes
                0x000001b0       0x10 Obj-XC32-EX16_ENC28\SMTP.o
 .gnu.attributes
                0x000001c0       0x10 Obj-XC32-EX16_ENC28\SNMP.o
 .gnu.attributes
                0x000001d0       0x10 Obj-XC32-EX16_ENC28\SNMPv3.o
 .gnu.attributes
                0x000001e0       0x10 Obj-XC32-EX16_ENC28\SNMPv3USM.o
 .gnu.attributes
                0x000001f0       0x10 Obj-XC32-EX16_ENC28\SNTP.o
 .gnu.attributes
                0x00000200       0x10 Obj-XC32-EX16_ENC28\SPIEEPROM.o
 .gnu.attributes
                0x00000210       0x10 Obj-XC32-EX16_ENC28\SPIFlash.o
 .gnu.attributes
                0x00000220       0x10 Obj-XC32-EX16_ENC28\SPIRAM.o
 .gnu.attributes
                0x00000230       0x10 Obj-XC32-EX16_ENC28\SSL.o
 .gnu.attributes
                0x00000240       0x10 Obj-XC32-EX16_ENC28\StackTsk.o
 .gnu.attributes
                0x00000250       0x10 Obj-XC32-EX16_ENC28\TCP.o
 .gnu.attributes
                0x00000260       0x10 Obj-XC32-EX16_ENC28\TCPPerformanceTest.o
 .gnu.attributes
                0x00000270       0x10 Obj-XC32-EX16_ENC28\Telnet.o
 .gnu.attributes
                0x00000280       0x10 Obj-XC32-EX16_ENC28\TFTPc.o
 .gnu.attributes
                0x00000290       0x10 Obj-XC32-EX16_ENC28\Tick.o
 .gnu.attributes
                0x000002a0       0x10 Obj-XC32-EX16_ENC28\UART2TCPBridge.o
 .gnu.attributes
                0x000002b0       0x10 Obj-XC32-EX16_ENC28\UART.o
 .gnu.attributes
                0x000002c0       0x10 Obj-XC32-EX16_ENC28\UDP.o
 .gnu.attributes
                0x000002d0       0x10 Obj-XC32-EX16_ENC28\UDPPerformanceTest.o
 .gnu.attributes
                0x000002e0       0x10 Obj-XC32-EX16_ENC28\ZeroconfHelper.o
 .gnu.attributes
                0x000002f0       0x10 Obj-XC32-EX16_ENC28\ZeroconfLinkLocal.o
 .gnu.attributes
                0x00000300       0x10 Obj-XC32-EX16_ENC28\ZeroconfMulticastDNS.o
 .gnu.attributes
                0x00000310       0x10 Obj-XC32-EX16_ENC28\CustomHTTPApp.o
 .gnu.attributes
                0x00000320       0x10 Obj-XC32-EX16_ENC28\CustomSNMPApp.o
 .gnu.attributes
                0x00000330       0x10 Obj-XC32-EX16_ENC28\CustomSSLCert.o
 .gnu.attributes
                0x00000340       0x10 Obj-XC32-EX16_ENC28\MainDemo.o
 .gnu.attributes
                0x00000350       0x10 Obj-XC32-EX16_ENC28\BerkeleyTCPClientDemo.o
 .gnu.attributes
                0x00000360       0x10 Obj-XC32-EX16_ENC28\BerkeleyTCPServerDemo.o
 .gnu.attributes
                0x00000370       0x10 Obj-XC32-EX16_ENC28\BerkeleyUDPClientDemo.o
 .gnu.attributes
                0x00000380       0x10 Obj-XC32-EX16_ENC28\GenericTCPClient.o
 .gnu.attributes
                0x00000390       0x10 Obj-XC32-EX16_ENC28\GenericTCPServer.o
 .gnu.attributes
                0x000003a0       0x10 Obj-XC32-EX16_ENC28\PingDemo.o
 .gnu.attributes
                0x000003b0       0x10 Obj-XC32-EX16_ENC28\SMTPDemo.o
 .gnu.attributes
                0x000003c0       0x10 Obj-XC32-EX16_ENC28\UARTConfig.o
 .gnu.attributes
                0x000003d0       0x10 Obj-XC32-EX16_ENC28\MPFSImg2.o
 .gnu.attributes
                0x000003e0       0x10 d:/program files (x86)/microchip/xc32/v1.20/bin/../lib/gcc/pic32mx/4.5.2/../../../../pic32mx/lib/size\libmchp_peripheral_32MX795F512L.a(soft_reset_lib.o)
 .gnu.attributes
                0x000003f0       0x10 d:/program files (x86)/microchip/xc32/v1.20/bin/../lib/gcc/pic32mx/4.5.2/../../../../pic32mx/lib/size\libmchp_peripheral_32MX795F512L.a(pcache.o)
 .gnu.attributes
                0x00000400       0x10 d:/program files (x86)/microchip/xc32/v1.20/bin/../lib/gcc/pic32mx/4.5.2/../../../../pic32mx/lib/size\libmchp_peripheral_32MX795F512L.a(int_disable_interrupts_lib.o)
 .gnu.attributes
                0x00000410       0x10 d:/program files (x86)/microchip/xc32/v1.20/bin/../lib/gcc/pic32mx/4.5.2/../../../../pic32mx/lib/size\libmchp_peripheral_32MX795F512L.a(int_restore_interrupts_lib.o)
 .gnu.attributes
                0x00000420       0x10 d:/program files (x86)/microchip/xc32/v1.20/bin/../lib/gcc/pic32mx/4.5.2/../../../../pic32mx/lib/size\libmchp_peripheral_32MX795F512L.a(int_enable_mv_int_lib.o)
 .gnu.attributes
                0x00000430       0x10 d:/program files (x86)/microchip/xc32/v1.20/bin/../lib/gcc/pic32mx/4.5.2/../../../../pic32mx/lib/size\libmchp_peripheral_32MX795F512L.a(puts_uartx_lib_legacy.o)
 .gnu.attributes
                0x00000440       0x10 d:/program files (x86)/microchip/xc32/v1.20/bin/../lib/gcc/pic32mx/4.5.2/../../../../pic32mx/lib/size\libmchp_peripheral_32MX795F512L.a(int_enable_interrupts_lib.o)
 .gnu.attributes
                0x00000450       0x10 d:/program files (x86)/microchip/xc32/v1.20/bin/../lib/gcc/pic32mx/4.5.2/size\libgcc.a(_udivdi3.o)
 .gnu.attributes
                0x00000460       0x10 d:/program files (x86)/microchip/xc32/v1.20/bin/../lib/gcc/pic32mx/4.5.2/size\libgcc.a(_umoddi3.o)
 .gnu.attributes
                0x00000470       0x10 d:/program files (x86)/microchip/xc32/v1.20/bin/../lib/gcc/pic32mx/4.5.2/../../../../pic32mx/lib/size\libpic32.a(default-bootstrap-exception-handler.o)
 .gnu.attributes
                0x00000480       0x10 d:/program files (x86)/microchip/xc32/v1.20/bin/../lib/gcc/pic32mx/4.5.2/../../../../pic32mx/lib/size\libpic32.a(default-on-reset.o)
 .gnu.attributes
                0x00000490       0x10 d:/program files (x86)/microchip/xc32/v1.20/bin/../lib/gcc/pic32mx/4.5.2/../../../../pic32mx/lib/size\libpic32.a(default-on-bootstrap.o)
 .gnu.attributes
                0x000004a0       0x10 d:/program files (x86)/microchip/xc32/v1.20/bin/../lib/gcc/pic32mx/4.5.2/../../../../pic32mx/lib/size\libpic32.a(defaultinterrupt.o)
 .gnu.attributes
                0x000004b0       0x10 d:/program files (x86)/microchip/xc32/v1.20/bin/../lib/gcc/pic32mx/4.5.2/../../../../pic32mx/lib/size\libc.a(atoi.o)
 .gnu.attributes
                0x000004c0       0x10 d:/program files (x86)/microchip/xc32/v1.20/bin/../lib/gcc/pic32mx/4.5.2/../../../../pic32mx/lib/size\libc.a(atol.o)
 .gnu.attributes
                0x000004d0       0x10 d:/program files (x86)/microchip/xc32/v1.20/bin/../lib/gcc/pic32mx/4.5.2/../../../../pic32mx/lib/size\libc.a(ctype.o)
 .gnu.attributes
                0x000004e0       0x10 d:/program files (x86)/microchip/xc32/v1.20/bin/../lib/gcc/pic32mx/4.5.2/../../../../pic32mx/lib/size\libc.a(ltoa.o)
 .gnu.attributes
                0x000004f0       0x10 d:/program files (x86)/microchip/xc32/v1.20/bin/../lib/gcc/pic32mx/4.5.2/../../../../pic32mx/lib/size\libc.a(strncpy.o)
LOAD d:/program files (x86)/microchip/xc32/v1.20/bin/../lib/gcc/pic32mx/4.5.2/size\libgcc.a
START GROUP
LOAD d:/program files (x86)/microchip/xc32/v1.20/bin/../lib/gcc/pic32mx/4.5.2/../../../../pic32mx/lib/size\libpic32.a
LOAD d:/program files (x86)/microchip/xc32/v1.20/bin/../lib/gcc/pic32mx/4.5.2/../../../../pic32mx/lib/size\libdebug.a
LOAD d:/program files (x86)/microchip/xc32/v1.20/bin/../lib/gcc/pic32mx/4.5.2/../../../../pic32mx/lib/size\libm.a
LOAD d:/program files (x86)/microchip/xc32/v1.20/bin/../lib/gcc/pic32mx/4.5.2/../../../../pic32mx/lib/size\libe.a
LOAD d:/program files (x86)/microchip/xc32/v1.20/bin/../lib/gcc/pic32mx/4.5.2/../../../../pic32mx/lib/size\libdsp.a
LOAD d:/program files (x86)/microchip/xc32/v1.20/bin/../lib/gcc/pic32mx/4.5.2/size\libgcc.a
LOAD d:/program files (x86)/microchip/xc32/v1.20/bin/../lib/gcc/pic32mx/4.5.2/../../../../pic32mx/lib/size\libpic32.a
LOAD d:/program files (x86)/microchip/xc32/v1.20/bin/../lib/gcc/pic32mx/4.5.2/../../../../pic32mx/lib/size\libmchp_peripheral.a
LOAD d:/program files (x86)/microchip/xc32/v1.20/bin/../lib/gcc/pic32mx/4.5.2/../../../../pic32mx/lib/size\libmchp_peripheral_32MX795F512L.a
LOAD d:/program files (x86)/microchip/xc32/v1.20/bin/../lib/gcc/pic32mx/4.5.2/../../../../pic32mx/lib/size\libc.a
LOAD d:/program files (x86)/microchip/xc32/v1.20/bin/../lib/gcc/pic32mx/4.5.2/../../../../pic32mx/lib/size\libpic32.a
END GROUP
LOAD d:/program files (x86)/microchip/xc32/v1.20/bin/../lib/gcc/pic32mx/4.5.2/size\libgcc.a
OUTPUT(XC32-EX16_ENC28.elf elf32-tradlittlemips)
LOAD stack
LOAD data_init

.reginfo        0x9d000000       0x18
 .reginfo       0x9d000000       0x18 d:/program files (x86)/microchip/xc32/v1.20/bin/../lib/gcc/pic32mx/4.5.2/../../../../pic32mx/lib/size/crt0.o

.stack          0xa00006f8      0x400
 .stack         0xa00006f8      0x400 stack

.bss            0xa000039c      0x32c
 .bss           0xa000039c      0x224 Obj-XC32-EX16_ENC28\TCP.o
 .bss           0xa00005c0       0x78 Obj-XC32-EX16_ENC28\MPFS2.o
 .bss           0xa0000638       0x34 Obj-XC32-EX16_ENC28\DHCP.o
 .bss           0xa000066c       0x20 Obj-XC32-EX16_ENC28\SPIEEPROM.o
 .bss           0xa000068c       0x18 Obj-XC32-EX16_ENC28\ARP.o
 .bss           0xa00006a4        0xc Obj-XC32-EX16_ENC28\DNS.o
 .bss           0xa00006b0        0xc Obj-XC32-EX16_ENC28\ICMP.o
 .bss           0xa00006bc        0xc Obj-XC32-EX16_ENC28\TCPPerformanceTest.o

.bss%z1         0x00000000        0x0
 .bss           0x00000000        0x0 d:/program files (x86)/microchip/xc32/v1.20/bin/../lib/gcc/pic32mx/4.5.2/../../../../pic32mx/lib/size\libc.a(strncpy.o)

.data%z2        0x00000000        0x0
 .data          0x00000000        0x0 d:/program files (x86)/microchip/xc32/v1.20/bin/../lib/gcc/pic32mx/4.5.2/../../../../pic32mx/lib/size\libc.a(strncpy.o)

.bss%z3         0x00000000        0x0
 .bss           0x00000000        0x0 d:/program files (x86)/microchip/xc32/v1.20/bin/../lib/gcc/pic32mx/4.5.2/../../../../pic32mx/lib/size\libc.a(ltoa.o)

.data%z4        0x00000000        0x0
 .data          0x00000000        0x0 d:/program files (x86)/microchip/xc32/v1.20/bin/../lib/gcc/pic32mx/4.5.2/../../../../pic32mx/lib/size\libc.a(ltoa.o)

.bss%z5         0x00000000        0x0
 .bss           0x00000000        0x0 d:/program files (x86)/microchip/xc32/v1.20/bin/../lib/gcc/pic32mx/4.5.2/../../../../pic32mx/lib/size\libc.a(ctype.o)

.data%z6        0x00000000        0x0
 .data          0x00000000        0x0 d:/program files (x86)/microchip/xc32/v1.20/bin/../lib/gcc/pic32mx/4.5.2/../../../../pic32mx/lib/size\libc.a(ctype.o)

.bss%z7         0x00000000        0x0
 .bss           0x00000000        0x0 d:/program files (x86)/microchip/xc32/v1.20/bin/../lib/gcc/pic32mx/4.5.2/../../../../pic32mx/lib/size\libc.a(atol.o)

.data%z8        0x00000000        0x0
 .data          0x00000000        0x0 d:/program files (x86)/microchip/xc32/v1.20/bin/../lib/gcc/pic32mx/4.5.2/../../../../pic32mx/lib/size\libc.a(atol.o)

.bss%z9         0x00000000        0x0
 .bss           0x00000000        0x0 d:/program files (x86)/microchip/xc32/v1.20/bin/../lib/gcc/pic32mx/4.5.2/../../../../pic32mx/lib/size\libc.a(atoi.o)

.data%z10       0x00000000        0x0
 .data          0x00000000        0x0 d:/program files (x86)/microchip/xc32/v1.20/bin/../lib/gcc/pic32mx/4.5.2/../../../../pic32mx/lib/size\libc.a(atoi.o)

.bss%z11        0x00000000        0x0
 .bss           0x00000000        0x0 d:/program files (x86)/microchip/xc32/v1.20/bin/../lib/gcc/pic32mx/4.5.2/../../../../pic32mx/lib/size\libpic32.a(defaultinterrupt.o)

.data%z12       0x00000000        0x0
 .data          0x00000000        0x0 d:/program files (x86)/microchip/xc32/v1.20/bin/../lib/gcc/pic32mx/4.5.2/../../../../pic32mx/lib/size\libpic32.a(defaultinterrupt.o)

.bss%z13        0x00000000        0x0
 .bss           0x00000000        0x0 d:/program files (x86)/microchip/xc32/v1.20/bin/../lib/gcc/pic32mx/4.5.2/../../../../pic32mx/lib/size\libpic32.a(vector63.o)

.data%z14       0x00000000        0x0
 .data          0x00000000        0x0 d:/program files (x86)/microchip/xc32/v1.20/bin/../lib/gcc/pic32mx/4.5.2/../../../../pic32mx/lib/size\libpic32.a(vector63.o)

.bss%z15        0x00000000        0x0
 .bss           0x00000000        0x0 d:/program files (x86)/microchip/xc32/v1.20/bin/../lib/gcc/pic32mx/4.5.2/../../../../pic32mx/lib/size\libpic32.a(vector62.o)

.data%z16       0x00000000        0x0
 .data          0x00000000        0x0 d:/program files (x86)/microchip/xc32/v1.20/bin/../lib/gcc/pic32mx/4.5.2/../../../../pic32mx/lib/size\libpic32.a(vector62.o)

.bss%z17        0x00000000        0x0
 .bss           0x00000000        0x0 d:/program files (x86)/microchip/xc32/v1.20/bin/../lib/gcc/pic32mx/4.5.2/../../../../pic32mx/lib/size\libpic32.a(vector61.o)

.data%z18       0x00000000        0x0
 .data          0x00000000        0x0 d:/program files (x86)/microchip/xc32/v1.20/bin/../lib/gcc/pic32mx/4.5.2/../../../../pic32mx/lib/size\libpic32.a(vector61.o)

.bss%z19        0x00000000        0x0
 .bss           0x00000000        0x0 d:/program files (x86)/microchip/xc32/v1.20/bin/../lib/gcc/pic32mx/4.5.2/../../../../pic32mx/lib/size\libpic32.a(vector60.o)

.data%z20       0x00000000        0x0
 .data          0x00000000        0x0 d:/program files (x86)/microchip/xc32/v1.20/bin/../lib/gcc/pic32mx/4.5.2/../../../../pic32mx/lib/size\libpic32.a(vector60.o)

.bss%z21        0x00000000        0x0
 .bss           0x00000000        0x0 d:/program files (x86)/microchip/xc32/v1.20/bin/../lib/gcc/pic32mx/4.5.2/../../../../pic32mx/lib/size\libpic32.a(vector59.o)

.data%z22       0x00000000        0x0
 .data          0x00000000        0x0 d:/program files (x86)/microchip/xc32/v1.20/bin/../lib/gcc/pic32mx/4.5.2/../../../../pic32mx/lib/size\libpic32.a(vector59.o)

.bss%z23        0x00000000        0x0
 .bss           0x00000000        0x0 d:/program files (x86)/microchip/xc32/v1.20/bin/../lib/gcc/pic32mx/4.5.2/../../../../pic32mx/lib/size\libpic32.a(vector58.o)

.data%z24       0x00000000        0x0
 .data          0x00000000        0x0 d:/program files (x86)/microchip/xc32/v1.20/bin/../lib/gcc/pic32mx/4.5.2/../../../../pic32mx/lib/size\libpic32.a(vector58.o)

.bss%z25        0x00000000        0x0
 .bss           0x00000000        0x0 d:/program files (x86)/microchip/xc32/v1.20/bin/../lib/gcc/pic32mx/4.5.2/../../../../pic32mx/lib/size\libpic32.a(vector57.o)

.data%z26       0x00000000        0x0
 .data          0x00000000        0x0 d:/program files (x86)/microchip/xc32/v1.20/bin/../lib/gcc/pic32mx/4.5.2/../../../../pic32mx/lib/size\libpic32.a(vector57.o)

.bss%z27        0x00000000        0x0
 .bss           0x00000000        0x0 d:/program files (x86)/microchip/xc32/v1.20/bin/../lib/gcc/pic32mx/4.5.2/../../../../pic32mx/lib/size\libpic32.a(vector56.o)

.data%z28       0x00000000        0x0
 .data          0x00000000        0x0 d:/program files (x86)/microchip/xc32/v1.20/bin/../lib/gcc/pic32mx/4.5.2/../../../../pic32mx/lib/size\libpic32.a(vector56.o)

.bss%z29        0x00000000        0x0
 .bss           0x00000000        0x0 d:/program files (x86)/microchip/xc32/v1.20/bin/../lib/gcc/pic32mx/4.5.2/../../../../pic32mx/lib/size\libpic32.a(vector55.o)

.data%z30       0x00000000        0x0
 .data          0x00000000        0x0 d:/program files (x86)/microchip/xc32/v1.20/bin/../lib/gcc/pic32mx/4.5.2/../../../../pic32mx/lib/size\libpic32.a(vector55.o)

.bss%z31        0x00000000        0x0
 .bss           0x00000000        0x0 d:/program files (x86)/microchip/xc32/v1.20/bin/../lib/gcc/pic32mx/4.5.2/../../../../pic32mx/lib/size\libpic32.a(vector54.o)

.data%z32       0x00000000        0x0
 .data          0x00000000        0x0 d:/program files (x86)/microchip/xc32/v1.20/bin/../lib/gcc/pic32mx/4.5.2/../../../../pic32mx/lib/size\libpic32.a(vector54.o)

.bss%z33        0x00000000        0x0
 .bss           0x00000000        0x0 d:/program files (x86)/microchip/xc32/v1.20/bin/../lib/gcc/pic32mx/4.5.2/../../../../pic32mx/lib/size\libpic32.a(vector53.o)

.data%z34       0x00000000        0x0
 .data          0x00000000        0x0 d:/program files (x86)/microchip/xc32/v1.20/bin/../lib/gcc/pic32mx/4.5.2/../../../../pic32mx/lib/size\libpic32.a(vector53.o)

.bss%z35        0x00000000        0x0
 .bss           0x00000000        0x0 d:/program files (x86)/microchip/xc32/v1.20/bin/../lib/gcc/pic32mx/4.5.2/../../../../pic32mx/lib/size\libpic32.a(vector52.o)

.data%z36       0x00000000        0x0
 .data          0x00000000        0x0 d:/program files (x86)/microchip/xc32/v1.20/bin/../lib/gcc/pic32mx/4.5.2/../../../../pic32mx/lib/size\libpic32.a(vector52.o)

.bss%z37        0x00000000        0x0
 .bss           0x00000000        0x0 d:/program files (x86)/microchip/xc32/v1.20/bin/../lib/gcc/pic32mx/4.5.2/../../../../pic32mx/lib/size\libpic32.a(vector51.o)

.data%z38       0x00000000        0x0
 .data          0x00000000        0x0 d:/program files (x86)/microchip/xc32/v1.20/bin/../lib/gcc/pic32mx/4.5.2/../../../../pic32mx/lib/size\libpic32.a(vector51.o)

.bss%z39        0x00000000        0x0
 .bss           0x00000000        0x0 d:/program files (x86)/microchip/xc32/v1.20/bin/../lib/gcc/pic32mx/4.5.2/../../../../pic32mx/lib/size\libpic32.a(vector50.o)

.data%z40       0x00000000        0x0
 .data          0x00000000        0x0 d:/program files (x86)/microchip/xc32/v1.20/bin/../lib/gcc/pic32mx/4.5.2/../../../../pic32mx/lib/size\libpic32.a(vector50.o)

.bss%z41        0x00000000        0x0
 .bss           0x00000000        0x0 d:/program files (x86)/microchip/xc32/v1.20/bin/../lib/gcc/pic32mx/4.5.2/../../../../pic32mx/lib/size\libpic32.a(vector49.o)

.data%z42       0x00000000        0x0
 .data          0x00000000        0x0 d:/program files (x86)/microchip/xc32/v1.20/bin/../lib/gcc/pic32mx/4.5.2/../../../../pic32mx/lib/size\libpic32.a(vector49.o)

.bss%z43        0x00000000        0x0
 .bss           0x00000000        0x0 d:/program files (x86)/microchip/xc32/v1.20/bin/../lib/gcc/pic32mx/4.5.2/../../../../pic32mx/lib/size\libpic32.a(vector48.o)

.data%z44       0x00000000        0x0
 .data          0x00000000        0x0 d:/program files (x86)/microchip/xc32/v1.20/bin/../lib/gcc/pic32mx/4.5.2/../../../../pic32mx/lib/size\libpic32.a(vector48.o)

.bss%z45        0x00000000        0x0
 .bss           0x00000000        0x0 d:/program files (x86)/microchip/xc32/v1.20/bin/../lib/gcc/pic32mx/4.5.2/../../../../pic32mx/lib/size\libpic32.a(vector47.o)

.data%z46       0x00000000        0x0
 .data          0x00000000        0x0 d:/program files (x86)/microchip/xc32/v1.20/bin/../lib/gcc/pic32mx/4.5.2/../../../../pic32mx/lib/size\libpic32.a(vector47.o)

.bss%z47        0x00000000        0x0
 .bss           0x00000000        0x0 d:/program files (x86)/microchip/xc32/v1.20/bin/../lib/gcc/pic32mx/4.5.2/../../../../pic32mx/lib/size\libpic32.a(vector46.o)

.data%z48       0x00000000        0x0
 .data          0x00000000        0x0 d:/program files (x86)/microchip/xc32/v1.20/bin/../lib/gcc/pic32mx/4.5.2/../../../../pic32mx/lib/size\libpic32.a(vector46.o)

.bss%z49        0x00000000        0x0
 .bss           0x00000000        0x0 d:/program files (x86)/microchip/xc32/v1.20/bin/../lib/gcc/pic32mx/4.5.2/../../../../pic32mx/lib/size\libpic32.a(vector45.o)

.data%z50       0x00000000        0x0
 .data          0x00000000        0x0 d:/program files (x86)/microchip/xc32/v1.20/bin/../lib/gcc/pic32mx/4.5.2/../../../../pic32mx/lib/size\libpic32.a(vector45.o)

.bss%z51        0x00000000        0x0
 .bss           0x00000000        0x0 d:/program files (x86)/microchip/xc32/v1.20/bin/../lib/gcc/pic32mx/4.5.2/../../../../pic32mx/lib/size\libpic32.a(vector44.o)

.data%z52       0x00000000        0x0
 .data          0x00000000        0x0 d:/program files (x86)/microchip/xc32/v1.20/bin/../lib/gcc/pic32mx/4.5.2/../../../../pic32mx/lib/size\libpic32.a(vector44.o)

.bss%z53        0x00000000        0x0
 .bss           0x00000000        0x0 d:/program files (x86)/microchip/xc32/v1.20/bin/../lib/gcc/pic32mx/4.5.2/../../../../pic32mx/lib/size\libpic32.a(vector43.o)

.data%z54       0x00000000        0x0
 .data          0x00000000        0x0 d:/program files (x86)/microchip/xc32/v1.20/bin/../lib/gcc/pic32mx/4.5.2/../../../../pic32mx/lib/size\libpic32.a(vector43.o)

.bss%z55        0x00000000        0x0
 .bss           0x00000000        0x0 d:/program files (x86)/microchip/xc32/v1.20/bin/../lib/gcc/pic32mx/4.5.2/../../../../pic32mx/lib/size\libpic32.a(vector42.o)

.data%z56       0x00000000        0x0
 .data          0x00000000        0x0 d:/program files (x86)/microchip/xc32/v1.20/bin/../lib/gcc/pic32mx/4.5.2/../../../../pic32mx/lib/size\libpic32.a(vector42.o)

.bss%z57        0x00000000        0x0
 .bss           0x00000000        0x0 d:/program files (x86)/microchip/xc32/v1.20/bin/../lib/gcc/pic32mx/4.5.2/../../../../pic32mx/lib/size\libpic32.a(vector41.o)

.data%z58       0x00000000        0x0
 .data          0x00000000        0x0 d:/program files (x86)/microchip/xc32/v1.20/bin/../lib/gcc/pic32mx/4.5.2/../../../../pic32mx/lib/size\libpic32.a(vector41.o)

.bss%z59        0x00000000        0x0
 .bss           0x00000000        0x0 d:/program files (x86)/microchip/xc32/v1.20/bin/../lib/gcc/pic32mx/4.5.2/../../../../pic32mx/lib/size\libpic32.a(vector40.o)

.data%z60       0x00000000        0x0
 .data          0x00000000        0x0 d:/program files (x86)/microchip/xc32/v1.20/bin/../lib/gcc/pic32mx/4.5.2/../../../../pic32mx/lib/size\libpic32.a(vector40.o)

.bss%z61        0x00000000        0x0
 .bss           0x00000000        0x0 d:/program files (x86)/microchip/xc32/v1.20/bin/../lib/gcc/pic32mx/4.5.2/../../../../pic32mx/lib/size\libpic32.a(vector39.o)

.data%z62       0x00000000        0x0
 .data          0x00000000        0x0 d:/program files (x86)/microchip/xc32/v1.20/bin/../lib/gcc/pic32mx/4.5.2/../../../../pic32mx/lib/size\libpic32.a(vector39.o)

.bss%z63        0x00000000        0x0
 .bss           0x00000000        0x0 d:/program files (x86)/microchip/xc32/v1.20/bin/../lib/gcc/pic32mx/4.5.2/../../../../pic32mx/lib/size\libpic32.a(vector38.o)

.data%z64       0x00000000        0x0
 .data          0x00000000        0x0 d:/program files (x86)/microchip/xc32/v1.20/bin/../lib/gcc/pic32mx/4.5.2/../../../../pic32mx/lib/size\libpic32.a(vector38.o)

.bss%z65        0x00000000        0x0
 .bss           0x00000000        0x0 d:/program files (x86)/microchip/xc32/v1.20/bin/../lib/gcc/pic32mx/4.5.2/../../../../pic32mx/lib/size\libpic32.a(vector37.o)

.data%z66       0x00000000        0x0
 .data          0x00000000        0x0 d:/program files (x86)/microchip/xc32/v1.20/bin/../lib/gcc/pic32mx/4.5.2/../../../../pic32mx/lib/size\libpic32.a(vector37.o)

.bss%z67        0x00000000        0x0
 .bss           0x00000000        0x0 d:/program files (x86)/microchip/xc32/v1.20/bin/../lib/gcc/pic32mx/4.5.2/../../../../pic32mx/lib/size\libpic32.a(vector36.o)

.data%z68       0x00000000        0x0
 .data          0x00000000        0x0 d:/program files (x86)/microchip/xc32/v1.20/bin/../lib/gcc/pic32mx/4.5.2/../../../../pic32mx/lib/size\libpic32.a(vector36.o)

.bss%z69        0x00000000        0x0
 .bss           0x00000000        0x0 d:/program files (x86)/microchip/xc32/v1.20/bin/../lib/gcc/pic32mx/4.5.2/../../../../pic32mx/lib/size\libpic32.a(vector35.o)

.data%z70       0x00000000        0x0
 .data          0x00000000        0x0 d:/program files (x86)/microchip/xc32/v1.20/bin/../lib/gcc/pic32mx/4.5.2/../../../../pic32mx/lib/size\libpic32.a(vector35.o)

.bss%z71        0x00000000        0x0
 .bss           0x00000000        0x0 d:/program files (x86)/microchip/xc32/v1.20/bin/../lib/gcc/pic32mx/4.5.2/../../../../pic32mx/lib/size\libpic32.a(vector34.o)

.data%z72       0x00000000        0x0
 .data          0x00000000        0x0 d:/program files (x86)/microchip/xc32/v1.20/bin/../lib/gcc/pic32mx/4.5.2/../../../../pic32mx/lib/size\libpic32.a(vector34.o)

.bss%z73        0x00000000        0x0
 .bss           0x00000000        0x0 d:/program files (x86)/microchip/xc32/v1.20/bin/../lib/gcc/pic32mx/4.5.2/../../../../pic32mx/lib/size\libpic32.a(vector33.o)

.data%z74       0x00000000        0x0
 .data          0x00000000        0x0 d:/program files (x86)/microchip/xc32/v1.20/bin/../lib/gcc/pic32mx/4.5.2/../../../../pic32mx/lib/size\libpic32.a(vector33.o)

.bss%z75        0x00000000        0x0
 .bss           0x00000000        0x0 d:/program files (x86)/microchip/xc32/v1.20/bin/../lib/gcc/pic32mx/4.5.2/../../../../pic32mx/lib/size\libpic32.a(vector32.o)

.data%z76       0x00000000        0x0
 .data          0x00000000        0x0 d:/program files (x86)/microchip/xc32/v1.20/bin/../lib/gcc/pic32mx/4.5.2/../../../../pic32mx/lib/size\libpic32.a(vector32.o)

.bss%z77        0x00000000        0x0
 .bss           0x00000000        0x0 d:/program files (x86)/microchip/xc32/v1.20/bin/../lib/gcc/pic32mx/4.5.2/../../../../pic32mx/lib/size\libpic32.a(vector31.o)

.data%z78       0x00000000        0x0
 .data          0x00000000        0x0 d:/program files (x86)/microchip/xc32/v1.20/bin/../lib/gcc/pic32mx/4.5.2/../../../../pic32mx/lib/size\libpic32.a(vector31.o)

.bss%z79        0x00000000        0x0
 .bss           0x00000000        0x0 d:/program files (x86)/microchip/xc32/v1.20/bin/../lib/gcc/pic32mx/4.5.2/../../../../pic32mx/lib/size\libpic32.a(vector30.o)

.data%z80       0x00000000        0x0
 .data          0x00000000        0x0 d:/program files (x86)/microchip/xc32/v1.20/bin/../lib/gcc/pic32mx/4.5.2/../../../../pic32mx/lib/size\libpic32.a(vector30.o)

.bss%z81        0x00000000        0x0
 .bss           0x00000000        0x0 d:/program files (x86)/microchip/xc32/v1.20/bin/../lib/gcc/pic32mx/4.5.2/../../../../pic32mx/lib/size\libpic32.a(vector29.o)

.data%z82       0x00000000        0x0
 .data          0x00000000        0x0 d:/program files (x86)/microchip/xc32/v1.20/bin/../lib/gcc/pic32mx/4.5.2/../../../../pic32mx/lib/size\libpic32.a(vector29.o)

.bss%z83        0x00000000        0x0
 .bss           0x00000000        0x0 d:/program files (x86)/microchip/xc32/v1.20/bin/../lib/gcc/pic32mx/4.5.2/../../../../pic32mx/lib/size\libpic32.a(vector28.o)

.data%z84       0x00000000        0x0
 .data          0x00000000        0x0 d:/program files (x86)/microchip/xc32/v1.20/bin/../lib/gcc/pic32mx/4.5.2/../../../../pic32mx/lib/size\libpic32.a(vector28.o)

.bss%z85        0x00000000        0x0
 .bss           0x00000000        0x0 d:/program files (x86)/microchip/xc32/v1.20/bin/../lib/gcc/pic32mx/4.5.2/../../../../pic32mx/lib/size\libpic32.a(vector27.o)

.data%z86       0x00000000        0x0
 .data          0x00000000        0x0 d:/program files (x86)/microchip/xc32/v1.20/bin/../lib/gcc/pic32mx/4.5.2/../../../../pic32mx/lib/size\libpic32.a(vector27.o)

.bss%z87        0x00000000        0x0
 .bss           0x00000000        0x0 d:/program files (x86)/microchip/xc32/v1.20/bin/../lib/gcc/pic32mx/4.5.2/../../../../pic32mx/lib/size\libpic32.a(vector26.o)

.data%z88       0x00000000        0x0
 .data          0x00000000        0x0 d:/program files (x86)/microchip/xc32/v1.20/bin/../lib/gcc/pic32mx/4.5.2/../../../../pic32mx/lib/size\libpic32.a(vector26.o)

.bss%z89        0x00000000        0x0
 .bss           0x00000000        0x0 d:/program files (x86)/microchip/xc32/v1.20/bin/../lib/gcc/pic32mx/4.5.2/../../../../pic32mx/lib/size\libpic32.a(vector25.o)

.data%z90       0x00000000        0x0
 .data          0x00000000        0x0 d:/program files (x86)/microchip/xc32/v1.20/bin/../lib/gcc/pic32mx/4.5.2/../../../../pic32mx/lib/size\libpic32.a(vector25.o)

.bss%z91        0x00000000        0x0
 .bss           0x00000000        0x0 d:/program files (x86)/microchip/xc32/v1.20/bin/../lib/gcc/pic32mx/4.5.2/../../../../pic32mx/lib/size\libpic32.a(vector24.o)

.data%z92       0x00000000        0x0
 .data          0x00000000        0x0 d:/program files (x86)/microchip/xc32/v1.20/bin/../lib/gcc/pic32mx/4.5.2/../../../../pic32mx/lib/size\libpic32.a(vector24.o)

.bss%z93        0x00000000        0x0
 .bss           0x00000000        0x0 d:/program files (x86)/microchip/xc32/v1.20/bin/../lib/gcc/pic32mx/4.5.2/../../../../pic32mx/lib/size\libpic32.a(vector23.o)

.data%z94       0x00000000        0x0
 .data          0x00000000        0x0 d:/program files (x86)/microchip/xc32/v1.20/bin/../lib/gcc/pic32mx/4.5.2/../../../../pic32mx/lib/size\libpic32.a(vector23.o)

.bss%z95        0x00000000        0x0
 .bss           0x00000000        0x0 d:/program files (x86)/microchip/xc32/v1.20/bin/../lib/gcc/pic32mx/4.5.2/../../../../pic32mx/lib/size\libpic32.a(vector22.o)

.data%z96       0x00000000        0x0
 .data          0x00000000        0x0 d:/program files (x86)/microchip/xc32/v1.20/bin/../lib/gcc/pic32mx/4.5.2/../../../../pic32mx/lib/size\libpic32.a(vector22.o)

.bss%z97        0x00000000        0x0
 .bss           0x00000000        0x0 d:/program files (x86)/microchip/xc32/v1.20/bin/../lib/gcc/pic32mx/4.5.2/../../../../pic32mx/lib/size\libpic32.a(vector21.o)

.data%z98       0x00000000        0x0
 .data          0x00000000        0x0 d:/program files (x86)/microchip/xc32/v1.20/bin/../lib/gcc/pic32mx/4.5.2/../../../../pic32mx/lib/size\libpic32.a(vector21.o)

.bss%z99        0x00000000        0x0
 .bss           0x00000000        0x0 d:/program files (x86)/microchip/xc32/v1.20/bin/../lib/gcc/pic32mx/4.5.2/../../../../pic32mx/lib/size\libpic32.a(vector20.o)

.data%z100      0x00000000        0x0
 .data          0x00000000        0x0 d:/program files (x86)/microchip/xc32/v1.20/bin/../lib/gcc/pic32mx/4.5.2/../../../../pic32mx/lib/size\libpic32.a(vector20.o)

.bss%z101       0x00000000        0x0
 .bss           0x00000000        0x0 d:/program files (x86)/microchip/xc32/v1.20/bin/../lib/gcc/pic32mx/4.5.2/../../../../pic32mx/lib/size\libpic32.a(vector19.o)

.data%z102      0x00000000        0x0
 .data          0x00000000        0x0 d:/program files (x86)/microchip/xc32/v1.20/bin/../lib/gcc/pic32mx/4.5.2/../../../../pic32mx/lib/size\libpic32.a(vector19.o)

.bss%z103       0x00000000        0x0
 .bss           0x00000000        0x0 d:/program files (x86)/microchip/xc32/v1.20/bin/../lib/gcc/pic32mx/4.5.2/../../../../pic32mx/lib/size\libpic32.a(vector18.o)

.data%z104      0x00000000        0x0
 .data          0x00000000        0x0 d:/program files (x86)/microchip/xc32/v1.20/bin/../lib/gcc/pic32mx/4.5.2/../../../../pic32mx/lib/size\libpic32.a(vector18.o)

.bss%z105       0x00000000        0x0
 .bss           0x00000000        0x0 d:/program files (x86)/microchip/xc32/v1.20/bin/../lib/gcc/pic32mx/4.5.2/../../../../pic32mx/lib/size\libpic32.a(vector17.o)

.data%z106      0x00000000        0x0
 .data          0x00000000        0x0 d:/program files (x86)/microchip/xc32/v1.20/bin/../lib/gcc/pic32mx/4.5.2/../../../../pic32mx/lib/size\libpic32.a(vector17.o)

.bss%z107       0x00000000        0x0
 .bss           0x00000000        0x0 d:/program files (x86)/microchip/xc32/v1.20/bin/../lib/gcc/pic32mx/4.5.2/../../../../pic32mx/lib/size\libpic32.a(vector16.o)

.data%z108      0x00000000        0x0
 .data          0x00000000        0x0 d:/program files (x86)/microchip/xc32/v1.20/bin/../lib/gcc/pic32mx/4.5.2/../../../../pic32mx/lib/size\libpic32.a(vector16.o)

.bss%z109       0x00000000        0x0
 .bss           0x00000000        0x0 d:/program files (x86)/microchip/xc32/v1.20/bin/../lib/gcc/pic32mx/4.5.2/../../../../pic32mx/lib/size\libpic32.a(vector15.o)

.data%z110      0x00000000        0x0
 .data          0x00000000        0x0 d:/program files (x86)/microchip/xc32/v1.20/bin/../lib/gcc/pic32mx/4.5.2/../../../../pic32mx/lib/size\libpic32.a(vector15.o)

.bss%z111       0x00000000        0x0
 .bss           0x00000000        0x0 d:/program files (x86)/microchip/xc32/v1.20/bin/../lib/gcc/pic32mx/4.5.2/../../../../pic32mx/lib/size\libpic32.a(vector14.o)

.data%z112      0x00000000        0x0
 .data          0x00000000        0x0 d:/program files (x86)/microchip/xc32/v1.20/bin/../lib/gcc/pic32mx/4.5.2/../../../../pic32mx/lib/size\libpic32.a(vector14.o)

.bss%z113       0x00000000        0x0
 .bss           0x00000000        0x0 d:/program files (x86)/microchip/xc32/v1.20/bin/../lib/gcc/pic32mx/4.5.2/../../../../pic32mx/lib/size\libpic32.a(vector13.o)

.data%z114      0x00000000        0x0
 .data          0x00000000        0x0 d:/program files (x86)/microchip/xc32/v1.20/bin/../lib/gcc/pic32mx/4.5.2/../../../../pic32mx/lib/size\libpic32.a(vector13.o)

.bss%z115       0x00000000        0x0
 .bss           0x00000000        0x0 d:/program files (x86)/microchip/xc32/v1.20/bin/../lib/gcc/pic32mx/4.5.2/../../../../pic32mx/lib/size\libpic32.a(vector12.o)

.data%z116      0x00000000        0x0
 .data          0x00000000        0x0 d:/program files (x86)/microchip/xc32/v1.20/bin/../lib/gcc/pic32mx/4.5.2/../../../../pic32mx/lib/size\libpic32.a(vector12.o)

.bss%z117       0x00000000        0x0
 .bss           0x00000000        0x0 d:/program files (x86)/microchip/xc32/v1.20/bin/../lib/gcc/pic32mx/4.5.2/../../../../pic32mx/lib/size\libpic32.a(vector11.o)

.data%z118      0x00000000        0x0
 .data          0x00000000        0x0 d:/program files (x86)/microchip/xc32/v1.20/bin/../lib/gcc/pic32mx/4.5.2/../../../../pic32mx/lib/size\libpic32.a(vector11.o)

.bss%z119       0x00000000        0x0
 .bss           0x00000000        0x0 d:/program files (x86)/microchip/xc32/v1.20/bin/../lib/gcc/pic32mx/4.5.2/../../../../pic32mx/lib/size\libpic32.a(vector10.o)

.data%z120      0x00000000        0x0
 .data          0x00000000        0x0 d:/program files (x86)/microchip/xc32/v1.20/bin/../lib/gcc/pic32mx/4.5.2/../../../../pic32mx/lib/size\libpic32.a(vector10.o)

.bss%z121       0x00000000        0x0
 .bss           0x00000000        0x0 d:/program files (x86)/microchip/xc32/v1.20/bin/../lib/gcc/pic32mx/4.5.2/../../../../pic32mx/lib/size\libpic32.a(vector9.o)

.data%z122      0x00000000        0x0
 .data          0x00000000        0x0 d:/program files (x86)/microchip/xc32/v1.20/bin/../lib/gcc/pic32mx/4.5.2/../../../../pic32mx/lib/size\libpic32.a(vector9.o)

.bss%z123       0x00000000        0x0
 .bss           0x00000000        0x0 d:/program files (x86)/microchip/xc32/v1.20/bin/../lib/gcc/pic32mx/4.5.2/../../../../pic32mx/lib/size\libpic32.a(vector8.o)

.data%z124      0x00000000        0x0
 .data          0x00000000        0x0 d:/program files (x86)/microchip/xc32/v1.20/bin/../lib/gcc/pic32mx/4.5.2/../../../../pic32mx/lib/size\libpic32.a(vector8.o)

.bss%z125       0x00000000        0x0
 .bss           0x00000000        0x0 d:/program files (x86)/microchip/xc32/v1.20/bin/../lib/gcc/pic32mx/4.5.2/../../../../pic32mx/lib/size\libpic32.a(vector7.o)

.data%z126      0x00000000        0x0
 .data          0x00000000        0x0 d:/program files (x86)/microchip/xc32/v1.20/bin/../lib/gcc/pic32mx/4.5.2/../../../../pic32mx/lib/size\libpic32.a(vector7.o)

.bss%z127       0x00000000        0x0
 .bss           0x00000000        0x0 d:/program files (x86)/microchip/xc32/v1.20/bin/../lib/gcc/pic32mx/4.5.2/../../../../pic32mx/lib/size\libpic32.a(vector6.o)

.data%z128      0x00000000        0x0
 .data          0x00000000        0x0 d:/program files (x86)/microchip/xc32/v1.20/bin/../lib/gcc/pic32mx/4.5.2/../../../../pic32mx/lib/size\libpic32.a(vector6.o)

.bss%z129       0x00000000        0x0
 .bss           0x00000000        0x0 d:/program files (x86)/microchip/xc32/v1.20/bin/../lib/gcc/pic32mx/4.5.2/../../../../pic32mx/lib/size\libpic32.a(vector5.o)

.data%z130      0x00000000        0x0
 .data          0x00000000        0x0 d:/program files (x86)/microchip/xc32/v1.20/bin/../lib/gcc/pic32mx/4.5.2/../../../../pic32mx/lib/size\libpic32.a(vector5.o)

.bss%z131       0x00000000        0x0
 .bss           0x00000000        0x0 d:/program files (x86)/microchip/xc32/v1.20/bin/../lib/gcc/pic32mx/4.5.2/../../../../pic32mx/lib/size\libpic32.a(vector3.o)

.data%z132      0x00000000        0x0
 .data          0x00000000        0x0 d:/program files (x86)/microchip/xc32/v1.20/bin/../lib/gcc/pic32mx/4.5.2/../../../../pic32mx/lib/size\libpic32.a(vector3.o)

.bss%z133       0x00000000        0x0
 .bss           0x00000000        0x0 d:/program files (x86)/microchip/xc32/v1.20/bin/../lib/gcc/pic32mx/4.5.2/../../../../pic32mx/lib/size\libpic32.a(vector2.o)

.data%z134      0x00000000        0x0
 .data          0x00000000        0x0 d:/program files (x86)/microchip/xc32/v1.20/bin/../lib/gcc/pic32mx/4.5.2/../../../../pic32mx/lib/size\libpic32.a(vector2.o)

.bss%z135       0x00000000        0x0
 .bss           0x00000000        0x0 d:/program files (x86)/microchip/xc32/v1.20/bin/../lib/gcc/pic32mx/4.5.2/../../../../pic32mx/lib/size\libpic32.a(vector1.o)

.data%z136      0x00000000        0x0
 .data          0x00000000        0x0 d:/program files (x86)/microchip/xc32/v1.20/bin/../lib/gcc/pic32mx/4.5.2/../../../../pic32mx/lib/size\libpic32.a(vector1.o)

.bss%z137       0x00000000        0x0
 .bss           0x00000000        0x0 d:/program files (x86)/microchip/xc32/v1.20/bin/../lib/gcc/pic32mx/4.5.2/../../../../pic32mx/lib/size\libpic32.a(vector0.o)

.data%z138      0x00000000        0x0
 .data          0x00000000        0x0 d:/program files (x86)/microchip/xc32/v1.20/bin/../lib/gcc/pic32mx/4.5.2/../../../../pic32mx/lib/size\libpic32.a(vector0.o)

.bss%z139       0x00000000        0x0
 .bss           0x00000000        0x0 d:/program files (x86)/microchip/xc32/v1.20/bin/../lib/gcc/pic32mx/4.5.2/../../../../pic32mx/lib/size\libpic32.a(general-exception.o)

.data%z140      0x00000000        0x0
 .data          0x00000000        0x0 d:/program files (x86)/microchip/xc32/v1.20/bin/../lib/gcc/pic32mx/4.5.2/../../../../pic32mx/lib/size\libpic32.a(general-exception.o)

.bss%z141       0x00000000        0x0
 .bss           0x00000000        0x0 d:/program files (x86)/microchip/xc32/v1.20/bin/../lib/gcc/pic32mx/4.5.2/../../../../pic32mx/lib/size\libpic32.a(default-nmi-handler.o)

.data%z142      0x00000000        0x0
 .data          0x00000000        0x0 d:/program files (x86)/microchip/xc32/v1.20/bin/../lib/gcc/pic32mx/4.5.2/../../../../pic32mx/lib/size\libpic32.a(default-nmi-handler.o)

.bss%z143       0x00000000        0x0
 .bss           0x00000000        0x0 d:/program files (x86)/microchip/xc32/v1.20/bin/../lib/gcc/pic32mx/4.5.2/../../../../pic32mx/lib/size\libpic32.a(default-on-bootstrap.o)

.data%z144      0x00000000        0x0
 .data          0x00000000        0x0 d:/program files (x86)/microchip/xc32/v1.20/bin/../lib/gcc/pic32mx/4.5.2/../../../../pic32mx/lib/size\libpic32.a(default-on-bootstrap.o)

.bss%z145       0x00000000        0x0
 .bss           0x00000000        0x0 d:/program files (x86)/microchip/xc32/v1.20/bin/../lib/gcc/pic32mx/4.5.2/../../../../pic32mx/lib/size\libpic32.a(default-on-reset.o)

.data%z146      0x00000000        0x0
 .data          0x00000000        0x0 d:/program files (x86)/microchip/xc32/v1.20/bin/../lib/gcc/pic32mx/4.5.2/../../../../pic32mx/lib/size\libpic32.a(default-on-reset.o)

.bss%z147       0x00000000        0x0
 .bss           0x00000000        0x0 d:/program files (x86)/microchip/xc32/v1.20/bin/../lib/gcc/pic32mx/4.5.2/../../../../pic32mx/lib/size\libpic32.a(default-bootstrap-exception-handler.o)

.data%z148      0x00000000        0x0
 .data          0x00000000        0x0 d:/program files (x86)/microchip/xc32/v1.20/bin/../lib/gcc/pic32mx/4.5.2/../../../../pic32mx/lib/size\libpic32.a(default-bootstrap-exception-handler.o)

.bss%z149       0x00000000        0x0
 .bss           0x00000000        0x0 d:/program files (x86)/microchip/xc32/v1.20/bin/../lib/gcc/pic32mx/4.5.2/../../../../pic32mx/lib/size\libpic32.a(strlen.o)

.data%z150      0x00000000        0x0
 .data          0x00000000        0x0 d:/program files (x86)/microchip/xc32/v1.20/bin/../lib/gcc/pic32mx/4.5.2/../../../../pic32mx/lib/size\libpic32.a(strlen.o)

.bss%z151       0x00000000        0x0
 .bss           0x00000000        0x0 d:/program files (x86)/microchip/xc32/v1.20/bin/../lib/gcc/pic32mx/4.5.2/../../../../pic32mx/lib/size\libpic32.a(strcpy.o)

.data%z152      0x00000000        0x0
 .data          0x00000000        0x0 d:/program files (x86)/microchip/xc32/v1.20/bin/../lib/gcc/pic32mx/4.5.2/../../../../pic32mx/lib/size\libpic32.a(strcpy.o)

.bss%z153       0x00000000        0x0
 .bss           0x00000000        0x0 d:/program files (x86)/microchip/xc32/v1.20/bin/../lib/gcc/pic32mx/4.5.2/../../../../pic32mx/lib/size\libpic32.a(strcmp.o)

.data%z154      0x00000000        0x0
 .data          0x00000000        0x0 d:/program files (x86)/microchip/xc32/v1.20/bin/../lib/gcc/pic32mx/4.5.2/../../../../pic32mx/lib/size\libpic32.a(strcmp.o)

.bss%z155       0x00000000        0x0
 .bss           0x00000000        0x0 d:/program files (x86)/microchip/xc32/v1.20/bin/../lib/gcc/pic32mx/4.5.2/../../../../pic32mx/lib/size\libpic32.a(memset.o)

.data%z156      0x00000000        0x0
 .data          0x00000000        0x0 d:/program files (x86)/microchip/xc32/v1.20/bin/../lib/gcc/pic32mx/4.5.2/../../../../pic32mx/lib/size\libpic32.a(memset.o)

.bss%z157       0x00000000        0x0
 .bss           0x00000000        0x0 d:/program files (x86)/microchip/xc32/v1.20/bin/../lib/gcc/pic32mx/4.5.2/../../../../pic32mx/lib/size\libpic32.a(memcpy.o)

.data%z158      0x00000000        0x0
 .data          0x00000000        0x0 d:/program files (x86)/microchip/xc32/v1.20/bin/../lib/gcc/pic32mx/4.5.2/../../../../pic32mx/lib/size\libpic32.a(memcpy.o)

.bss%z159       0x00000000        0x0
 .bss           0x00000000        0x0 d:/program files (x86)/microchip/xc32/v1.20/bin/../lib/gcc/pic32mx/4.5.2/../../../../pic32mx/lib/size\libpic32.a(memcmp.o)

.data%z160      0x00000000        0x0
 .data          0x00000000        0x0 d:/program files (x86)/microchip/xc32/v1.20/bin/../lib/gcc/pic32mx/4.5.2/../../../../pic32mx/lib/size\libpic32.a(memcmp.o)

.bss%z161       0x00000000        0x0
 .bss           0x00000000        0x0 d:/program files (x86)/microchip/xc32/v1.20/bin/../lib/gcc/pic32mx/4.5.2/size\libgcc.a(_umoddi3.o)

.data%z162      0x00000000        0x0
 .data          0x00000000        0x0 d:/program files (x86)/microchip/xc32/v1.20/bin/../lib/gcc/pic32mx/4.5.2/size\libgcc.a(_umoddi3.o)

.bss%z163       0x00000000        0x0
 .bss           0x00000000        0x0 d:/program files (x86)/microchip/xc32/v1.20/bin/../lib/gcc/pic32mx/4.5.2/size\libgcc.a(_udivdi3.o)

.data%z164      0x00000000        0x0
 .data          0x00000000        0x0 d:/program files (x86)/microchip/xc32/v1.20/bin/../lib/gcc/pic32mx/4.5.2/size\libgcc.a(_udivdi3.o)

.bss%z165       0x00000000        0x0
 .bss           0x00000000        0x0 d:/program files (x86)/microchip/xc32/v1.20/bin/../lib/gcc/pic32mx/4.5.2/../../../../pic32mx/lib/size\libmchp_peripheral_32MX795F512L.a(int_enable_interrupts_lib.o)

.data%z166      0x00000000        0x0
 .data          0x00000000        0x0 d:/program files (x86)/microchip/xc32/v1.20/bin/../lib/gcc/pic32mx/4.5.2/../../../../pic32mx/lib/size\libmchp_peripheral_32MX795F512L.a(int_enable_interrupts_lib.o)

.bss%z167       0x00000000        0x0
 .bss           0x00000000        0x0 d:/program files (x86)/microchip/xc32/v1.20/bin/../lib/gcc/pic32mx/4.5.2/../../../../pic32mx/lib/size\libmchp_peripheral_32MX795F512L.a(puts_uartx_lib_legacy.o)

.data%z168      0x00000000        0x0
 .data          0x00000000        0x0 d:/program files (x86)/microchip/xc32/v1.20/bin/../lib/gcc/pic32mx/4.5.2/../../../../pic32mx/lib/size\libmchp_peripheral_32MX795F512L.a(puts_uartx_lib_legacy.o)

.bss%z169       0x00000000        0x0
 .bss           0x00000000        0x0 d:/program files (x86)/microchip/xc32/v1.20/bin/../lib/gcc/pic32mx/4.5.2/../../../../pic32mx/lib/size\libmchp_peripheral_32MX795F512L.a(int_enable_mv_int_lib.o)

.data%z170      0x00000000        0x0
 .data          0x00000000        0x0 d:/program files (x86)/microchip/xc32/v1.20/bin/../lib/gcc/pic32mx/4.5.2/../../../../pic32mx/lib/size\libmchp_peripheral_32MX795F512L.a(int_enable_mv_int_lib.o)

.bss%z171       0x00000000        0x0
 .bss           0x00000000        0x0 d:/program files (x86)/microchip/xc32/v1.20/bin/../lib/gcc/pic32mx/4.5.2/../../../../pic32mx/lib/size\libmchp_peripheral_32MX795F512L.a(int_restore_interrupts_lib.o)

.data%z172      0x00000000        0x0
 .data          0x00000000        0x0 d:/program files (x86)/microchip/xc32/v1.20/bin/../lib/gcc/pic32mx/4.5.2/../../../../pic32mx/lib/size\libmchp_peripheral_32MX795F512L.a(int_restore_interrupts_lib.o)

.bss%z173       0x00000000        0x0
 .bss           0x00000000        0x0 d:/program files (x86)/microchip/xc32/v1.20/bin/../lib/gcc/pic32mx/4.5.2/../../../../pic32mx/lib/size\libmchp_peripheral_32MX795F512L.a(int_disable_interrupts_lib.o)

.data%z174      0x00000000        0x0
 .data          0x00000000        0x0 d:/program files (x86)/microchip/xc32/v1.20/bin/../lib/gcc/pic32mx/4.5.2/../../../../pic32mx/lib/size\libmchp_peripheral_32MX795F512L.a(int_disable_interrupts_lib.o)

.bss%z175       0x00000000        0x0
 .bss           0x00000000        0x0 d:/program files (x86)/microchip/xc32/v1.20/bin/../lib/gcc/pic32mx/4.5.2/../../../../pic32mx/lib/size\libmchp_peripheral_32MX795F512L.a(pcache.o)

.data%z176      0x00000000        0x0
 .data          0x00000000        0x0 d:/program files (x86)/microchip/xc32/v1.20/bin/../lib/gcc/pic32mx/4.5.2/../../../../pic32mx/lib/size\libmchp_peripheral_32MX795F512L.a(pcache.o)

.bss%z177       0x00000000        0x0
 .bss           0x00000000        0x0 d:/program files (x86)/microchip/xc32/v1.20/bin/../lib/gcc/pic32mx/4.5.2/../../../../pic32mx/lib/size\libmchp_peripheral_32MX795F512L.a(soft_reset_lib.o)

.data%z178      0x00000000        0x0
 .data          0x00000000        0x0 d:/program files (x86)/microchip/xc32/v1.20/bin/../lib/gcc/pic32mx/4.5.2/../../../../pic32mx/lib/size\libmchp_peripheral_32MX795F512L.a(soft_reset_lib.o)

.bss%z179       0x00000000        0x0
 .bss           0x00000000        0x0 d:/program files (x86)/microchip/xc32/v1.20/bin/../lib/gcc/pic32mx/4.5.2/../../../../pic32mx/lib/./proc/32MX795F512L\processor.o

.data%z180      0x00000000        0x0
 .data          0x00000000        0x0 d:/program files (x86)/microchip/xc32/v1.20/bin/../lib/gcc/pic32mx/4.5.2/../../../../pic32mx/lib/./proc/32MX795F512L\processor.o

.bss%z181       0x00000000        0x0
 .bss           0x00000000        0x0 d:/program files (x86)/microchip/xc32/v1.20/bin/../lib/gcc/pic32mx/4.5.2/../../../../pic32mx/lib/./proc/32MX795F512L\default_isr_vectors.o

.data%z182      0x00000000        0x0
 .data          0x00000000        0x0 d:/program files (x86)/microchip/xc32/v1.20/bin/../lib/gcc/pic32mx/4.5.2/../../../../pic32mx/lib/./proc/32MX795F512L\default_isr_vectors.o

.bss%z183       0x00000000        0x0
 .bss           0x00000000        0x0 Obj-XC32-EX16_ENC28\BigInt_helper_PIC32.o

.data%z184      0x00000000        0x0
 .data          0x00000000        0x0 Obj-XC32-EX16_ENC28\BigInt_helper_PIC32.o

.bss%z185       0x00000000        0x0
 .bss           0x00000000        0x0 Obj-XC32-EX16_ENC28\MPFSImg2.o

.data%z186      0x00000000        0x0
 .data          0x00000000        0x0 Obj-XC32-EX16_ENC28\MPFSImg2.o

.bss%z187       0x00000000        0x0
 .bss           0x00000000        0x0 Obj-XC32-EX16_ENC28\UARTConfig.o

.data%z188      0x00000000        0x0
 .data          0x00000000        0x0 Obj-XC32-EX16_ENC28\UARTConfig.o

.bss%z189       0x00000000        0x0
 .bss           0x00000000        0x0 Obj-XC32-EX16_ENC28\SMTPDemo.o

.data%z190      0x00000000        0x0
 .data          0x00000000        0x0 Obj-XC32-EX16_ENC28\SMTPDemo.o

.bss%z191       0x00000000        0x0
 .bss           0x00000000        0x0 Obj-XC32-EX16_ENC28\PingDemo.o

.data%z192      0x00000000        0x0
 .data          0x00000000        0x0 Obj-XC32-EX16_ENC28\PingDemo.o

.bss%z193       0x00000000        0x0
 .bss           0x00000000        0x0 Obj-XC32-EX16_ENC28\GenericTCPServer.o

.data%z194      0x00000000        0x0
 .data          0x00000000        0x0 Obj-XC32-EX16_ENC28\GenericTCPServer.o

.bss%z195       0x00000000        0x0
 .bss           0x00000000        0x0 Obj-XC32-EX16_ENC28\GenericTCPClient.o

.data%z196      0x00000000        0x0
 .data          0x00000000        0x0 Obj-XC32-EX16_ENC28\GenericTCPClient.o

.bss%z197       0x00000000        0x0
 .bss           0x00000000        0x0 Obj-XC32-EX16_ENC28\BerkeleyUDPClientDemo.o

.data%z198      0x00000000        0x0
 .data          0x00000000        0x0 Obj-XC32-EX16_ENC28\BerkeleyUDPClientDemo.o

.bss%z199       0x00000000        0x0
 .bss           0x00000000        0x0 Obj-XC32-EX16_ENC28\BerkeleyTCPServerDemo.o

.data%z200      0x00000000        0x0
 .data          0x00000000        0x0 Obj-XC32-EX16_ENC28\BerkeleyTCPServerDemo.o

.bss%z201       0x00000000        0x0
 .bss           0x00000000        0x0 Obj-XC32-EX16_ENC28\BerkeleyTCPClientDemo.o

.data%z202      0x00000000        0x0
 .data          0x00000000        0x0 Obj-XC32-EX16_ENC28\BerkeleyTCPClientDemo.o

.bss%z203       0x00000000        0x0
 .bss           0x00000000        0x0 Obj-XC32-EX16_ENC28\MainDemo.o

.data%z204      0x00000000        0x0
 .data          0x00000000        0x0 Obj-XC32-EX16_ENC28\MainDemo.o

.bss%z205       0x00000000        0x0
 .bss           0x00000000        0x0 Obj-XC32-EX16_ENC28\CustomSSLCert.o

.data%z206      0x00000000        0x0
 .data          0x00000000        0x0 Obj-XC32-EX16_ENC28\CustomSSLCert.o

.bss%z207       0x00000000        0x0
 .bss           0x00000000        0x0 Obj-XC32-EX16_ENC28\CustomSNMPApp.o

.data%z208      0x00000000        0x0
 .data          0x00000000        0x0 Obj-XC32-EX16_ENC28\CustomSNMPApp.o

.bss%z209       0x00000000        0x0
 .bss           0x00000000        0x0 Obj-XC32-EX16_ENC28\CustomHTTPApp.o

.data%z210      0x00000000        0x0
 .data          0x00000000        0x0 Obj-XC32-EX16_ENC28\CustomHTTPApp.o

.bss%z211       0x00000000        0x0
 .bss           0x00000000        0x0 Obj-XC32-EX16_ENC28\ZeroconfMulticastDNS.o

.data%z212      0x00000000        0x0
 .data          0x00000000        0x0 Obj-XC32-EX16_ENC28\ZeroconfMulticastDNS.o

.bss%z213       0x00000000        0x0
 .bss           0x00000000        0x0 Obj-XC32-EX16_ENC28\ZeroconfLinkLocal.o

.data%z214      0x00000000        0x0
 .data          0x00000000        0x0 Obj-XC32-EX16_ENC28\ZeroconfLinkLocal.o

.bss%z215       0x00000000        0x0
 .bss           0x00000000        0x0 Obj-XC32-EX16_ENC28\ZeroconfHelper.o

.data%z216      0x00000000        0x0
 .data          0x00000000        0x0 Obj-XC32-EX16_ENC28\ZeroconfHelper.o

.bss%z217       0x00000000        0x0
 .bss           0x00000000        0x0 Obj-XC32-EX16_ENC28\UDPPerformanceTest.o

.data%z218      0x00000000        0x0
 .data          0x00000000        0x0 Obj-XC32-EX16_ENC28\UDPPerformanceTest.o

.bss%z219       0x00000000        0x0
 .bss           0x00000000        0x0 Obj-XC32-EX16_ENC28\UDP.o

.data%z220      0x00000000        0x0
 .data          0x00000000        0x0 Obj-XC32-EX16_ENC28\UDP.o

.bss%z221       0x00000000        0x0
 .bss           0x00000000        0x0 Obj-XC32-EX16_ENC28\UART.o

.data%z222      0x00000000        0x0
 .data          0x00000000        0x0 Obj-XC32-EX16_ENC28\UART.o

.bss%z223       0x00000000        0x0
 .bss           0x00000000        0x0 Obj-XC32-EX16_ENC28\UART2TCPBridge.o

.data%z224      0x00000000        0x0
 .data          0x00000000        0x0 Obj-XC32-EX16_ENC28\UART2TCPBridge.o

.bss%z225       0x00000000        0x0
 .bss           0x00000000        0x0 Obj-XC32-EX16_ENC28\Tick.o

.data%z226      0x00000000        0x0
 .data          0x00000000        0x0 Obj-XC32-EX16_ENC28\Tick.o

.bss%z227       0x00000000        0x0
 .bss           0x00000000        0x0 Obj-XC32-EX16_ENC28\TFTPc.o

.data%z228      0x00000000        0x0
 .data          0x00000000        0x0 Obj-XC32-EX16_ENC28\TFTPc.o

.bss%z229       0x00000000        0x0
 .bss           0x00000000        0x0 Obj-XC32-EX16_ENC28\Telnet.o

.data%z230      0x00000000        0x0
 .data          0x00000000        0x0 Obj-XC32-EX16_ENC28\Telnet.o

.data%z231      0x00000000        0x0
 .data          0x00000000        0x0 Obj-XC32-EX16_ENC28\TCPPerformanceTest.o

.data%z232      0x00000000        0x0
 .data          0x00000000        0x0 Obj-XC32-EX16_ENC28\TCP.o

.bss%z233       0x00000000        0x0
 .bss           0x00000000        0x0 Obj-XC32-EX16_ENC28\StackTsk.o

.data%z234      0x00000000        0x0
 .data          0x00000000        0x0 Obj-XC32-EX16_ENC28\StackTsk.o

.bss%z235       0x00000000        0x0
 .bss           0x00000000        0x0 Obj-XC32-EX16_ENC28\SSL.o

.data%z236      0x00000000        0x0
 .data          0x00000000        0x0 Obj-XC32-EX16_ENC28\SSL.o

.bss%z237       0x00000000        0x0
 .bss           0x00000000        0x0 Obj-XC32-EX16_ENC28\SPIRAM.o

.data%z238      0x00000000        0x0
 .data          0x00000000        0x0 Obj-XC32-EX16_ENC28\SPIRAM.o

.bss%z239       0x00000000        0x0
 .bss           0x00000000        0x0 Obj-XC32-EX16_ENC28\SPIFlash.o

.data%z240      0x00000000        0x0
 .data          0x00000000        0x0 Obj-XC32-EX16_ENC28\SPIFlash.o

.data%z241      0x00000000        0x0
 .data          0x00000000        0x0 Obj-XC32-EX16_ENC28\SPIEEPROM.o

.bss%z242       0x00000000        0x0
 .bss           0x00000000        0x0 Obj-XC32-EX16_ENC28\SNTP.o

.data%z243      0x00000000        0x0
 .data          0x00000000        0x0 Obj-XC32-EX16_ENC28\SNTP.o

.bss%z244       0x00000000        0x0
 .bss           0x00000000        0x0 Obj-XC32-EX16_ENC28\SNMPv3USM.o

.data%z245      0x00000000        0x0
 .data          0x00000000        0x0 Obj-XC32-EX16_ENC28\SNMPv3USM.o

.bss%z246       0x00000000        0x0
 .bss           0x00000000        0x0 Obj-XC32-EX16_ENC28\SNMPv3.o

.data%z247      0x00000000        0x0
 .data          0x00000000        0x0 Obj-XC32-EX16_ENC28\SNMPv3.o

.bss%z248       0x00000000        0x0
 .bss           0x00000000        0x0 Obj-XC32-EX16_ENC28\SNMP.o

.data%z249      0x00000000        0x0
 .data          0x00000000        0x0 Obj-XC32-EX16_ENC28\SNMP.o

.bss%z250       0x00000000        0x0
 .bss           0x00000000        0x0 Obj-XC32-EX16_ENC28\SMTP.o

.data%z251      0x00000000        0x0
 .data          0x00000000        0x0 Obj-XC32-EX16_ENC28\SMTP.o

.bss%z252       0x00000000        0x0
 .bss           0x00000000        0x0 Obj-XC32-EX16_ENC28\RSA.o

.data%z253      0x00000000        0x0
 .data          0x00000000        0x0 Obj-XC32-EX16_ENC28\RSA.o

.bss%z254       0x00000000        0x0
 .bss           0x00000000        0x0 Obj-XC32-EX16_ENC28\Reboot.o

.data%z255      0x00000000        0x0
 .data          0x00000000        0x0 Obj-XC32-EX16_ENC28\Reboot.o

.bss%z256       0x00000000        0x0
 .bss           0x00000000        0x0 Obj-XC32-EX16_ENC28\Random.o

.data%z257      0x00000000        0x0
 .data          0x00000000        0x0 Obj-XC32-EX16_ENC28\Random.o

.bss%z258       0x00000000        0x0
 .bss           0x00000000        0x0 Obj-XC32-EX16_ENC28\NBNS.o

.data%z259      0x00000000        0x0
 .data          0x00000000        0x0 Obj-XC32-EX16_ENC28\NBNS.o

.data%z260      0x00000000        0x0
 .data          0x00000000        0x0 Obj-XC32-EX16_ENC28\MPFS2.o

.bss%z261       0x00000000        0x0
 .bss           0x00000000        0x0 Obj-XC32-EX16_ENC28\LCDBlocking.o

.data%z262      0x00000000        0x0
 .data          0x00000000        0x0 Obj-XC32-EX16_ENC28\LCDBlocking.o

.bss%z263       0x00000000        0x0
 .bss           0x00000000        0x0 Obj-XC32-EX16_ENC28\IP.o

.data%z264      0x00000000        0x0
 .data          0x00000000        0x0 Obj-XC32-EX16_ENC28\IP.o

.data%z265      0x00000000        0x0
 .data          0x00000000        0x0 Obj-XC32-EX16_ENC28\ICMP.o

.bss%z266       0x00000000        0x0
 .bss           0x00000000        0x0 Obj-XC32-EX16_ENC28\HTTP2.o

.data%z267      0x00000000        0x0
 .data          0x00000000        0x0 Obj-XC32-EX16_ENC28\HTTP2.o

.bss%z268       0x00000000        0x0
 .bss           0x00000000        0x0 Obj-XC32-EX16_ENC28\Helpers.o

.data%z269      0x00000000        0x0
 .data          0x00000000        0x0 Obj-XC32-EX16_ENC28\Helpers.o

.bss%z270       0x00000000        0x0
 .bss           0x00000000        0x0 Obj-XC32-EX16_ENC28\Hashes.o

.data%z271      0x00000000        0x0
 .data          0x00000000        0x0 Obj-XC32-EX16_ENC28\Hashes.o

.bss%z272       0x00000000        0x0
 .bss           0x00000000        0x0 Obj-XC32-EX16_ENC28\FTP.o

.data%z273      0x00000000        0x0
 .data          0x00000000        0x0 Obj-XC32-EX16_ENC28\FTP.o

.bss%z274       0x00000000        0x0
 .bss           0x00000000        0x0 Obj-XC32-EX16_ENC28\FileSystem.o

.data%z275      0x00000000        0x0
 .data          0x00000000        0x0 Obj-XC32-EX16_ENC28\FileSystem.o

.bss%z276       0x00000000        0x0
 .bss           0x00000000        0x0 Obj-XC32-EX16_ENC28\ENCX24J600.o

.data%z277      0x00000000        0x0
 .data          0x00000000        0x0 Obj-XC32-EX16_ENC28\ENCX24J600.o

.bss%z278       0x00000000        0x0
 .bss           0x00000000        0x0 Obj-XC32-EX16_ENC28\ENC28J60.o

.data%z279      0x00000000        0x0
 .data          0x00000000        0x0 Obj-XC32-EX16_ENC28\ENC28J60.o

.bss%z280       0x00000000        0x0
 .bss           0x00000000        0x0 Obj-XC32-EX16_ENC28\DynDNS.o

.data%z281      0x00000000        0x0
 .data          0x00000000        0x0 Obj-XC32-EX16_ENC28\DynDNS.o

.bss%z282       0x00000000        0x0
 .bss           0x00000000        0x0 Obj-XC32-EX16_ENC28\DNSs.o

.data%z283      0x00000000        0x0
 .data          0x00000000        0x0 Obj-XC32-EX16_ENC28\DNSs.o

.data%z284      0x00000000        0x0
 .data          0x00000000        0x0 Obj-XC32-EX16_ENC28\DNS.o

.bss%z285       0x00000000        0x0
 .bss           0x00000000        0x0 Obj-XC32-EX16_ENC28\DHCPs.o

.data%z286      0x00000000        0x0
 .data          0x00000000        0x0 Obj-XC32-EX16_ENC28\DHCPs.o

.data%z287      0x00000000        0x0
 .data          0x00000000        0x0 Obj-XC32-EX16_ENC28\DHCP.o

.bss%z288       0x00000000        0x0
 .bss           0x00000000        0x0 Obj-XC32-EX16_ENC28\Delay.o

.data%z289      0x00000000        0x0
 .data          0x00000000        0x0 Obj-XC32-EX16_ENC28\Delay.o

.bss%z290       0x00000000        0x0
 .bss           0x00000000        0x0 Obj-XC32-EX16_ENC28\BigInt.o

.data%z291      0x00000000        0x0
 .data          0x00000000        0x0 Obj-XC32-EX16_ENC28\BigInt.o

.bss%z292       0x00000000        0x0
 .bss           0x00000000        0x0 Obj-XC32-EX16_ENC28\BerkeleyAPI.o

.data%z293      0x00000000        0x0
 .data          0x00000000        0x0 Obj-XC32-EX16_ENC28\BerkeleyAPI.o

.bss%z294       0x00000000        0x0
 .bss           0x00000000        0x0 Obj-XC32-EX16_ENC28\AutoIP.o

.data%z295      0x00000000        0x0
 .data          0x00000000        0x0 Obj-XC32-EX16_ENC28\AutoIP.o

.data%z296      0x00000000        0x0
 .data          0x00000000        0x0 Obj-XC32-EX16_ENC28\ARP.o

.bss%z297       0x00000000        0x0
 .bss           0x00000000        0x0 Obj-XC32-EX16_ENC28\ARCFOUR.o

.data%z298      0x00000000        0x0
 .data          0x00000000        0x0 Obj-XC32-EX16_ENC28\ARCFOUR.o

.bss%z299       0x00000000        0x0
 .bss           0x00000000        0x0 Obj-XC32-EX16_ENC28\Announce.o

.data%z300      0x00000000        0x0
 .data          0x00000000        0x0 Obj-XC32-EX16_ENC28\Announce.o

.bss%z301       0x00000000        0x0
 .bss           0x00000000        0x0 d:/program files (x86)/microchip/xc32/v1.20/bin/../lib/gcc/pic32mx/4.5.2/../../../../pic32mx/lib/size/crt0.o

.data%z302      0x00000000        0x0
 .data          0x00000000        0x0 d:/program files (x86)/microchip/xc32/v1.20/bin/../lib/gcc/pic32mx/4.5.2/../../../../pic32mx/lib/size/crt0.o

.text           0x9d000020    0x1ace4
 .text          0x9d000020     0x8454 Obj-XC32-EX16_ENC28\TCP.o
                0x9d000150                TCPInit
                0x9d000424                TCPOpen
                0x9d0008a4                TCPWasReset
                0x9d000958                TCPIsConnected
                0x9d0009cc                TCPDisconnect
                0x9d000c74                TCPClose
                0x9d000d00                TCPGetRemoteInfo
                0x9d000d98                TCPFlush
                0x9d000e38                TCPIsPutReady
                0x9d001030                TCPPut
                0x9d001384                TCPPutArray
                0x9d0017f4                TCPPutString
                0x9d001864                TCPGetTxFIFOFull
                0x9d001934                TCPDiscard
                0x9d0019d4                TCPIsGetReady
                0x9d001b74                TCPGet
                0x9d001de8                TCPGetArray
                0x9d0021a0                TCPGetRxFIFOFree
                0x9d002268                TCPPeekArray
                0x9d002520                TCPPeek
                0x9d002580                TCPFindArrayEx
                0x9d002bac                TCPFindEx
                0x9d002c24                TCPTick
                0x9d003ca8                TCPProcess
                0x9d007bb0                TCPAdjustFIFOSize
 .text          0x9d008474     0x41e4 Obj-XC32-EX16_ENC28\HTTP2.o
                0x9d008474                HTTPPrint
                0x9d008a94                HTTPPrint_
                0x9d008ae8                HTTPInit
                0x9d008c04                HTTPServer
                0x9d00b7b8                HTTPURLDecode
                0x9d00b994                HTTPGetArg
                0x9d00ba64                HTTPReadPostName
                0x9d00bae0                HTTPReadPostValue
                0x9d00c440                HTTPIncFile
 .text          0x9d00c658     0x2590 Obj-XC32-EX16_ENC28\ENC28J60.o
                0x9d00c658                MACInit
                0x9d00c9c4                MACIsLinked
                0x9d00ca0c                MACIsTxReady
                0x9d00ca58                MACDiscardRx
                0x9d00cb00                MACGetFreeRxSize
                0x9d00cc70                MACGetHeader
                0x9d00ce58                MACPutHeader
                0x9d00cf50                MACFlush
                0x9d00d264                MACSetReadPtrInRx
                0x9d00d2f8                MACSetWritePtr
                0x9d00d390                MACSetReadPtr
                0x9d00d428                MACCalcRxChecksum
                0x9d00d53c                CalcIPBufferChecksum
                0x9d00d6e4                MACMemCopyAsync
                0x9d00db94                MACIsMemCopyDone
                0x9d00dbe0                MACGet
                0x9d00dc8c                MACGetArray
                0x9d00df10                MACPut
                0x9d00dfcc                MACPutArray
                0x9d00e524                ReadPHYReg
                0x9d00e8f4                WritePHYReg
                0x9d00ea18                MACPowerDown
                0x9d00eab8                MACPowerUp
                0x9d00eb2c                SetCLKOUT
                0x9d00eb88                GetCLKOUT
 .text          0x9d00ebe8     0x22d4 Obj-XC32-EX16_ENC28\CustomHTTPApp.o
                0x9d00ebe8                HTTPNeedsAuth
                0x9d00ec70                HTTPCheckAuth
                0x9d00ecf0                HTTPExecuteGet
                0x9d00f104                HTTPExecutePost
                0x9d00fa94                HTTPPrint_builddate
                0x9d00fb50                HTTPPrint_version
                0x9d00fbb0                HTTPPrint_btn
                0x9d00fcf4                HTTPPrint_led
                0x9d00fea0                HTTPPrint_ledSelected
                0x9d010070                HTTPPrint_pot
                0x9d0100f0                HTTPPrint_lcdtext
                0x9d010320                HTTPPrint_hellomsg
                0x9d0103d8                HTTPPrint_cookiename
                0x9d010498                HTTPPrint_uploadeImage
                0x9d0104b8                HTTPPrint_uploadedmd5
                0x9d010578                HTTPPrintIP
                0x9d010660                HTTPPrint_config_hostname
                0x9d0106b8                HTTPPrint_config_dhcpchecked
                0x9d010734                HTTPPrint_config_ip
                0x9d010780                HTTPPrint_config_gw
                0x9d0107cc                HTTPPrint_config_subnet
                0x9d010818                HTTPPrint_config_dns1
                0x9d010864                HTTPPrint_config_dns2
                0x9d0108b0                HTTPPrint_config_mac
                0x9d010a3c                HTTPPrint_read_comm
                0x9d010a64                HTTPPrint_write_comm
                0x9d010a8c                HTTPPrint_reboot
                0x9d010aa4                HTTPPrint_rebootaddr
                0x9d010afc                HTTPPrint_ddns_user
                0x9d010b1c                HTTPPrint_ddns_pass
                0x9d010b3c                HTTPPrint_ddns_host
                0x9d010b5c                HTTPPrint_ddns_service
                0x9d010b84                HTTPPrint_ddns_status
                0x9d010be4                HTTPPrint_ddns_status_msg
                0x9d010c9c                HTTPPrint_smtps_en
                0x9d010cfc                HTTPPrint_snmp_en
                0x9d010d5c                HTTPPrint_status_ok
                0x9d010e0c                HTTPPrint_status_fail
 .text          0x9d010ebc     0x1934 Obj-XC32-EX16_ENC28\DHCP.o
                0x9d010ebc                DHCPInit
                0x9d010fc0                DHCPDisable
                0x9d011030                DHCPEnable
                0x9d0110a0                DHCPIsEnabled
                0x9d0110d8                DHCPIsBound
                0x9d011114                DHCPStateChanged
                0x9d011178                DHCPIsServerDetected
                0x9d0111b4                DHCPTempIPAddr
                0x9d0111f0                DHCPTask
 .text          0x9d0127f0     0x1904 Obj-XC32-EX16_ENC28\DHCPs.o
                0x9d0127f0                DHCPServerTask
                0x9d01406c                DHCPServer_Disable
                0x9d0140c0                DHCPServer_Enable
 .text          0x9d0140f4     0x188c Obj-XC32-EX16_ENC28\MPFS2.o
                0x9d0140f4                MPFSInit
                0x9d014184                MPFSOpen
                0x9d014490                MPFSOpenID
                0x9d0145f0                MPFSClose
                0x9d014654                MPFSGet
                0x9d014884                MPFSGetArray
                0x9d014ac4                MPFSGetLong
                0x9d014b1c                MPFSSeek
                0x9d014ec8                MPFSFormat
                0x9d014fb0                MPFSPutArray
                0x9d01512c                MPFSPutEnd
                0x9d015254                MPFSGetTimestamp
                0x9d015308                MPFSGetMicrotime
                0x9d0153bc                MPFSGetFlags
                0x9d015470                MPFSGetSize
                0x9d015524                MPFSGetBytesRem
                0x9d0155b8                MPFSGetStartAddr
                0x9d01566c                MPFSGetEndAddr
                0x9d015730                MPFSGetFilename
                0x9d015828                MPFSGetPosition
                0x9d015890                MPFSGetID
 .text          0x9d015980     0x1330 Obj-XC32-EX16_ENC28\Helpers.o
                0x9d015980                LFSRSeedRand
                0x9d015a04                LFSRRand
                0x9d015a7c                GenerateRandomDWORD
                0x9d015cd8                StringToIPAddress
                0x9d015fec                Base64Decode
                0x9d016318                uitoa
                0x9d016448                hexatob
                0x9d01653c                btohexa_high
                0x9d0165a0                btohexa_low
                0x9d016604                stricmppgm2ram
                0x9d016770                swaps
                0x9d0167bc                swapl
                0x9d0168a4                CalcIPChecksum
                0x9d01698c                strupr
                0x9d016a28                FormatNetBIOSName
                0x9d016af0                strnchr
                0x9d016ba4                strncpy_m
 .text          0x9d016cb0     0x1258 Obj-XC32-EX16_ENC28\UDP.o
                0x9d016cb0                UDPInit
                0x9d016d20                UDPOpenEx
                0x9d016f74                UDPTask
                0x9d017444                UDPIsOpened
                0x9d017490                UDPClose
                0x9d01752c                UDPSetTxBuffer
                0x9d017578                UDPSetRxBuffer
                0x9d0175c8                UDPIsPutReady
                0x9d017654                UDPPut
                0x9d0176e0                UDPPutArray
                0x9d017788                UDPPutString
                0x9d0177e0                UDPFlush
                0x9d0179a0                UDPIsGetReady
                0x9d017a30                UDPGet
                0x9d017ab4                UDPGetArray
                0x9d017b74                UDPDiscard
                0x9d017bd4                UDPProcess
 .text          0x9d017f08      0xf48 Obj-XC32-EX16_ENC28\DNS.o
                0x9d017f08                DNSBeginUsage
                0x9d017f5c                DNSEndUsage
                0x9d017fcc                DNSResolve
                0x9d018060                DNSIsResolved
 .text          0x9d018e50      0xcb0 Obj-XC32-EX16_ENC28\MainDemo.o
                0x9d018e50                _general_exception_handler
                0x9d018e7c                main
                0x9d019100                DisplayIPValue
                0x9d019a78                SaveAppConfig
 .text          0x9d019b00      0x988 Obj-XC32-EX16_ENC28\SPIEEPROM.o
                0x9d019b00                XEEInit
                0x9d019b90                XEEBeginRead
                0x9d019bc4                XEERead
                0x9d019c58                XEEEndRead
                0x9d019c7c                XEEReadArray
                0x9d019ec8                XEEBeginWrite
                0x9d019efc                XEEWrite
                0x9d019fa0                XEEWriteArray
                0x9d01a024                XEEEndWrite
                0x9d01a32c                XEEIsBusy
 .text          0x9d01a488      0x87c Obj-XC32-EX16_ENC28\UARTConfig.o
                0x9d01a488                DoUARTConfig

.rodata         0x9d01ad04      0x878
 .rodata        0x9d01ad04      0x878 Obj-XC32-EX16_ENC28\HTTP2.o

.text           0x9d01b57c     0x3a60
 .text          0x9d01b57c      0x724 Obj-XC32-EX16_ENC28\NBNS.o
                0x9d01b57c                NBNSTask
 .text          0x9d01bca0      0x6d0 Obj-XC32-EX16_ENC28\TCPPerformanceTest.o
                0x9d01bca0                TCPPerformanceTask
                0x9d01bcd8                TCPTXPerformanceTask
                0x9d01c0b4                TCPRXPerformanceTask
 .text          0x9d01c370      0x640 Obj-XC32-EX16_ENC28\ARP.o
                0x9d01c370                ARPSendPkt
                0x9d01c510                ARPInit
                0x9d01c59c                ARPProcess
                0x9d01c760                ARPResolve
                0x9d01c844                ARPIsResolved
                0x9d01c924                SwapARPPacket
 .text          0x9d01c9b0      0x638 Obj-XC32-EX16_ENC28\ICMP.o
                0x9d01c9b0                ICMPProcess
                0x9d01cbd0                ICMPSendPing
                0x9d01cc28                ICMPSendPingToHost
                0x9d01cc8c                ICMPGetReply
                0x9d01cf68                ICMPBeginUsage
                0x9d01cfbc                ICMPEndUsage
 .text          0x9d01cfe8      0x490 Obj-XC32-EX16_ENC28\LCDBlocking.o
                0x9d01d0cc                LCDInit
                0x9d01d248                LCDUpdate
                0x9d01d41c                LCDErase
 .text          0x9d01d478      0x460 d:/program files (x86)/microchip/xc32/v1.20/bin/../lib/gcc/pic32mx/4.5.2/size\libgcc.a(_umoddi3.o)
                0x9d01d478                __umoddi3
 .text          0x9d01d8d8      0x440 d:/program files (x86)/microchip/xc32/v1.20/bin/../lib/gcc/pic32mx/4.5.2/size\libgcc.a(_udivdi3.o)
                0x9d01d8d8                __udivdi3
 .text          0x9d01dd18      0x418 Obj-XC32-EX16_ENC28\StackTsk.o
                0x9d01dd18                StackInit
                0x9d01dde0                StackTask
                0x9d01e0d0                StackApplications
 .text          0x9d01e130      0x3f8 Obj-XC32-EX16_ENC28\SNTP.o
                0x9d01e130                SNTPClient
                0x9d01e490                SNTPGetUTCSeconds
 .text          0x9d01e528      0x3c0 Obj-XC32-EX16_ENC28\Announce.o
                0x9d01e528                AnnounceIP
                0x9d01e6a4                DiscoveryTask
 .text          0x9d01e8e8      0x3ac Obj-XC32-EX16_ENC28\Tick.o
                0x9d01e8e8                TickInit
                0x9d01ea2c                TickGet
                0x9d01eaac                TickGetDiv256
                0x9d01eb2c                TickGetDiv64K
                0x9d01ebac                TickConvertToMilliseconds
                0x9d01ec14                _T1Interrupt
 .text          0x9d01ec94      0x348 Obj-XC32-EX16_ENC28\IP.o
                0x9d01ec94                IPGetHeader
                0x9d01edd4                IPPutHeader
                0x9d01ef00                IPSetRxBuffer

.dinit          0x9d01efdc      0x284
 .dinit         0x9d01efdc      0x284 data_init

.text           0x9d01f260      0x240
 .text          0x9d01f260      0x240 Obj-XC32-EX16_ENC28\PingDemo.o
                0x9d01f260                PingDemo

.rodata         0x9d01f4a0      0x3c4
 .rodata        0x9d01f4a0      0x21c Obj-XC32-EX16_ENC28\UARTConfig.o
 .rodata        0x9d01f6bc      0x1a8 Obj-XC32-EX16_ENC28\CustomHTTPApp.o
                0x9d01f7c8                HTML_UP_ARROW
                0x9d01f7cc                HTML_DOWN_ARROW

.text           0x9d01f864      0x710
 .text          0x9d01f864      0x1a0 d:/program files (x86)/microchip/xc32/v1.20/bin/../lib/gcc/pic32mx/4.5.2/../../../../pic32mx/lib/size\libpic32.a(strcpy.o)
                0x9d01f864                strcpy
 .text          0x9d01fa04      0x180 Obj-XC32-EX16_ENC28\Reboot.o
                0x9d01fa04                RebootTask
 .text          0x9d01fb84      0x168 d:/program files (x86)/microchip/xc32/v1.20/bin/../lib/gcc/pic32mx/4.5.2/../../../../pic32mx/lib/size\libpic32.a(memcpy.o)
                0x9d01fb84                memcpy
 .text          0x9d01fcec      0x168 d:/program files (x86)/microchip/xc32/v1.20/bin/../lib/gcc/pic32mx/4.5.2/../../../../pic32mx/lib/size\libpic32.a(strlen.o)
                0x9d01fcec                strlen
 .text          0x9d01fe54      0x120 d:/program files (x86)/microchip/xc32/v1.20/bin/../lib/gcc/pic32mx/4.5.2/../../../../pic32mx/lib/size\libpic32.a(strcmp.o)
                0x9d01fe54                strcmp

.rodata         0x9d01ff74      0x104
 .rodata        0x9d01ff74      0x104 d:/program files (x86)/microchip/xc32/v1.20/bin/../lib/gcc/pic32mx/4.5.2/../../../../pic32mx/lib/size\libc.a(ctype.o)
                0x9d01ff74                _ctype

.text           0x9d020078       0xec
 .text          0x9d020078       0xec Obj-XC32-EX16_ENC28\Delay.o
                0x9d020078                DelayMs
                0x9d02010c                Delay10us

.text.general_exception
                0x9d020164       0xd0
 .text.general_exception
                0x9d020164       0xd0 d:/program files (x86)/microchip/xc32/v1.20/bin/../lib/gcc/pic32mx/4.5.2/../../../../pic32mx/lib/size\libpic32.a(general-exception.o)
                0x9d020164                _general_exception_context

.text           0x9d020234      0x174
 .text          0x9d020234       0xcc Obj-XC32-EX16_ENC28\UART.o
                0x9d020234                ReadStringUART
 .text          0x9d020300       0xa8 d:/program files (x86)/microchip/xc32/v1.20/bin/../lib/gcc/pic32mx/4.5.2/../../../../pic32mx/lib/size\libpic32.a(memset.o)
                0x9d020300                memset

.rodata         0x9d0203a8       0x9c
 .rodata        0x9d0203a8       0x9c Obj-XC32-EX16_ENC28\MainDemo.o

.text           0x9d020444       0x98
 .text          0x9d020444       0x98 d:/program files (x86)/microchip/xc32/v1.20/bin/../lib/gcc/pic32mx/4.5.2/../../../../pic32mx/lib/size\libpic32.a(memcmp.o)
                0x9d020444                memcmp

.text.atol      0x9d0204dc       0x90
 .text.atol     0x9d0204dc       0x90 d:/program files (x86)/microchip/xc32/v1.20/bin/../lib/gcc/pic32mx/4.5.2/../../../../pic32mx/lib/size\libc.a(atol.o)
                0x9d0204dc                atol

.text.atoi      0x9d02056c       0x84
 .text.atoi     0x9d02056c       0x84 d:/program files (x86)/microchip/xc32/v1.20/bin/../lib/gcc/pic32mx/4.5.2/../../../../pic32mx/lib/size\libc.a(atoi.o)
                0x9d02056c                atoi

.text.SoftReset
                0x9d0205f0       0x78
 .text.SoftReset
                0x9d0205f0       0x78 d:/program files (x86)/microchip/xc32/v1.20/bin/../lib/gcc/pic32mx/4.5.2/../../../../pic32mx/lib/size\libmchp_peripheral_32MX795F512L.a(soft_reset_lib.o)
                0x9d0205f0                SoftReset

.text.ultoa     0x9d020668       0x68
 .text.ultoa    0x9d020668       0x68 d:/program files (x86)/microchip/xc32/v1.20/bin/../lib/gcc/pic32mx/4.5.2/../../../../pic32mx/lib/size\libc.a(ltoa.o)
                0x9d020668                ultoa

.rodata         0x9d0206d0       0x5c
 .rodata        0x9d0206d0       0x5c Obj-XC32-EX16_ENC28\TCPPerformanceTest.o

.text.strncpy   0x9d02072c       0x50
 .text.strncpy  0x9d02072c       0x50 d:/program files (x86)/microchip/xc32/v1.20/bin/../lib/gcc/pic32mx/4.5.2/../../../../pic32mx/lib/size\libc.a(strncpy.o)
                0x9d02072c                strncpy

.text.putsUART1
                0x9d02077c       0x48
 .text.putsUART1
                0x9d02077c       0x48 d:/program files (x86)/microchip/xc32/v1.20/bin/../lib/gcc/pic32mx/4.5.2/../../../../pic32mx/lib/size\libmchp_peripheral_32MX795F512L.a(puts_uartx_lib_legacy.o)
                0x9d02077c                putsUART1

.text.putsUART2
                0x9d0207c4       0x48
 .text.putsUART2
                0x9d0207c4       0x48 d:/program files (x86)/microchip/xc32/v1.20/bin/../lib/gcc/pic32mx/4.5.2/../../../../pic32mx/lib/size\libmchp_peripheral_32MX795F512L.a(puts_uartx_lib_legacy.o)
                0x9d0207c4                putsUART2

.text._DefaultInterrupt
                0x9d02080c       0x48
 .text._DefaultInterrupt
                0x9d02080c       0x48 d:/program files (x86)/microchip/xc32/v1.20/bin/../lib/gcc/pic32mx/4.5.2/../../../../pic32mx/lib/size\libpic32.a(defaultinterrupt.o)
                0x9d02080c                _DefaultInterrupt

.rodata         0x9d020854       0x44
 .rodata        0x9d020854       0x44 Obj-XC32-EX16_ENC28\PingDemo.o

.text.ltoa      0x9d020898       0x40
 .text.ltoa     0x9d020898       0x40 d:/program files (x86)/microchip/xc32/v1.20/bin/../lib/gcc/pic32mx/4.5.2/../../../../pic32mx/lib/size\libc.a(ltoa.o)
                0x9d020898                ltoa

.text           0x9d0208d8       0x38
 .text          0x9d0208d8       0x38 d:/program files (x86)/microchip/xc32/v1.20/bin/../lib/gcc/pic32mx/4.5.2/../../../../pic32mx/lib/size/crt0.o
                0x9d020904                __crt0_exit

.rodata         0x9d020910       0x38
 .rodata        0x9d020910       0x38 Obj-XC32-EX16_ENC28\TCP.o
                0x9d020910                TCPSocketInitializer

.text.INTEnableSystemMultiVectoredInt
                0x9d020948       0x34
 .text.INTEnableSystemMultiVectoredInt
                0x9d020948       0x34 d:/program files (x86)/microchip/xc32/v1.20/bin/../lib/gcc/pic32mx/4.5.2/../../../../pic32mx/lib/size\libmchp_peripheral_32MX795F512L.a(int_enable_mv_int_lib.o)
                0x9d020948                INTEnableSystemMultiVectoredInt

.rodata         0x9d02097c       0x1c
 .rodata        0x9d02097c       0x1c Obj-XC32-EX16_ENC28\Announce.o

.text.INTRestoreInterrupts
                0x9d020998       0x1c
 .text.INTRestoreInterrupts
                0x9d020998       0x1c d:/program files (x86)/microchip/xc32/v1.20/bin/../lib/gcc/pic32mx/4.5.2/../../../../pic32mx/lib/size\libmchp_peripheral_32MX795F512L.a(int_restore_interrupts_lib.o)
                0x9d020998                INTRestoreInterrupts

.text.CheKseg0CacheOff
                0x9d0209b4       0x18
 .text.CheKseg0CacheOff
                0x9d0209b4       0x18 d:/program files (x86)/microchip/xc32/v1.20/bin/../lib/gcc/pic32mx/4.5.2/../../../../pic32mx/lib/size\libmchp_peripheral_32MX795F512L.a(pcache.o)
                0x9d0209b4                CheKseg0CacheOff

.text.CheKseg0CacheOn
                0x9d0209cc       0x18
 .text.CheKseg0CacheOn
                0x9d0209cc       0x18 d:/program files (x86)/microchip/xc32/v1.20/bin/../lib/gcc/pic32mx/4.5.2/../../../../pic32mx/lib/size\libmchp_peripheral_32MX795F512L.a(pcache.o)
                0x9d0209cc                CheKseg0CacheOn

.text           0x9d0209e4       0x18
 .text          0x9d0209e4       0x18 d:/program files (x86)/microchip/xc32/v1.20/bin/../lib/gcc/pic32mx/4.5.2/../../../../pic32mx/lib/size\libpic32.a(default-nmi-handler.o)
                0x9d0209e4                _nmi_handler

.rodata         0x9d0209fc       0x24
 .rodata        0x9d0209fc       0x14 Obj-XC32-EX16_ENC28\Reboot.o
 .rodata        0x9d020a10       0x10 Obj-XC32-EX16_ENC28\SNTP.o

.text._bootstrap_exception_handler
                0x9d020a20        0xc
 .text._bootstrap_exception_handler
                0x9d020a20        0xc d:/program files (x86)/microchip/xc32/v1.20/bin/../lib/gcc/pic32mx/4.5.2/../../../../pic32mx/lib/size\libpic32.a(default-bootstrap-exception-handler.o)
                0x9d020a20                _bootstrap_exception_handler

.rodata         0x9d020a2c        0x8
 .rodata        0x9d020a2c        0x8 Obj-XC32-EX16_ENC28\MPFS2.o

.text.INTDisableInterrupts
                0x9d020a34        0x8
 .text.INTDisableInterrupts
                0x9d020a34        0x8 d:/program files (x86)/microchip/xc32/v1.20/bin/../lib/gcc/pic32mx/4.5.2/../../../../pic32mx/lib/size\libmchp_peripheral_32MX795F512L.a(int_disable_interrupts_lib.o)
                0x9d020a34                INTDisableInterrupts

.text.INTEnableInterrupts
                0x9d020a3c        0x8
 .text.INTEnableInterrupts
                0x9d020a3c        0x8 d:/program files (x86)/microchip/xc32/v1.20/bin/../lib/gcc/pic32mx/4.5.2/../../../../pic32mx/lib/size\libmchp_peripheral_32MX795F512L.a(int_enable_interrupts_lib.o)
                0x9d020a3c                INTEnableInterrupts

.text._on_reset
                0x9d020a44        0x8
 .text._on_reset
                0x9d020a44        0x8 d:/program files (x86)/microchip/xc32/v1.20/bin/../lib/gcc/pic32mx/4.5.2/../../../../pic32mx/lib/size\libpic32.a(default-on-reset.o)
                0x9d020a44                _on_reset

.text._on_bootstrap
                0x9d020a4c        0x8
 .text._on_bootstrap
                0x9d020a4c        0x8 d:/program files (x86)/microchip/xc32/v1.20/bin/../lib/gcc/pic32mx/4.5.2/../../../../pic32mx/lib/size\libpic32.a(default-on-bootstrap.o)
                0x9d020a4c                _on_bootstrap

.text%z303      0x00000000        0x0
 .text          0x00000000        0x0 d:/program files (x86)/microchip/xc32/v1.20/bin/../lib/gcc/pic32mx/4.5.2/../../../../pic32mx/lib/size\libc.a(strncpy.o)

.text%z304      0x00000000        0x0
 .text          0x00000000        0x0 d:/program files (x86)/microchip/xc32/v1.20/bin/../lib/gcc/pic32mx/4.5.2/../../../../pic32mx/lib/size\libc.a(ltoa.o)

.text%z305      0x00000000        0x0
 .text          0x00000000        0x0 d:/program files (x86)/microchip/xc32/v1.20/bin/../lib/gcc/pic32mx/4.5.2/../../../../pic32mx/lib/size\libc.a(ctype.o)

.text%z306      0x00000000        0x0
 .text          0x00000000        0x0 d:/program files (x86)/microchip/xc32/v1.20/bin/../lib/gcc/pic32mx/4.5.2/../../../../pic32mx/lib/size\libc.a(atol.o)

.text%z307      0x00000000        0x0
 .text          0x00000000        0x0 d:/program files (x86)/microchip/xc32/v1.20/bin/../lib/gcc/pic32mx/4.5.2/../../../../pic32mx/lib/size\libc.a(atoi.o)

.text%z308      0x00000000        0x0
 .text          0x00000000        0x0 d:/program files (x86)/microchip/xc32/v1.20/bin/../lib/gcc/pic32mx/4.5.2/../../../../pic32mx/lib/size\libpic32.a(defaultinterrupt.o)

.text%z309      0x00000000        0x0
 .text          0x00000000        0x0 d:/program files (x86)/microchip/xc32/v1.20/bin/../lib/gcc/pic32mx/4.5.2/../../../../pic32mx/lib/size\libpic32.a(vector63.o)

.text%z310      0x00000000        0x0
 .text          0x00000000        0x0 d:/program files (x86)/microchip/xc32/v1.20/bin/../lib/gcc/pic32mx/4.5.2/../../../../pic32mx/lib/size\libpic32.a(vector62.o)

.text%z311      0x00000000        0x0
 .text          0x00000000        0x0 d:/program files (x86)/microchip/xc32/v1.20/bin/../lib/gcc/pic32mx/4.5.2/../../../../pic32mx/lib/size\libpic32.a(vector61.o)

.text%z312      0x00000000        0x0
 .text          0x00000000        0x0 d:/program files (x86)/microchip/xc32/v1.20/bin/../lib/gcc/pic32mx/4.5.2/../../../../pic32mx/lib/size\libpic32.a(vector60.o)

.text%z313      0x00000000        0x0
 .text          0x00000000        0x0 d:/program files (x86)/microchip/xc32/v1.20/bin/../lib/gcc/pic32mx/4.5.2/../../../../pic32mx/lib/size\libpic32.a(vector59.o)

.text%z314      0x00000000        0x0
 .text          0x00000000        0x0 d:/program files (x86)/microchip/xc32/v1.20/bin/../lib/gcc/pic32mx/4.5.2/../../../../pic32mx/lib/size\libpic32.a(vector58.o)

.text%z315      0x00000000        0x0
 .text          0x00000000        0x0 d:/program files (x86)/microchip/xc32/v1.20/bin/../lib/gcc/pic32mx/4.5.2/../../../../pic32mx/lib/size\libpic32.a(vector57.o)

.text%z316      0x00000000        0x0
 .text          0x00000000        0x0 d:/program files (x86)/microchip/xc32/v1.20/bin/../lib/gcc/pic32mx/4.5.2/../../../../pic32mx/lib/size\libpic32.a(vector56.o)

.text%z317      0x00000000        0x0
 .text          0x00000000        0x0 d:/program files (x86)/microchip/xc32/v1.20/bin/../lib/gcc/pic32mx/4.5.2/../../../../pic32mx/lib/size\libpic32.a(vector55.o)

.text%z318      0x00000000        0x0
 .text          0x00000000        0x0 d:/program files (x86)/microchip/xc32/v1.20/bin/../lib/gcc/pic32mx/4.5.2/../../../../pic32mx/lib/size\libpic32.a(vector54.o)

.text%z319      0x00000000        0x0
 .text          0x00000000        0x0 d:/program files (x86)/microchip/xc32/v1.20/bin/../lib/gcc/pic32mx/4.5.2/../../../../pic32mx/lib/size\libpic32.a(vector53.o)

.text%z320      0x00000000        0x0
 .text          0x00000000        0x0 d:/program files (x86)/microchip/xc32/v1.20/bin/../lib/gcc/pic32mx/4.5.2/../../../../pic32mx/lib/size\libpic32.a(vector52.o)

.text%z321      0x00000000        0x0
 .text          0x00000000        0x0 d:/program files (x86)/microchip/xc32/v1.20/bin/../lib/gcc/pic32mx/4.5.2/../../../../pic32mx/lib/size\libpic32.a(vector51.o)

.text%z322      0x00000000        0x0
 .text          0x00000000        0x0 d:/program files (x86)/microchip/xc32/v1.20/bin/../lib/gcc/pic32mx/4.5.2/../../../../pic32mx/lib/size\libpic32.a(vector50.o)

.text%z323      0x00000000        0x0
 .text          0x00000000        0x0 d:/program files (x86)/microchip/xc32/v1.20/bin/../lib/gcc/pic32mx/4.5.2/../../../../pic32mx/lib/size\libpic32.a(vector49.o)

.text%z324      0x00000000        0x0
 .text          0x00000000        0x0 d:/program files (x86)/microchip/xc32/v1.20/bin/../lib/gcc/pic32mx/4.5.2/../../../../pic32mx/lib/size\libpic32.a(vector48.o)

.text%z325      0x00000000        0x0
 .text          0x00000000        0x0 d:/program files (x86)/microchip/xc32/v1.20/bin/../lib/gcc/pic32mx/4.5.2/../../../../pic32mx/lib/size\libpic32.a(vector47.o)

.text%z326      0x00000000        0x0
 .text          0x00000000        0x0 d:/program files (x86)/microchip/xc32/v1.20/bin/../lib/gcc/pic32mx/4.5.2/../../../../pic32mx/lib/size\libpic32.a(vector46.o)

.text%z327      0x00000000        0x0
 .text          0x00000000        0x0 d:/program files (x86)/microchip/xc32/v1.20/bin/../lib/gcc/pic32mx/4.5.2/../../../../pic32mx/lib/size\libpic32.a(vector45.o)

.text%z328      0x00000000        0x0
 .text          0x00000000        0x0 d:/program files (x86)/microchip/xc32/v1.20/bin/../lib/gcc/pic32mx/4.5.2/../../../../pic32mx/lib/size\libpic32.a(vector44.o)

.text%z329      0x00000000        0x0
 .text          0x00000000        0x0 d:/program files (x86)/microchip/xc32/v1.20/bin/../lib/gcc/pic32mx/4.5.2/../../../../pic32mx/lib/size\libpic32.a(vector43.o)

.text%z330      0x00000000        0x0
 .text          0x00000000        0x0 d:/program files (x86)/microchip/xc32/v1.20/bin/../lib/gcc/pic32mx/4.5.2/../../../../pic32mx/lib/size\libpic32.a(vector42.o)

.text%z331      0x00000000        0x0
 .text          0x00000000        0x0 d:/program files (x86)/microchip/xc32/v1.20/bin/../lib/gcc/pic32mx/4.5.2/../../../../pic32mx/lib/size\libpic32.a(vector41.o)

.text%z332      0x00000000        0x0
 .text          0x00000000        0x0 d:/program files (x86)/microchip/xc32/v1.20/bin/../lib/gcc/pic32mx/4.5.2/../../../../pic32mx/lib/size\libpic32.a(vector40.o)

.text%z333      0x00000000        0x0
 .text          0x00000000        0x0 d:/program files (x86)/microchip/xc32/v1.20/bin/../lib/gcc/pic32mx/4.5.2/../../../../pic32mx/lib/size\libpic32.a(vector39.o)

.text%z334      0x00000000        0x0
 .text          0x00000000        0x0 d:/program files (x86)/microchip/xc32/v1.20/bin/../lib/gcc/pic32mx/4.5.2/../../../../pic32mx/lib/size\libpic32.a(vector38.o)

.text%z335      0x00000000        0x0
 .text          0x00000000        0x0 d:/program files (x86)/microchip/xc32/v1.20/bin/../lib/gcc/pic32mx/4.5.2/../../../../pic32mx/lib/size\libpic32.a(vector37.o)

.text%z336      0x00000000        0x0
 .text          0x00000000        0x0 d:/program files (x86)/microchip/xc32/v1.20/bin/../lib/gcc/pic32mx/4.5.2/../../../../pic32mx/lib/size\libpic32.a(vector36.o)

.text%z337      0x00000000        0x0
 .text          0x00000000        0x0 d:/program files (x86)/microchip/xc32/v1.20/bin/../lib/gcc/pic32mx/4.5.2/../../../../pic32mx/lib/size\libpic32.a(vector35.o)

.text%z338      0x00000000        0x0
 .text          0x00000000        0x0 d:/program files (x86)/microchip/xc32/v1.20/bin/../lib/gcc/pic32mx/4.5.2/../../../../pic32mx/lib/size\libpic32.a(vector34.o)

.text%z339      0x00000000        0x0
 .text          0x00000000        0x0 d:/program files (x86)/microchip/xc32/v1.20/bin/../lib/gcc/pic32mx/4.5.2/../../../../pic32mx/lib/size\libpic32.a(vector33.o)

.text%z340      0x00000000        0x0
 .text          0x00000000        0x0 d:/program files (x86)/microchip/xc32/v1.20/bin/../lib/gcc/pic32mx/4.5.2/../../../../pic32mx/lib/size\libpic32.a(vector32.o)

.text%z341      0x00000000        0x0
 .text          0x00000000        0x0 d:/program files (x86)/microchip/xc32/v1.20/bin/../lib/gcc/pic32mx/4.5.2/../../../../pic32mx/lib/size\libpic32.a(vector31.o)

.text%z342      0x00000000        0x0
 .text          0x00000000        0x0 d:/program files (x86)/microchip/xc32/v1.20/bin/../lib/gcc/pic32mx/4.5.2/../../../../pic32mx/lib/size\libpic32.a(vector30.o)

.text%z343      0x00000000        0x0
 .text          0x00000000        0x0 d:/program files (x86)/microchip/xc32/v1.20/bin/../lib/gcc/pic32mx/4.5.2/../../../../pic32mx/lib/size\libpic32.a(vector29.o)

.text%z344      0x00000000        0x0
 .text          0x00000000        0x0 d:/program files (x86)/microchip/xc32/v1.20/bin/../lib/gcc/pic32mx/4.5.2/../../../../pic32mx/lib/size\libpic32.a(vector28.o)

.text%z345      0x00000000        0x0
 .text          0x00000000        0x0 d:/program files (x86)/microchip/xc32/v1.20/bin/../lib/gcc/pic32mx/4.5.2/../../../../pic32mx/lib/size\libpic32.a(vector27.o)

.text%z346      0x00000000        0x0
 .text          0x00000000        0x0 d:/program files (x86)/microchip/xc32/v1.20/bin/../lib/gcc/pic32mx/4.5.2/../../../../pic32mx/lib/size\libpic32.a(vector26.o)

.text%z347      0x00000000        0x0
 .text          0x00000000        0x0 d:/program files (x86)/microchip/xc32/v1.20/bin/../lib/gcc/pic32mx/4.5.2/../../../../pic32mx/lib/size\libpic32.a(vector25.o)

.text%z348      0x00000000        0x0
 .text          0x00000000        0x0 d:/program files (x86)/microchip/xc32/v1.20/bin/../lib/gcc/pic32mx/4.5.2/../../../../pic32mx/lib/size\libpic32.a(vector24.o)

.text%z349      0x00000000        0x0
 .text          0x00000000        0x0 d:/program files (x86)/microchip/xc32/v1.20/bin/../lib/gcc/pic32mx/4.5.2/../../../../pic32mx/lib/size\libpic32.a(vector23.o)

.text%z350      0x00000000        0x0
 .text          0x00000000        0x0 d:/program files (x86)/microchip/xc32/v1.20/bin/../lib/gcc/pic32mx/4.5.2/../../../../pic32mx/lib/size\libpic32.a(vector22.o)

.text%z351      0x00000000        0x0
 .text          0x00000000        0x0 d:/program files (x86)/microchip/xc32/v1.20/bin/../lib/gcc/pic32mx/4.5.2/../../../../pic32mx/lib/size\libpic32.a(vector21.o)

.text%z352      0x00000000        0x0
 .text          0x00000000        0x0 d:/program files (x86)/microchip/xc32/v1.20/bin/../lib/gcc/pic32mx/4.5.2/../../../../pic32mx/lib/size\libpic32.a(vector20.o)

.text%z353      0x00000000        0x0
 .text          0x00000000        0x0 d:/program files (x86)/microchip/xc32/v1.20/bin/../lib/gcc/pic32mx/4.5.2/../../../../pic32mx/lib/size\libpic32.a(vector19.o)

.text%z354      0x00000000        0x0
 .text          0x00000000        0x0 d:/program files (x86)/microchip/xc32/v1.20/bin/../lib/gcc/pic32mx/4.5.2/../../../../pic32mx/lib/size\libpic32.a(vector18.o)

.text%z355      0x00000000        0x0
 .text          0x00000000        0x0 d:/program files (x86)/microchip/xc32/v1.20/bin/../lib/gcc/pic32mx/4.5.2/../../../../pic32mx/lib/size\libpic32.a(vector17.o)

.text%z356      0x00000000        0x0
 .text          0x00000000        0x0 d:/program files (x86)/microchip/xc32/v1.20/bin/../lib/gcc/pic32mx/4.5.2/../../../../pic32mx/lib/size\libpic32.a(vector16.o)

.text%z357      0x00000000        0x0
 .text          0x00000000        0x0 d:/program files (x86)/microchip/xc32/v1.20/bin/../lib/gcc/pic32mx/4.5.2/../../../../pic32mx/lib/size\libpic32.a(vector15.o)

.text%z358      0x00000000        0x0
 .text          0x00000000        0x0 d:/program files (x86)/microchip/xc32/v1.20/bin/../lib/gcc/pic32mx/4.5.2/../../../../pic32mx/lib/size\libpic32.a(vector14.o)

.text%z359      0x00000000        0x0
 .text          0x00000000        0x0 d:/program files (x86)/microchip/xc32/v1.20/bin/../lib/gcc/pic32mx/4.5.2/../../../../pic32mx/lib/size\libpic32.a(vector13.o)

.text%z360      0x00000000        0x0
 .text          0x00000000        0x0 d:/program files (x86)/microchip/xc32/v1.20/bin/../lib/gcc/pic32mx/4.5.2/../../../../pic32mx/lib/size\libpic32.a(vector12.o)

.text%z361      0x00000000        0x0
 .text          0x00000000        0x0 d:/program files (x86)/microchip/xc32/v1.20/bin/../lib/gcc/pic32mx/4.5.2/../../../../pic32mx/lib/size\libpic32.a(vector11.o)

.text%z362      0x00000000        0x0
 .text          0x00000000        0x0 d:/program files (x86)/microchip/xc32/v1.20/bin/../lib/gcc/pic32mx/4.5.2/../../../../pic32mx/lib/size\libpic32.a(vector10.o)

.text%z363      0x00000000        0x0
 .text          0x00000000        0x0 d:/program files (x86)/microchip/xc32/v1.20/bin/../lib/gcc/pic32mx/4.5.2/../../../../pic32mx/lib/size\libpic32.a(vector9.o)

.text%z364      0x00000000        0x0
 .text          0x00000000        0x0 d:/program files (x86)/microchip/xc32/v1.20/bin/../lib/gcc/pic32mx/4.5.2/../../../../pic32mx/lib/size\libpic32.a(vector8.o)

.text%z365      0x00000000        0x0
 .text          0x00000000        0x0 d:/program files (x86)/microchip/xc32/v1.20/bin/../lib/gcc/pic32mx/4.5.2/../../../../pic32mx/lib/size\libpic32.a(vector7.o)

.text%z366      0x00000000        0x0
 .text          0x00000000        0x0 d:/program files (x86)/microchip/xc32/v1.20/bin/../lib/gcc/pic32mx/4.5.2/../../../../pic32mx/lib/size\libpic32.a(vector6.o)

.text%z367      0x00000000        0x0
 .text          0x00000000        0x0 d:/program files (x86)/microchip/xc32/v1.20/bin/../lib/gcc/pic32mx/4.5.2/../../../../pic32mx/lib/size\libpic32.a(vector5.o)

.text%z368      0x00000000        0x0
 .text          0x00000000        0x0 d:/program files (x86)/microchip/xc32/v1.20/bin/../lib/gcc/pic32mx/4.5.2/../../../../pic32mx/lib/size\libpic32.a(vector3.o)

.text%z369      0x00000000        0x0
 .text          0x00000000        0x0 d:/program files (x86)/microchip/xc32/v1.20/bin/../lib/gcc/pic32mx/4.5.2/../../../../pic32mx/lib/size\libpic32.a(vector2.o)

.text%z370      0x00000000        0x0
 .text          0x00000000        0x0 d:/program files (x86)/microchip/xc32/v1.20/bin/../lib/gcc/pic32mx/4.5.2/../../../../pic32mx/lib/size\libpic32.a(vector1.o)

.text%z371      0x00000000        0x0
 .text          0x00000000        0x0 d:/program files (x86)/microchip/xc32/v1.20/bin/../lib/gcc/pic32mx/4.5.2/../../../../pic32mx/lib/size\libpic32.a(vector0.o)

.text%z372      0x00000000        0x0
 .text          0x00000000        0x0 d:/program files (x86)/microchip/xc32/v1.20/bin/../lib/gcc/pic32mx/4.5.2/../../../../pic32mx/lib/size\libpic32.a(general-exception.o)

.text%z373      0x00000000        0x0
 .text          0x00000000        0x0 d:/program files (x86)/microchip/xc32/v1.20/bin/../lib/gcc/pic32mx/4.5.2/../../../../pic32mx/lib/size\libpic32.a(default-on-bootstrap.o)

.text%z374      0x00000000        0x0
 .text          0x00000000        0x0 d:/program files (x86)/microchip/xc32/v1.20/bin/../lib/gcc/pic32mx/4.5.2/../../../../pic32mx/lib/size\libpic32.a(default-on-reset.o)

.text%z375      0x00000000        0x0
 .text          0x00000000        0x0 d:/program files (x86)/microchip/xc32/v1.20/bin/../lib/gcc/pic32mx/4.5.2/../../../../pic32mx/lib/size\libpic32.a(default-bootstrap-exception-handler.o)

.text%z376      0x00000000        0x0
 .text          0x00000000        0x0 d:/program files (x86)/microchip/xc32/v1.20/bin/../lib/gcc/pic32mx/4.5.2/../../../../pic32mx/lib/size\libmchp_peripheral_32MX795F512L.a(int_enable_interrupts_lib.o)

.text%z377      0x00000000        0x0
 .text          0x00000000        0x0 d:/program files (x86)/microchip/xc32/v1.20/bin/../lib/gcc/pic32mx/4.5.2/../../../../pic32mx/lib/size\libmchp_peripheral_32MX795F512L.a(puts_uartx_lib_legacy.o)

.text%z378      0x00000000        0x0
 .text          0x00000000        0x0 d:/program files (x86)/microchip/xc32/v1.20/bin/../lib/gcc/pic32mx/4.5.2/../../../../pic32mx/lib/size\libmchp_peripheral_32MX795F512L.a(int_enable_mv_int_lib.o)

.text%z379      0x00000000        0x0
 .text          0x00000000        0x0 d:/program files (x86)/microchip/xc32/v1.20/bin/../lib/gcc/pic32mx/4.5.2/../../../../pic32mx/lib/size\libmchp_peripheral_32MX795F512L.a(int_restore_interrupts_lib.o)

.text%z380      0x00000000        0x0
 .text          0x00000000        0x0 d:/program files (x86)/microchip/xc32/v1.20/bin/../lib/gcc/pic32mx/4.5.2/../../../../pic32mx/lib/size\libmchp_peripheral_32MX795F512L.a(int_disable_interrupts_lib.o)

.text%z381      0x00000000        0x0
 .text          0x00000000        0x0 d:/program files (x86)/microchip/xc32/v1.20/bin/../lib/gcc/pic32mx/4.5.2/../../../../pic32mx/lib/size\libmchp_peripheral_32MX795F512L.a(pcache.o)

.text%z382      0x00000000        0x0
 .text          0x00000000        0x0 d:/program files (x86)/microchip/xc32/v1.20/bin/../lib/gcc/pic32mx/4.5.2/../../../../pic32mx/lib/size\libmchp_peripheral_32MX795F512L.a(soft_reset_lib.o)

.text%z383      0x00000000        0x0
 .text          0x00000000        0x0 d:/program files (x86)/microchip/xc32/v1.20/bin/../lib/gcc/pic32mx/4.5.2/../../../../pic32mx/lib/./proc/32MX795F512L\processor.o

.text%z384      0x00000000        0x0
 .text          0x00000000        0x0 d:/program files (x86)/microchip/xc32/v1.20/bin/../lib/gcc/pic32mx/4.5.2/../../../../pic32mx/lib/./proc/32MX795F512L\default_isr_vectors.o

.text%z385      0x00000000        0x0
 .text          0x00000000        0x0 Obj-XC32-EX16_ENC28\BigInt_helper_PIC32.o

.text%z386      0x00000000        0x0
 .text          0x00000000        0x0 Obj-XC32-EX16_ENC28\MPFSImg2.o

.text%z387      0x00000000        0x0
 .text          0x00000000        0x0 Obj-XC32-EX16_ENC28\SMTPDemo.o

.text%z388      0x00000000        0x0
 .text          0x00000000        0x0 Obj-XC32-EX16_ENC28\GenericTCPServer.o

.text%z389      0x00000000        0x0
 .text          0x00000000        0x0 Obj-XC32-EX16_ENC28\GenericTCPClient.o

.text%z390      0x00000000        0x0
 .text          0x00000000        0x0 Obj-XC32-EX16_ENC28\BerkeleyUDPClientDemo.o

.text%z391      0x00000000        0x0
 .text          0x00000000        0x0 Obj-XC32-EX16_ENC28\BerkeleyTCPServerDemo.o

.text%z392      0x00000000        0x0
 .text          0x00000000        0x0 Obj-XC32-EX16_ENC28\BerkeleyTCPClientDemo.o

.text%z393      0x00000000        0x0
 .text          0x00000000        0x0 Obj-XC32-EX16_ENC28\CustomSSLCert.o

.text%z394      0x00000000        0x0
 .text          0x00000000        0x0 Obj-XC32-EX16_ENC28\CustomSNMPApp.o

.text%z395      0x00000000        0x0
 .text          0x00000000        0x0 Obj-XC32-EX16_ENC28\ZeroconfMulticastDNS.o

.text%z396      0x00000000        0x0
 .text          0x00000000        0x0 Obj-XC32-EX16_ENC28\ZeroconfLinkLocal.o

.text%z397      0x00000000        0x0
 .text          0x00000000        0x0 Obj-XC32-EX16_ENC28\ZeroconfHelper.o

.text%z398      0x00000000        0x0
 .text          0x00000000        0x0 Obj-XC32-EX16_ENC28\UDPPerformanceTest.o

.text%z399      0x00000000        0x0
 .text          0x00000000        0x0 Obj-XC32-EX16_ENC28\UART2TCPBridge.o

.text%z400      0x00000000        0x0
 .text          0x00000000        0x0 Obj-XC32-EX16_ENC28\TFTPc.o

.text%z401      0x00000000        0x0
 .text          0x00000000        0x0 Obj-XC32-EX16_ENC28\Telnet.o

.text%z402      0x00000000        0x0
 .text          0x00000000        0x0 Obj-XC32-EX16_ENC28\SSL.o

.text%z403      0x00000000        0x0
 .text          0x00000000        0x0 Obj-XC32-EX16_ENC28\SPIRAM.o

.text%z404      0x00000000        0x0
 .text          0x00000000        0x0 Obj-XC32-EX16_ENC28\SPIFlash.o

.text%z405      0x00000000        0x0
 .text          0x00000000        0x0 Obj-XC32-EX16_ENC28\SNMPv3USM.o

.text%z406      0x00000000        0x0
 .text          0x00000000        0x0 Obj-XC32-EX16_ENC28\SNMPv3.o

.text%z407      0x00000000        0x0
 .text          0x00000000        0x0 Obj-XC32-EX16_ENC28\SNMP.o

.text%z408      0x00000000        0x0
 .text          0x00000000        0x0 Obj-XC32-EX16_ENC28\SMTP.o

.text%z409      0x00000000        0x0
 .text          0x00000000        0x0 Obj-XC32-EX16_ENC28\RSA.o

.text%z410      0x00000000        0x0
 .text          0x00000000        0x0 Obj-XC32-EX16_ENC28\Random.o

.text%z411      0x00000000        0x0
 .text          0x00000000        0x0 Obj-XC32-EX16_ENC28\Hashes.o

.text%z412      0x00000000        0x0
 .text          0x00000000        0x0 Obj-XC32-EX16_ENC28\FTP.o

.text%z413      0x00000000        0x0
 .text          0x00000000        0x0 Obj-XC32-EX16_ENC28\FileSystem.o

.text%z414      0x00000000        0x0
 .text          0x00000000        0x0 Obj-XC32-EX16_ENC28\ENCX24J600.o

.text%z415      0x00000000        0x0
 .text          0x00000000        0x0 Obj-XC32-EX16_ENC28\DynDNS.o

.text%z416      0x00000000        0x0
 .text          0x00000000        0x0 Obj-XC32-EX16_ENC28\DNSs.o

.text%z417      0x00000000        0x0
 .text          0x00000000        0x0 Obj-XC32-EX16_ENC28\BigInt.o

.text%z418      0x00000000        0x0
 .text          0x00000000        0x0 Obj-XC32-EX16_ENC28\BerkeleyAPI.o

.text%z419      0x00000000        0x0
 .text          0x00000000        0x0 Obj-XC32-EX16_ENC28\AutoIP.o

.text%z420      0x00000000        0x0
 .text          0x00000000        0x0 Obj-XC32-EX16_ENC28\ARCFOUR.o
