

Microchip MPLAB XC8 Assembler V2.36 build 20220127204148 
                                                                                               Sat Oct 22 14:15:18 2022

Microchip MPLAB XC8 C Compiler v2.36 (Free license) build 20220127204148 Og1 
     1                           	processor	18F46J50
     2                           	fnconf	rparam,??,?,0
     3                           	pagewidth 120
     4                           	opt	flic
     5                           	psect	nvCOMRAM,global,class=COMRAM,space=1,delta=1,lowdata,noexec
     6                           	psect	cinit,global,reloc=2,class=CODE,delta=1
     7                           	psect	cstackCOMRAM,global,class=COMRAM,space=1,delta=1,lowdata,noexec
     8                           	psect	text0,global,reloc=2,class=CODE,delta=1
     9                           	psect	text1,global,reloc=2,class=CODE,delta=1
    10                           	psect	text2,global,reloc=2,class=CODE,delta=1
    11                           	psect	text3,global,reloc=2,class=CODE,delta=1
    12                           	psect	text4,global,reloc=2,class=CODE,delta=1
    13                           	psect	text5,global,reloc=2,class=CODE,delta=1
    14                           	psect	text6,global,reloc=2,class=CODE,delta=1
    15                           	psect	text7,global,reloc=2,class=CODE,delta=1
    16                           	psect	text8,global,reloc=2,class=CODE,delta=1
    17                           	psect	text9,global,reloc=2,class=CODE,delta=1
    18                           	psect	text10,global,reloc=2,class=CODE,delta=1
    19                           	psect	intcodelo,global,reloc=2,class=CODE,delta=1
    20                           	psect	text12,global,reloc=2,class=CODE,delta=1
    21                           	psect	text13,global,reloc=2,class=CODE,delta=1
    22                           	psect	text14,global,reloc=2,class=CODE,delta=1
    23                           	psect	text15,global,reloc=2,class=CODE,delta=1
    24                           	psect	text16,global,reloc=2,class=CODE,delta=1
    25                           	psect	text17,global,reloc=2,class=CODE,delta=1
    26                           	psect	intcode,global,reloc=2,class=CODE,delta=1
    27                           	psect	intcode_body,global,reloc=2,class=CODE,delta=1
    28                           	psect	text19,global,reloc=2,class=CODE,delta=1
    29                           	psect	text20,global,reloc=2,class=CODE,delta=1
    30                           	psect	text21,global,reloc=2,class=CODE,delta=1
    31                           	psect	text22,global,reloc=2,class=CODE,delta=1
    32                           	psect	text23,global,reloc=2,class=CODE,delta=1
    33                           	psect	text24,global,reloc=2,class=CODE,delta=1
    34                           	psect	intsave_regs,global,class=BIGRAM,space=1,delta=1,noexec
    35                           	psect	text25,global,reloc=2,class=CODE,delta=1
    36                           	psect	rparam,global,class=COMRAM,space=1,delta=1,noexec
    37                           	psect	temp,global,ovrld,common,class=COMRAM,space=1,delta=1
    38                           	psect	config,global,abs,ovrld,class=CONFIG,space=4,delta=1,noexec
    39  0000                     
    40                           ; Version 2.40
    41                           ; Generated 17/11/2021 GMT
    42                           ; 
    43                           ; Copyright © 2021, Microchip Technology Inc. and its subsidiaries ("Microchip")
    44                           ; All rights reserved.
    45                           ; 
    46                           ; This software is developed by Microchip Technology Inc. and its subsidiaries ("Microch
      +                          ip").
    47                           ; 
    48                           ; Redistribution and use in source and binary forms, with or without modification, are
    49                           ; permitted provided that the following conditions are met:
    50                           ; 
    51                           ;     1. Redistributions of source code must retain the above copyright notice, this lis
      +                          t of
    52                           ;        conditions and the following disclaimer.
    53                           ; 
    54                           ;     2. Redistributions in binary form must reproduce the above copyright notice, this 
      +                          list
    55                           ;        of conditions and the following disclaimer in the documentation and/or other
    56                           ;        materials provided with the distribution. Publication is not required when
    57                           ;        this file is used in an embedded application.
    58                           ; 
    59                           ;     3. Microchip's name may not be used to endorse or promote products derived from th
      +                          is
    60                           ;        software without specific prior written permission.
    61                           ; 
    62                           ; THIS SOFTWARE IS PROVIDED BY MICROCHIP "AS IS" AND ANY EXPRESS OR IMPLIED WARRANTIES,
    63                           ; INCLUDING, BUT NOT LIMITED TO, THE IMPLIED WARRANTIES OF MERCHANTABILITY AND FITNESS F
      +                          OR
    64                           ; PURPOSE ARE DISCLAIMED.  IN NO EVENT SHALL MICROCHIP BE LIABLE FOR ANY DIRECT, INDIREC
      +                          T,
    65                           ; INCIDENTAL, SPECIAL, EXEMPLARY, OR CONSEQUENTIAL DAMAGES (INCLUDING BUT NOT LIMITED TO
    66                           ; PROCUREMENT OF SUBSTITUTE GOODS OR SERVICES; LOSS OF USE, DATA OR PROFITS; OR BUSINESS
    67                           ; INTERRUPTION) HOWSOEVER CAUSED AND ON ANY THEORY OF LIABILITY, WHETHER IN CONTRACT, ST
      +                          RICT
    68                           ; LIABILITY, OR TORT (INCLUDING NEGLIGENCE OR OTHERWISE) ARISING IN ANY WAY OUT OF THE U
      +                          SE OF
    69                           ; THIS SOFTWARE, EVEN IF ADVISED OF THE POSSIBILITY OF SUCH DAMAGE.
    70                           ; 
    71                           ; 
    72                           ; Code-generator required, PIC18F46J50 Definitions
    73                           ; 
    74                           ; SFR Addresses
    75  0000                     _TMR0L	set	4054
    76  0000                     _TMR0H	set	4055
    77  0000                     _TRISD	set	3989
    78  0000                     _TRISC	set	3988
    79  0000                     _TRISB	set	3987
    80  0000                     _LATC	set	3979
    81  0000                     _LATB	set	3978
    82                           
    83                           	psect	nvCOMRAM
    84  00000C                     __pnvCOMRAM:
    85                           	callstack 0
    86  00000C                     _INT2_InterruptHandler:
    87                           	callstack 0
    88  00000C                     	ds	2
    89  00000E                     _INT1_InterruptHandler:
    90                           	callstack 0
    91  00000E                     	ds	2
    92  000010                     _INT0_InterruptHandler:
    93                           	callstack 0
    94  000010                     	ds	2
    95  000012                     _timer0ReloadVal:
    96                           	callstack 0
    97  000012                     	ds	2
    98  000014                     _TMR0_InterruptHandler:
    99                           	callstack 0
   100  000014                     	ds	2
   101  0000                     _T0CON	set	4053
   102  0000                     _RPINR1	set	3815
   103  0000                     _RPINR2	set	3816
   104  0000                     _ODCON3	set	3904
   105  0000                     _ODCON2	set	3905
   106  0000                     _ODCON1	set	3906
   107  0000                     _ANCON0	set	3912
   108  0000                     _LATA	set	3977
   109  0000                     _LATD	set	3980
   110  0000                     _LATE	set	3981
   111  0000                     _OSCTUNEbits	set	3995
   112  0000                     _OSCCON	set	4051
   113  0000                     _T0CONbits	set	4053
   114  0000                     _INTCON3bits	set	4080
   115  0000                     _INTCON2bits	set	4081
   116  0000                     _WDTCONbits	set	4032
   117  0000                     _RCONbits	set	4048
   118  0000                     _TRISA	set	3986
   119  0000                     _TRISE	set	3990
   120  0000                     _ANCON1	set	3913
   121  0000                     _INTCONbits	set	4082
   122                           
   123                           ; #config settings
   124                           
   125                           	psect	cinit
   126  000278                     __pcinit:
   127                           	callstack 0
   128  000278                     start_initialization:
   129                           	callstack 0
   130  000278                     __initialization:
   131                           	callstack 0
   132  000278                     end_of_initialization:
   133                           	callstack 0
   134  000278                     __end_of__initialization:
   135                           	callstack 0
   136  000278  9016               	bcf	int$flags,0,c	;clear compiler interrupt flag (level 1)
   137  00027A  9216               	bcf	int$flags,1,c	;clear compiler interrupt flag (level 2)
   138  00027C  0E00               	movlw	low (__Lmediumconst shr (0+16))
   139  00027E  6EF8               	movwf	tblptru,c
   140  000280  0100               	movlb	0
   141  000282  EF43  F001         	goto	_main	;jump to C main() function
   142                           
   143                           	psect	cstackCOMRAM
   144  000001                     __pcstackCOMRAM:
   145                           	callstack 0
   146  000001                     ??_INTERRUPT_InterruptManagerHigh:
   147  000001                     
   148                           ; 1 bytes @ 0x0
   149  000001                     	ds	2
   150  000003                     ??_INTERRUPT_InterruptManagerLow:
   151  000003                     
   152                           ; 1 bytes @ 0x2
   153  000003                     	ds	5
   154  000008                     TMR0_SetInterruptHandler@InterruptHandler:
   155                           	callstack 0
   156  000008                     INT0_SetInterruptHandler@InterruptHandler:
   157                           	callstack 0
   158  000008                     INT1_SetInterruptHandler@InterruptHandler:
   159                           	callstack 0
   160  000008                     INT2_SetInterruptHandler@InterruptHandler:
   161                           	callstack 0
   162                           
   163                           ; 2 bytes @ 0x7
   164  000008                     	ds	2
   165  00000A                     ??_TMR0_Initialize:
   166  00000A                     
   167                           ; 1 bytes @ 0x9
   168  00000A                     	ds	2
   169  00000C                     
   170                           ; 1 bytes @ 0xB
   171 ;;
   172 ;;Main: autosize = 0, tempsize = 0, incstack = 0, save=0
   173 ;;
   174 ;; *************** function _main *****************
   175 ;; Defined at:
   176 ;;		line 49 in file "main.c"
   177 ;; Parameters:    Size  Location     Type
   178 ;;		None
   179 ;; Auto vars:     Size  Location     Type
   180 ;;		None
   181 ;; Return value:  Size  Location     Type
   182 ;;                  1    wreg      void 
   183 ;; Registers used:
   184 ;;		wreg, status,2, status,0, cstack
   185 ;; Tracked objects:
   186 ;;		On entry : 0/0
   187 ;;		On exit  : 0/0
   188 ;;		Unchanged: 0/0
   189 ;; Data sizes:     COMRAM   BANK0   BANK1   BANK2   BANK3   BANK4   BANK5   BANK6   BANK7   BANK8   BANK9  BANK10  BANK1
      +1  BANK12  BANK13  BANK14
   190 ;;      Params:         0       0       0       0       0       0       0       0       0       0       0       0       
      +0       0       0       0
   191 ;;      Locals:         0       0       0       0       0       0       0       0       0       0       0       0       
      +0       0       0       0
   192 ;;      Temps:          0       0       0       0       0       0       0       0       0       0       0       0       
      +0       0       0       0
   193 ;;      Totals:         0       0       0       0       0       0       0       0       0       0       0       0       
      +0       0       0       0
   194 ;;Total ram usage:        0 bytes
   195 ;; Hardware stack levels required when called: 11
   196 ;; This function calls:
   197 ;;		_SYSTEM_Initialize
   198 ;; This function is called by:
   199 ;;		Startup code after reset
   200 ;; This function uses a non-reentrant model
   201 ;;
   202                           
   203                           	psect	text0
   204  000286                     __ptext0:
   205                           	callstack 0
   206  000286                     _main:
   207                           	callstack 20
   208  000286                     
   209                           ;main.c: 52:     SYSTEM_Initialize();
   210  000286  EC29  F001         	call	_SYSTEM_Initialize	;wreg free
   211  00028A                     
   212                           ;main.c: 59:     (INTCONbits.GIEH = 1);
   213  00028A  8EF2               	bsf	242,7,c	;volatile
   214  00028C                     l223:
   215  00028C  EF46  F001         	goto	l223
   216  000290  EF45  F000         	goto	start
   217  000294                     __end_of_main:
   218                           	callstack 0
   219                           
   220 ;; *************** function _SYSTEM_Initialize *****************
   221 ;; Defined at:
   222 ;;		line 50 in file "mcc_generated_files/mcc.c"
   223 ;; Parameters:    Size  Location     Type
   224 ;;		None
   225 ;; Auto vars:     Size  Location     Type
   226 ;;		None
   227 ;; Return value:  Size  Location     Type
   228 ;;                  1    wreg      void 
   229 ;; Registers used:
   230 ;;		wreg, status,2, status,0, cstack
   231 ;; Tracked objects:
   232 ;;		On entry : 0/0
   233 ;;		On exit  : 0/0
   234 ;;		Unchanged: 0/0
   235 ;; Data sizes:     COMRAM   BANK0   BANK1   BANK2   BANK3   BANK4   BANK5   BANK6   BANK7   BANK8   BANK9  BANK10  BANK1
      +1  BANK12  BANK13  BANK14
   236 ;;      Params:         0       0       0       0       0       0       0       0       0       0       0       0       
      +0       0       0       0
   237 ;;      Locals:         0       0       0       0       0       0       0       0       0       0       0       0       
      +0       0       0       0
   238 ;;      Temps:          0       0       0       0       0       0       0       0       0       0       0       0       
      +0       0       0       0
   239 ;;      Totals:         0       0       0       0       0       0       0       0       0       0       0       0       
      +0       0       0       0
   240 ;;Total ram usage:        0 bytes
   241 ;; Hardware stack levels used: 1
   242 ;; Hardware stack levels required when called: 10
   243 ;; This function calls:
   244 ;;		_EXT_INT_Initialize
   245 ;;		_INTERRUPT_Initialize
   246 ;;		_OSCILLATOR_Initialize
   247 ;;		_PIN_MANAGER_Initialize
   248 ;;		_TMR0_Initialize
   249 ;; This function is called by:
   250 ;;		_main
   251 ;; This function uses a non-reentrant model
   252 ;;
   253                           
   254                           	psect	text1
   255  000252                     __ptext1:
   256                           	callstack 0
   257  000252                     _SYSTEM_Initialize:
   258                           	callstack 20
   259  000252                     
   260                           ;mcc_generated_files/mcc.c: 53:     INTERRUPT_Initialize();
   261  000252  EC54  F001         	call	_INTERRUPT_Initialize	;wreg free
   262  000256                     
   263                           ;mcc_generated_files/mcc.c: 54:     PIN_MANAGER_Initialize();
   264  000256  EC73  F000         	call	_PIN_MANAGER_Initialize	;wreg free
   265  00025A                     
   266                           ;mcc_generated_files/mcc.c: 55:     OSCILLATOR_Initialize();
   267  00025A  EC4F  F001         	call	_OSCILLATOR_Initialize	;wreg free
   268  00025E                     
   269                           ;mcc_generated_files/mcc.c: 56:     EXT_INT_Initialize();
   270  00025E  EC96  F000         	call	_EXT_INT_Initialize	;wreg free
   271  000262                     
   272                           ;mcc_generated_files/mcc.c: 57:     TMR0_Initialize();
   273  000262  ECB2  F000         	call	_TMR0_Initialize	;wreg free
   274  000266  0012               	return		;funcret
   275  000268                     __end_of_SYSTEM_Initialize:
   276                           	callstack 0
   277                           
   278 ;; *************** function _TMR0_Initialize *****************
   279 ;; Defined at:
   280 ;;		line 67 in file "mcc_generated_files/tmr0.c"
   281 ;; Parameters:    Size  Location     Type
   282 ;;		None
   283 ;; Auto vars:     Size  Location     Type
   284 ;;		None
   285 ;; Return value:  Size  Location     Type
   286 ;;                  1    wreg      void 
   287 ;; Registers used:
   288 ;;		wreg, status,2, status,0, cstack
   289 ;; Tracked objects:
   290 ;;		On entry : 0/0
   291 ;;		On exit  : 0/0
   292 ;;		Unchanged: 0/0
   293 ;; Data sizes:     COMRAM   BANK0   BANK1   BANK2   BANK3   BANK4   BANK5   BANK6   BANK7   BANK8   BANK9  BANK10  BANK1
      +1  BANK12  BANK13  BANK14
   294 ;;      Params:         0       0       0       0       0       0       0       0       0       0       0       0       
      +0       0       0       0
   295 ;;      Locals:         0       0       0       0       0       0       0       0       0       0       0       0       
      +0       0       0       0
   296 ;;      Temps:          2       0       0       0       0       0       0       0       0       0       0       0       
      +0       0       0       0
   297 ;;      Totals:         2       0       0       0       0       0       0       0       0       0       0       0       
      +0       0       0       0
   298 ;;Total ram usage:        2 bytes
   299 ;; Hardware stack levels used: 1
   300 ;; Hardware stack levels required when called: 9
   301 ;; This function calls:
   302 ;;		_TMR0_SetInterruptHandler
   303 ;; This function is called by:
   304 ;;		_SYSTEM_Initialize
   305 ;; This function uses a non-reentrant model
   306 ;;
   307                           
   308                           	psect	text2
   309  000164                     __ptext2:
   310                           	callstack 0
   311  000164                     _TMR0_Initialize:
   312                           	callstack 20
   313  000164                     
   314                           ;mcc_generated_files/tmr0.c: 72:     T0CONbits.T08BIT = 0;
   315  000164  9CD5               	bcf	213,6,c	;volatile
   316  000166                     
   317                           ;mcc_generated_files/tmr0.c: 75:     TMR0H = 0xF0;
   318  000166  0EF0               	movlw	240
   319  000168  6ED7               	movwf	215,c	;volatile
   320                           
   321                           ;mcc_generated_files/tmr0.c: 78:     TMR0L = 0x5F;
   322  00016A  0E5F               	movlw	95
   323  00016C  6ED6               	movwf	214,c	;volatile
   324  00016E                     
   325                           ;mcc_generated_files/tmr0.c: 82:     timer0ReloadVal = (uint16_t)((TMR0H << 8) | TMR0L);
   326  00016E  50D6               	movf	214,w,c	;volatile
   327  000170  CFD7 F00A          	movff	4055,??_TMR0_Initialize	;volatile
   328  000174  6A0B               	clrf	(??_TMR0_Initialize+1)^0,c
   329  000176  C00A  F00B         	movff	??_TMR0_Initialize,??_TMR0_Initialize+1
   330  00017A  6A0A               	clrf	??_TMR0_Initialize^0,c
   331  00017C  100A               	iorwf	??_TMR0_Initialize^0,w,c
   332  00017E  6E12               	movwf	_timer0ReloadVal^0,c	;volatile
   333  000180  500B               	movf	(??_TMR0_Initialize+1)^0,w,c
   334  000182  6E13               	movwf	(_timer0ReloadVal+1)^0,c	;volatile
   335  000184                     
   336                           ;mcc_generated_files/tmr0.c: 85:     INTCONbits.TMR0IF = 0;
   337  000184  94F2               	bcf	242,2,c	;volatile
   338  000186                     
   339                           ;mcc_generated_files/tmr0.c: 88:     INTCONbits.TMR0IE = 1;
   340  000186  8AF2               	bsf	242,5,c	;volatile
   341  000188                     
   342                           ;mcc_generated_files/tmr0.c: 91:     TMR0_SetInterruptHandler(TMR0_DefaultInterruptHandl
      +                          er);
   343  000188  0EEC               	movlw	low _TMR0_DefaultInterruptHandler
   344  00018A  6E08               	movwf	TMR0_SetInterruptHandler@InterruptHandler^0,c
   345  00018C  0E02               	movlw	high _TMR0_DefaultInterruptHandler
   346  00018E  6E09               	movwf	(TMR0_SetInterruptHandler@InterruptHandler+1)^0,c
   347  000190  EC4A  F001         	call	_TMR0_SetInterruptHandler	;wreg free
   348  000194                     
   349                           ;mcc_generated_files/tmr0.c: 94:     T0CON = 0x90;
   350  000194  0E90               	movlw	144
   351  000196  6ED5               	movwf	213,c	;volatile
   352  000198  0012               	return		;funcret
   353  00019A                     __end_of_TMR0_Initialize:
   354                           	callstack 0
   355                           
   356 ;; *************** function _TMR0_SetInterruptHandler *****************
   357 ;; Defined at:
   358 ;;		line 164 in file "mcc_generated_files/tmr0.c"
   359 ;; Parameters:    Size  Location     Type
   360 ;;  InterruptHan    2    7[COMRAM] PTR FTN()void 
   361 ;;		 -> TMR0_DefaultInterruptHandler(1), 
   362 ;; Auto vars:     Size  Location     Type
   363 ;;		None
   364 ;; Return value:  Size  Location     Type
   365 ;;                  1    wreg      void 
   366 ;; Registers used:
   367 ;;		wreg, status,2, status,0
   368 ;; Tracked objects:
   369 ;;		On entry : 0/0
   370 ;;		On exit  : 0/0
   371 ;;		Unchanged: 0/0
   372 ;; Data sizes:     COMRAM   BANK0   BANK1   BANK2   BANK3   BANK4   BANK5   BANK6   BANK7   BANK8   BANK9  BANK10  BANK1
      +1  BANK12  BANK13  BANK14
   373 ;;      Params:         2       0       0       0       0       0       0       0       0       0       0       0       
      +0       0       0       0
   374 ;;      Locals:         0       0       0       0       0       0       0       0       0       0       0       0       
      +0       0       0       0
   375 ;;      Temps:          0       0       0       0       0       0       0       0       0       0       0       0       
      +0       0       0       0
   376 ;;      Totals:         2       0       0       0       0       0       0       0       0       0       0       0       
      +0       0       0       0
   377 ;;Total ram usage:        2 bytes
   378 ;; Hardware stack levels used: 1
   379 ;; Hardware stack levels required when called: 8
   380 ;; This function calls:
   381 ;;		Nothing
   382 ;; This function is called by:
   383 ;;		_TMR0_Initialize
   384 ;; This function uses a non-reentrant model
   385 ;;
   386                           
   387                           	psect	text3
   388  000294                     __ptext3:
   389                           	callstack 0
   390  000294                     _TMR0_SetInterruptHandler:
   391                           	callstack 20
   392  000294                     
   393                           ;mcc_generated_files/tmr0.c: 165:     TMR0_InterruptHandler = InterruptHandler;
   394  000294  C008  F014         	movff	TMR0_SetInterruptHandler@InterruptHandler,_TMR0_InterruptHandler
   395  000298  C009  F015         	movff	TMR0_SetInterruptHandler@InterruptHandler+1,_TMR0_InterruptHandler+1
   396  00029C  0012               	return		;funcret
   397  00029E                     __end_of_TMR0_SetInterruptHandler:
   398                           	callstack 0
   399                           
   400 ;; *************** function _PIN_MANAGER_Initialize *****************
   401 ;; Defined at:
   402 ;;		line 52 in file "mcc_generated_files/pin_manager.c"
   403 ;; Parameters:    Size  Location     Type
   404 ;;		None
   405 ;; Auto vars:     Size  Location     Type
   406 ;;		None
   407 ;; Return value:  Size  Location     Type
   408 ;;                  1    wreg      void 
   409 ;; Registers used:
   410 ;;		wreg, status,2
   411 ;; Tracked objects:
   412 ;;		On entry : 0/0
   413 ;;		On exit  : 0/0
   414 ;;		Unchanged: 0/0
   415 ;; Data sizes:     COMRAM   BANK0   BANK1   BANK2   BANK3   BANK4   BANK5   BANK6   BANK7   BANK8   BANK9  BANK10  BANK1
      +1  BANK12  BANK13  BANK14
   416 ;;      Params:         0       0       0       0       0       0       0       0       0       0       0       0       
      +0       0       0       0
   417 ;;      Locals:         0       0       0       0       0       0       0       0       0       0       0       0       
      +0       0       0       0
   418 ;;      Temps:          0       0       0       0       0       0       0       0       0       0       0       0       
      +0       0       0       0
   419 ;;      Totals:         0       0       0       0       0       0       0       0       0       0       0       0       
      +0       0       0       0
   420 ;;Total ram usage:        0 bytes
   421 ;; Hardware stack levels used: 1
   422 ;; Hardware stack levels required when called: 8
   423 ;; This function calls:
   424 ;;		Nothing
   425 ;; This function is called by:
   426 ;;		_SYSTEM_Initialize
   427 ;; This function uses a non-reentrant model
   428 ;;
   429                           
   430                           	psect	text4
   431  0000E6                     __ptext4:
   432                           	callstack 0
   433  0000E6                     _PIN_MANAGER_Initialize:
   434                           	callstack 21
   435  0000E6                     
   436                           ;mcc_generated_files/pin_manager.c: 57:     LATE = 0x00;
   437  0000E6  0E00               	movlw	0
   438  0000E8  6E8D               	movwf	141,c	;volatile
   439                           
   440                           ;mcc_generated_files/pin_manager.c: 58:     LATD = 0x00;
   441  0000EA  0E00               	movlw	0
   442  0000EC  6E8C               	movwf	140,c	;volatile
   443                           
   444                           ;mcc_generated_files/pin_manager.c: 59:     LATA = 0x00;
   445  0000EE  0E00               	movlw	0
   446  0000F0  6E89               	movwf	137,c	;volatile
   447                           
   448                           ;mcc_generated_files/pin_manager.c: 60:     LATB = 0x00;
   449  0000F2  0E00               	movlw	0
   450  0000F4  6E8A               	movwf	138,c	;volatile
   451                           
   452                           ;mcc_generated_files/pin_manager.c: 61:     LATC = 0x00;
   453  0000F6  0E00               	movlw	0
   454  0000F8  6E8B               	movwf	139,c	;volatile
   455                           
   456                           ;mcc_generated_files/pin_manager.c: 66:     TRISE = 0xC7;
   457  0000FA  0EC7               	movlw	199
   458  0000FC  6E96               	movwf	150,c	;volatile
   459                           
   460                           ;mcc_generated_files/pin_manager.c: 67:     TRISA = 0xEF;
   461  0000FE  0EEF               	movlw	239
   462  000100  6E92               	movwf	146,c	;volatile
   463  000102                     
   464                           ;mcc_generated_files/pin_manager.c: 68:     TRISB = 0xFF;
   465  000102  6893               	setf	147,c	;volatile
   466  000104                     
   467                           ;mcc_generated_files/pin_manager.c: 69:     TRISC = 0xFF;
   468  000104  6894               	setf	148,c	;volatile
   469  000106                     
   470                           ;mcc_generated_files/pin_manager.c: 70:     TRISD = 0xFF;
   471  000106  6895               	setf	149,c	;volatile
   472                           
   473                           ;mcc_generated_files/pin_manager.c: 75:     ANCON0 = 0x0F;
   474  000108  0E0F               	movlw	15
   475  00010A  010F               	movlb	15	; () banked
   476  00010C  6F48               	movwf	72,b	;volatile
   477                           
   478                           ;mcc_generated_files/pin_manager.c: 76:     ANCON1 = 0x15;
   479  00010E  0E15               	movlw	21
   480  000110  6F49               	movwf	73,b	;volatile
   481  000112                     
   482                           ; BSR set to: 15
   483                           ;mcc_generated_files/pin_manager.c: 81:     INTCON2bits.nRBPU = 1;
   484  000112  8EF1               	bsf	241,7,c	;volatile
   485                           
   486                           ;mcc_generated_files/pin_manager.c: 90:     ODCON1 = 0x00;
   487  000114  0E00               	movlw	0
   488  000116  6F42               	movwf	66,b	;volatile
   489                           
   490                           ;mcc_generated_files/pin_manager.c: 91:     ODCON2 = 0x00;
   491  000118  0E00               	movlw	0
   492  00011A  6F41               	movwf	65,b	;volatile
   493                           
   494                           ;mcc_generated_files/pin_manager.c: 92:     ODCON3 = 0x00;
   495  00011C  0E00               	movlw	0
   496  00011E  6F40               	movwf	64,b	;volatile
   497                           
   498                           ;mcc_generated_files/pin_manager.c: 98:     RPINR2 = 0x05;
   499  000120  0E05               	movlw	5
   500  000122  010E               	movlb	14	; () banked
   501  000124  6FE8               	movwf	232,b	;volatile
   502                           
   503                           ;mcc_generated_files/pin_manager.c: 99:     RPINR1 = 0x04;
   504  000126  0E04               	movlw	4
   505  000128  6FE7               	movwf	231,b	;volatile
   506  00012A                     
   507                           ; BSR set to: 14
   508  00012A  0012               	return		;funcret
   509  00012C                     __end_of_PIN_MANAGER_Initialize:
   510                           	callstack 0
   511                           
   512 ;; *************** function _OSCILLATOR_Initialize *****************
   513 ;; Defined at:
   514 ;;		line 60 in file "mcc_generated_files/mcc.c"
   515 ;; Parameters:    Size  Location     Type
   516 ;;		None
   517 ;; Auto vars:     Size  Location     Type
   518 ;;		None
   519 ;; Return value:  Size  Location     Type
   520 ;;                  1    wreg      void 
   521 ;; Registers used:
   522 ;;		wreg, status,2
   523 ;; Tracked objects:
   524 ;;		On entry : 0/0
   525 ;;		On exit  : 0/0
   526 ;;		Unchanged: 0/0
   527 ;; Data sizes:     COMRAM   BANK0   BANK1   BANK2   BANK3   BANK4   BANK5   BANK6   BANK7   BANK8   BANK9  BANK10  BANK1
      +1  BANK12  BANK13  BANK14
   528 ;;      Params:         0       0       0       0       0       0       0       0       0       0       0       0       
      +0       0       0       0
   529 ;;      Locals:         0       0       0       0       0       0       0       0       0       0       0       0       
      +0       0       0       0
   530 ;;      Temps:          0       0       0       0       0       0       0       0       0       0       0       0       
      +0       0       0       0
   531 ;;      Totals:         0       0       0       0       0       0       0       0       0       0       0       0       
      +0       0       0       0
   532 ;;Total ram usage:        0 bytes
   533 ;; Hardware stack levels used: 1
   534 ;; Hardware stack levels required when called: 8
   535 ;; This function calls:
   536 ;;		Nothing
   537 ;; This function is called by:
   538 ;;		_SYSTEM_Initialize
   539 ;; This function uses a non-reentrant model
   540 ;;
   541                           
   542                           	psect	text5
   543  00029E                     __ptext5:
   544                           	callstack 0
   545  00029E                     _OSCILLATOR_Initialize:
   546                           	callstack 21
   547  00029E                     
   548                           ;mcc_generated_files/mcc.c: 75:     OSCCON = 0x78;
   549  00029E  0E78               	movlw	120
   550  0002A0  6ED3               	movwf	211,c	;volatile
   551  0002A2                     
   552                           ;mcc_generated_files/mcc.c: 76:  OSCTUNEbits.PLLEN = 1;
   553  0002A2  8C9B               	bsf	155,6,c	;volatile
   554  0002A4                     
   555                           ;mcc_generated_files/mcc.c: 77:     WDTCONbits.SWDTEN = 0;
   556  0002A4  90C0               	bcf	192,0,c	;volatile
   557  0002A6  0012               	return		;funcret
   558  0002A8                     __end_of_OSCILLATOR_Initialize:
   559                           	callstack 0
   560                           
   561 ;; *************** function _INTERRUPT_Initialize *****************
   562 ;; Defined at:
   563 ;;		line 52 in file "mcc_generated_files/interrupt_manager.c"
   564 ;; Parameters:    Size  Location     Type
   565 ;;		None
   566 ;; Auto vars:     Size  Location     Type
   567 ;;		None
   568 ;; Return value:  Size  Location     Type
   569 ;;                  1    wreg      void 
   570 ;; Registers used:
   571 ;;		None
   572 ;; Tracked objects:
   573 ;;		On entry : 0/0
   574 ;;		On exit  : 0/0
   575 ;;		Unchanged: 0/0
   576 ;; Data sizes:     COMRAM   BANK0   BANK1   BANK2   BANK3   BANK4   BANK5   BANK6   BANK7   BANK8   BANK9  BANK10  BANK1
      +1  BANK12  BANK13  BANK14
   577 ;;      Params:         0       0       0       0       0       0       0       0       0       0       0       0       
      +0       0       0       0
   578 ;;      Locals:         0       0       0       0       0       0       0       0       0       0       0       0       
      +0       0       0       0
   579 ;;      Temps:          0       0       0       0       0       0       0       0       0       0       0       0       
      +0       0       0       0
   580 ;;      Totals:         0       0       0       0       0       0       0       0       0       0       0       0       
      +0       0       0       0
   581 ;;Total ram usage:        0 bytes
   582 ;; Hardware stack levels used: 1
   583 ;; Hardware stack levels required when called: 8
   584 ;; This function calls:
   585 ;;		Nothing
   586 ;; This function is called by:
   587 ;;		_SYSTEM_Initialize
   588 ;; This function uses a non-reentrant model
   589 ;;
   590                           
   591                           	psect	text6
   592  0002A8                     __ptext6:
   593                           	callstack 0
   594  0002A8                     _INTERRUPT_Initialize:
   595                           	callstack 21
   596  0002A8                     
   597                           ;mcc_generated_files/interrupt_manager.c: 55:     RCONbits.IPEN = 1;
   598  0002A8  8ED0               	bsf	208,7,c	;volatile
   599                           
   600                           ;mcc_generated_files/interrupt_manager.c: 60:     INTCON2bits.TMR0IP = 1;
   601  0002AA  84F1               	bsf	241,2,c	;volatile
   602                           
   603                           ;mcc_generated_files/interrupt_manager.c: 66:     INTCON3bits.INT1IP = 0;
   604  0002AC  9CF0               	bcf	240,6,c	;volatile
   605                           
   606                           ;mcc_generated_files/interrupt_manager.c: 69:     INTCON3bits.INT2IP = 0;
   607  0002AE  9EF0               	bcf	240,7,c	;volatile
   608  0002B0  0012               	return		;funcret
   609  0002B2                     __end_of_INTERRUPT_Initialize:
   610                           	callstack 0
   611                           
   612 ;; *************** function _EXT_INT_Initialize *****************
   613 ;; Defined at:
   614 ;;		line 113 in file "mcc_generated_files/ext_int.c"
   615 ;; Parameters:    Size  Location     Type
   616 ;;		None
   617 ;; Auto vars:     Size  Location     Type
   618 ;;		None
   619 ;; Return value:  Size  Location     Type
   620 ;;                  1    wreg      void 
   621 ;; Registers used:
   622 ;;		wreg, status,2, status,0, cstack
   623 ;; Tracked objects:
   624 ;;		On entry : 0/0
   625 ;;		On exit  : 0/0
   626 ;;		Unchanged: 0/0
   627 ;; Data sizes:     COMRAM   BANK0   BANK1   BANK2   BANK3   BANK4   BANK5   BANK6   BANK7   BANK8   BANK9  BANK10  BANK1
      +1  BANK12  BANK13  BANK14
   628 ;;      Params:         0       0       0       0       0       0       0       0       0       0       0       0       
      +0       0       0       0
   629 ;;      Locals:         0       0       0       0       0       0       0       0       0       0       0       0       
      +0       0       0       0
   630 ;;      Temps:          0       0       0       0       0       0       0       0       0       0       0       0       
      +0       0       0       0
   631 ;;      Totals:         0       0       0       0       0       0       0       0       0       0       0       0       
      +0       0       0       0
   632 ;;Total ram usage:        0 bytes
   633 ;; Hardware stack levels used: 1
   634 ;; Hardware stack levels required when called: 9
   635 ;; This function calls:
   636 ;;		_INT0_SetInterruptHandler
   637 ;;		_INT1_SetInterruptHandler
   638 ;;		_INT2_SetInterruptHandler
   639 ;; This function is called by:
   640 ;;		_SYSTEM_Initialize
   641 ;; This function uses a non-reentrant model
   642 ;;
   643                           
   644                           	psect	text7
   645  00012C                     __ptext7:
   646                           	callstack 0
   647  00012C                     _EXT_INT_Initialize:
   648                           	callstack 20
   649  00012C                     
   650                           ;mcc_generated_files/ext_int.c: 118:     (INTCONbits.INT0IF = 0);
   651  00012C  92F2               	bcf	242,1,c	;volatile
   652                           
   653                           ;mcc_generated_files/ext_int.c: 119:     (INTCON2bits.INTEDG0 = 0);
   654  00012E  9CF1               	bcf	241,6,c	;volatile
   655  000130                     
   656                           ;mcc_generated_files/ext_int.c: 121:     INT0_SetInterruptHandler(INT0_DefaultInterruptH
      +                          andler);
   657  000130  0EEE               	movlw	low _INT0_DefaultInterruptHandler
   658  000132  6E08               	movwf	INT0_SetInterruptHandler@InterruptHandler^0,c
   659  000134  0E02               	movlw	high _INT0_DefaultInterruptHandler
   660  000136  6E09               	movwf	(INT0_SetInterruptHandler@InterruptHandler+1)^0,c
   661  000138  EC63  F001         	call	_INT0_SetInterruptHandler	;wreg free
   662  00013C                     
   663                           ;mcc_generated_files/ext_int.c: 122:     (INTCONbits.INT0IE = 1);
   664  00013C  88F2               	bsf	242,4,c	;volatile
   665  00013E                     
   666                           ;mcc_generated_files/ext_int.c: 127:     (INTCON3bits.INT1IF = 0);
   667  00013E  90F0               	bcf	240,0,c	;volatile
   668  000140                     
   669                           ;mcc_generated_files/ext_int.c: 128:     (INTCON2bits.INTEDG1 = 0);
   670  000140  9AF1               	bcf	241,5,c	;volatile
   671                           
   672                           ;mcc_generated_files/ext_int.c: 130:     INT1_SetInterruptHandler(INT1_DefaultInterruptH
      +                          andler);
   673  000142  0EEA               	movlw	low _INT1_DefaultInterruptHandler
   674  000144  6E08               	movwf	INT1_SetInterruptHandler@InterruptHandler^0,c
   675  000146  0E02               	movlw	high _INT1_DefaultInterruptHandler
   676  000148  6E09               	movwf	(INT1_SetInterruptHandler@InterruptHandler+1)^0,c
   677  00014A  EC5E  F001         	call	_INT1_SetInterruptHandler	;wreg free
   678  00014E                     
   679                           ;mcc_generated_files/ext_int.c: 131:     (INTCON3bits.INT1IE = 1);
   680  00014E  86F0               	bsf	240,3,c	;volatile
   681  000150                     
   682                           ;mcc_generated_files/ext_int.c: 136:     (INTCON3bits.INT2IF = 0);
   683  000150  92F0               	bcf	240,1,c	;volatile
   684  000152                     
   685                           ;mcc_generated_files/ext_int.c: 137:     (INTCON2bits.INTEDG2 = 0);
   686  000152  98F1               	bcf	241,4,c	;volatile
   687                           
   688                           ;mcc_generated_files/ext_int.c: 139:     INT2_SetInterruptHandler(INT2_DefaultInterruptH
      +                          andler);
   689  000154  0EE8               	movlw	low _INT2_DefaultInterruptHandler
   690  000156  6E08               	movwf	INT2_SetInterruptHandler@InterruptHandler^0,c
   691  000158  0E02               	movlw	high _INT2_DefaultInterruptHandler
   692  00015A  6E09               	movwf	(INT2_SetInterruptHandler@InterruptHandler+1)^0,c
   693  00015C  EC59  F001         	call	_INT2_SetInterruptHandler	;wreg free
   694  000160                     
   695                           ;mcc_generated_files/ext_int.c: 140:     (INTCON3bits.INT2IE = 1);
   696  000160  88F0               	bsf	240,4,c	;volatile
   697  000162  0012               	return		;funcret
   698  000164                     __end_of_EXT_INT_Initialize:
   699                           	callstack 0
   700                           
   701 ;; *************** function _INT2_SetInterruptHandler *****************
   702 ;; Defined at:
   703 ;;		line 104 in file "mcc_generated_files/ext_int.c"
   704 ;; Parameters:    Size  Location     Type
   705 ;;  InterruptHan    2    7[COMRAM] PTR FTN()void 
   706 ;;		 -> INT2_DefaultInterruptHandler(1), 
   707 ;; Auto vars:     Size  Location     Type
   708 ;;		None
   709 ;; Return value:  Size  Location     Type
   710 ;;                  1    wreg      void 
   711 ;; Registers used:
   712 ;;		wreg, status,2, status,0
   713 ;; Tracked objects:
   714 ;;		On entry : 0/0
   715 ;;		On exit  : 0/0
   716 ;;		Unchanged: 0/0
   717 ;; Data sizes:     COMRAM   BANK0   BANK1   BANK2   BANK3   BANK4   BANK5   BANK6   BANK7   BANK8   BANK9  BANK10  BANK1
      +1  BANK12  BANK13  BANK14
   718 ;;      Params:         2       0       0       0       0       0       0       0       0       0       0       0       
      +0       0       0       0
   719 ;;      Locals:         0       0       0       0       0       0       0       0       0       0       0       0       
      +0       0       0       0
   720 ;;      Temps:          0       0       0       0       0       0       0       0       0       0       0       0       
      +0       0       0       0
   721 ;;      Totals:         2       0       0       0       0       0       0       0       0       0       0       0       
      +0       0       0       0
   722 ;;Total ram usage:        2 bytes
   723 ;; Hardware stack levels used: 1
   724 ;; Hardware stack levels required when called: 8
   725 ;; This function calls:
   726 ;;		Nothing
   727 ;; This function is called by:
   728 ;;		_EXT_INT_Initialize
   729 ;; This function uses a non-reentrant model
   730 ;;
   731                           
   732                           	psect	text8
   733  0002B2                     __ptext8:
   734                           	callstack 0
   735  0002B2                     _INT2_SetInterruptHandler:
   736                           	callstack 20
   737  0002B2                     
   738                           ;mcc_generated_files/ext_int.c: 105:     INT2_InterruptHandler = InterruptHandler;
   739  0002B2  C008  F00C         	movff	INT2_SetInterruptHandler@InterruptHandler,_INT2_InterruptHandler
   740  0002B6  C009  F00D         	movff	INT2_SetInterruptHandler@InterruptHandler+1,_INT2_InterruptHandler+1
   741  0002BA  0012               	return		;funcret
   742  0002BC                     __end_of_INT2_SetInterruptHandler:
   743                           	callstack 0
   744                           
   745 ;; *************** function _INT1_SetInterruptHandler *****************
   746 ;; Defined at:
   747 ;;		line 78 in file "mcc_generated_files/ext_int.c"
   748 ;; Parameters:    Size  Location     Type
   749 ;;  InterruptHan    2    7[COMRAM] PTR FTN()void 
   750 ;;		 -> INT1_DefaultInterruptHandler(1), 
   751 ;; Auto vars:     Size  Location     Type
   752 ;;		None
   753 ;; Return value:  Size  Location     Type
   754 ;;                  1    wreg      void 
   755 ;; Registers used:
   756 ;;		wreg, status,2, status,0
   757 ;; Tracked objects:
   758 ;;		On entry : 0/0
   759 ;;		On exit  : 0/0
   760 ;;		Unchanged: 0/0
   761 ;; Data sizes:     COMRAM   BANK0   BANK1   BANK2   BANK3   BANK4   BANK5   BANK6   BANK7   BANK8   BANK9  BANK10  BANK1
      +1  BANK12  BANK13  BANK14
   762 ;;      Params:         2       0       0       0       0       0       0       0       0       0       0       0       
      +0       0       0       0
   763 ;;      Locals:         0       0       0       0       0       0       0       0       0       0       0       0       
      +0       0       0       0
   764 ;;      Temps:          0       0       0       0       0       0       0       0       0       0       0       0       
      +0       0       0       0
   765 ;;      Totals:         2       0       0       0       0       0       0       0       0       0       0       0       
      +0       0       0       0
   766 ;;Total ram usage:        2 bytes
   767 ;; Hardware stack levels used: 1
   768 ;; Hardware stack levels required when called: 8
   769 ;; This function calls:
   770 ;;		Nothing
   771 ;; This function is called by:
   772 ;;		_EXT_INT_Initialize
   773 ;; This function uses a non-reentrant model
   774 ;;
   775                           
   776                           	psect	text9
   777  0002BC                     __ptext9:
   778                           	callstack 0
   779  0002BC                     _INT1_SetInterruptHandler:
   780                           	callstack 20
   781  0002BC                     
   782                           ;mcc_generated_files/ext_int.c: 79:     INT1_InterruptHandler = InterruptHandler;
   783  0002BC  C008  F00E         	movff	INT1_SetInterruptHandler@InterruptHandler,_INT1_InterruptHandler
   784  0002C0  C009  F00F         	movff	INT1_SetInterruptHandler@InterruptHandler+1,_INT1_InterruptHandler+1
   785  0002C4  0012               	return		;funcret
   786  0002C6                     __end_of_INT1_SetInterruptHandler:
   787                           	callstack 0
   788                           
   789 ;; *************** function _INT0_SetInterruptHandler *****************
   790 ;; Defined at:
   791 ;;		line 52 in file "mcc_generated_files/ext_int.c"
   792 ;; Parameters:    Size  Location     Type
   793 ;;  InterruptHan    2    7[COMRAM] PTR FTN()void 
   794 ;;		 -> INT0_DefaultInterruptHandler(1), 
   795 ;; Auto vars:     Size  Location     Type
   796 ;;		None
   797 ;; Return value:  Size  Location     Type
   798 ;;                  1    wreg      void 
   799 ;; Registers used:
   800 ;;		wreg, status,2, status,0
   801 ;; Tracked objects:
   802 ;;		On entry : 0/0
   803 ;;		On exit  : 0/0
   804 ;;		Unchanged: 0/0
   805 ;; Data sizes:     COMRAM   BANK0   BANK1   BANK2   BANK3   BANK4   BANK5   BANK6   BANK7   BANK8   BANK9  BANK10  BANK1
      +1  BANK12  BANK13  BANK14
   806 ;;      Params:         2       0       0       0       0       0       0       0       0       0       0       0       
      +0       0       0       0
   807 ;;      Locals:         0       0       0       0       0       0       0       0       0       0       0       0       
      +0       0       0       0
   808 ;;      Temps:          0       0       0       0       0       0       0       0       0       0       0       0       
      +0       0       0       0
   809 ;;      Totals:         2       0       0       0       0       0       0       0       0       0       0       0       
      +0       0       0       0
   810 ;;Total ram usage:        2 bytes
   811 ;; Hardware stack levels used: 1
   812 ;; Hardware stack levels required when called: 8
   813 ;; This function calls:
   814 ;;		Nothing
   815 ;; This function is called by:
   816 ;;		_EXT_INT_Initialize
   817 ;; This function uses a non-reentrant model
   818 ;;
   819                           
   820                           	psect	text10
   821  0002C6                     __ptext10:
   822                           	callstack 0
   823  0002C6                     _INT0_SetInterruptHandler:
   824                           	callstack 20
   825  0002C6                     
   826                           ;mcc_generated_files/ext_int.c: 53:     INT0_InterruptHandler = InterruptHandler;
   827  0002C6  C008  F010         	movff	INT0_SetInterruptHandler@InterruptHandler,_INT0_InterruptHandler
   828  0002CA  C009  F011         	movff	INT0_SetInterruptHandler@InterruptHandler+1,_INT0_InterruptHandler+1
   829  0002CE  0012               	return		;funcret
   830  0002D0                     __end_of_INT0_SetInterruptHandler:
   831                           	callstack 0
   832                           
   833 ;; *************** function _INTERRUPT_InterruptManagerLow *****************
   834 ;; Defined at:
   835 ;;		line 90 in file "mcc_generated_files/interrupt_manager.c"
   836 ;; Parameters:    Size  Location     Type
   837 ;;		None
   838 ;; Auto vars:     Size  Location     Type
   839 ;;		None
   840 ;; Return value:  Size  Location     Type
   841 ;;                  1    wreg      void 
   842 ;; Registers used:
   843 ;;		wreg, status,2, status,0, pcl, pclath, pclatu, tosl, cstack
   844 ;; Tracked objects:
   845 ;;		On entry : 0/0
   846 ;;		On exit  : 0/0
   847 ;;		Unchanged: 0/0
   848 ;; Data sizes:     COMRAM   BANK0   BANK1   BANK2   BANK3   BANK4   BANK5   BANK6   BANK7   BANK8   BANK9  BANK10  BANK1
      +1  BANK12  BANK13  BANK14
   849 ;;      Params:         0       0       0       0       0       0       0       0       0       0       0       0       
      +0       0       0       0
   850 ;;      Locals:         0       0       0       0       0       0       0       0       0       0       0       0       
      +0       0       0       0
   851 ;;      Temps:          5       0       0       0       0       0       0       0       0       0       0       0       
      +0       0       0       0
   852 ;;      Totals:         5       0       0       0       0       0       0       0       0       0       0       0       
      +0       0       0       0
   853 ;;Total ram usage:        5 bytes
   854 ;; Hardware stack levels used: 1
   855 ;; Hardware stack levels required when called: 7
   856 ;; This function calls:
   857 ;;		_INT1_ISR
   858 ;;		_INT2_ISR
   859 ;; This function is called by:
   860 ;;		Interrupt level 1
   861 ;; This function uses a non-reentrant model
   862 ;;
   863                           
   864                           	psect	intcodelo
   865  000018                     __pintcodelo:
   866                           	callstack 0
   867  000018                     _INTERRUPT_InterruptManagerLow:
   868                           	callstack 20
   869                           
   870                           ;incstack = 0
   871  000018  8016               	bsf	int$flags,0,c	;set compiler interrupt flag (level 1)
   872  00001A  CFD8 F003          	movff	status,??_INTERRUPT_InterruptManagerLow
   873  00001E  CFE8 F004          	movff	wreg,??_INTERRUPT_InterruptManagerLow+1
   874  000022  CFE0 F005          	movff	bsr,??_INTERRUPT_InterruptManagerLow+2
   875  000026  CFFA F006          	movff	pclath,??_INTERRUPT_InterruptManagerLow+3
   876  00002A  CFFB F007          	movff	pclatu,??_INTERRUPT_InterruptManagerLow+4
   877  00002E                     
   878                           ;mcc_generated_files/interrupt_manager.c: 93:     if(INTCON3bits.INT1IE == 1 && INTCON3b
      +                          its.INT1IF == 1)
   879  00002E  A6F0               	btfss	240,3,c	;volatile
   880  000030  EF1C  F000         	goto	i1u13_21
   881  000034  EF1E  F000         	goto	i1u13_20
   882  000038                     i1u13_21:
   883  000038  EF29  F000         	goto	i1l99
   884  00003C                     i1u13_20:
   885  00003C  A0F0               	btfss	240,0,c	;volatile
   886  00003E  EF23  F000         	goto	i1u14_21
   887  000042  EF25  F000         	goto	i1u14_20
   888  000046                     i1u14_21:
   889  000046  EF29  F000         	goto	i1l99
   890  00004A                     i1u14_20:
   891  00004A                     
   892                           ;mcc_generated_files/interrupt_manager.c: 94:     {;mcc_generated_files/interrupt_manage
      +                          r.c: 95:         INT1_ISR();
   893  00004A  EC6C  F001         	call	_INT1_ISR	;wreg free
   894                           
   895                           ;mcc_generated_files/interrupt_manager.c: 96:     }
   896  00004E  EF39  F000         	goto	i1l103
   897  000052                     i1l99:
   898  000052  A8F0               	btfss	240,4,c	;volatile
   899  000054  EF2E  F000         	goto	i1u15_21
   900  000058  EF30  F000         	goto	i1u15_20
   901  00005C                     i1u15_21:
   902  00005C  EF39  F000         	goto	i1l103
   903  000060                     i1u15_20:
   904  000060  A2F0               	btfss	240,1,c	;volatile
   905  000062  EF35  F000         	goto	i1u16_21
   906  000066  EF37  F000         	goto	i1u16_20
   907  00006A                     i1u16_21:
   908  00006A  EF39  F000         	goto	i1l103
   909  00006E                     i1u16_20:
   910  00006E                     
   911                           ;mcc_generated_files/interrupt_manager.c: 98:     {;mcc_generated_files/interrupt_manage
      +                          r.c: 99:         INT2_ISR();
   912  00006E  EC68  F001         	call	_INT2_ISR	;wreg free
   913  000072                     i1l103:
   914  000072  C007  FFFB         	movff	??_INTERRUPT_InterruptManagerLow+4,pclatu
   915  000076  C006  FFFA         	movff	??_INTERRUPT_InterruptManagerLow+3,pclath
   916  00007A  C005  FFE0         	movff	??_INTERRUPT_InterruptManagerLow+2,bsr
   917  00007E  C004  FFE8         	movff	??_INTERRUPT_InterruptManagerLow+1,wreg
   918  000082  C003  FFD8         	movff	??_INTERRUPT_InterruptManagerLow,status
   919  000086  9016               	bcf	int$flags,0,c	;clear compiler interrupt flag (level 1)
   920  000088  0010               	retfie	
   921  00008A                     __end_of_INTERRUPT_InterruptManagerLow:
   922                           	callstack 0
   923                           
   924 ;; *************** function _INT2_ISR *****************
   925 ;; Defined at:
   926 ;;		line 86 in file "mcc_generated_files/ext_int.c"
   927 ;; Parameters:    Size  Location     Type
   928 ;;		None
   929 ;; Auto vars:     Size  Location     Type
   930 ;;		None
   931 ;; Return value:  Size  Location     Type
   932 ;;                  1    wreg      void 
   933 ;; Registers used:
   934 ;;		wreg, status,2, status,0, pcl, pclath, pclatu, tosl, cstack
   935 ;; Tracked objects:
   936 ;;		On entry : 0/0
   937 ;;		On exit  : 0/0
   938 ;;		Unchanged: 0/0
   939 ;; Data sizes:     COMRAM   BANK0   BANK1   BANK2   BANK3   BANK4   BANK5   BANK6   BANK7   BANK8   BANK9  BANK10  BANK1
      +1  BANK12  BANK13  BANK14
   940 ;;      Params:         0       0       0       0       0       0       0       0       0       0       0       0       
      +0       0       0       0
   941 ;;      Locals:         0       0       0       0       0       0       0       0       0       0       0       0       
      +0       0       0       0
   942 ;;      Temps:          0       0       0       0       0       0       0       0       0       0       0       0       
      +0       0       0       0
   943 ;;      Totals:         0       0       0       0       0       0       0       0       0       0       0       0       
      +0       0       0       0
   944 ;;Total ram usage:        0 bytes
   945 ;; Hardware stack levels used: 1
   946 ;; Hardware stack levels required when called: 6
   947 ;; This function calls:
   948 ;;		_INT2_CallBack
   949 ;; This function is called by:
   950 ;;		_INTERRUPT_InterruptManagerLow
   951 ;; This function uses a non-reentrant model
   952 ;;
   953                           
   954                           	psect	text12
   955  0002D0                     __ptext12:
   956                           	callstack 0
   957  0002D0                     _INT2_ISR:
   958                           	callstack 20
   959  0002D0                     
   960                           ;mcc_generated_files/ext_int.c: 88:     (INTCON3bits.INT2IF = 0);
   961  0002D0  92F0               	bcf	240,1,c	;volatile
   962  0002D2                     
   963                           ;mcc_generated_files/ext_int.c: 91:     INT2_CallBack();
   964  0002D2  ECCD  F000         	call	_INT2_CallBack	;wreg free
   965  0002D6  0012               	return		;funcret
   966  0002D8                     __end_of_INT2_ISR:
   967                           	callstack 0
   968                           
   969 ;; *************** function _INT2_CallBack *****************
   970 ;; Defined at:
   971 ;;		line 95 in file "mcc_generated_files/ext_int.c"
   972 ;; Parameters:    Size  Location     Type
   973 ;;		None
   974 ;; Auto vars:     Size  Location     Type
   975 ;;		None
   976 ;; Return value:  Size  Location     Type
   977 ;;                  1    wreg      void 
   978 ;; Registers used:
   979 ;;		wreg, status,2, status,0, pcl, pclath, pclatu, tosl, cstack
   980 ;; Tracked objects:
   981 ;;		On entry : 0/0
   982 ;;		On exit  : 0/0
   983 ;;		Unchanged: 0/0
   984 ;; Data sizes:     COMRAM   BANK0   BANK1   BANK2   BANK3   BANK4   BANK5   BANK6   BANK7   BANK8   BANK9  BANK10  BANK1
      +1  BANK12  BANK13  BANK14
   985 ;;      Params:         0       0       0       0       0       0       0       0       0       0       0       0       
      +0       0       0       0
   986 ;;      Locals:         0       0       0       0       0       0       0       0       0       0       0       0       
      +0       0       0       0
   987 ;;      Temps:          0       0       0       0       0       0       0       0       0       0       0       0       
      +0       0       0       0
   988 ;;      Totals:         0       0       0       0       0       0       0       0       0       0       0       0       
      +0       0       0       0
   989 ;;Total ram usage:        0 bytes
   990 ;; Hardware stack levels used: 1
   991 ;; Hardware stack levels required when called: 5
   992 ;; This function calls:
   993 ;;		Absolute function
   994 ;;		_INT2_DefaultInterruptHandler
   995 ;; This function is called by:
   996 ;;		_INT2_ISR
   997 ;; This function uses a non-reentrant model
   998 ;;
   999                           
  1000                           	psect	text13
  1001  00019A                     __ptext13:
  1002                           	callstack 0
  1003  00019A                     _INT2_CallBack:
  1004                           	callstack 20
  1005  00019A                     
  1006                           ;mcc_generated_files/ext_int.c: 98:     if(INT2_InterruptHandler)
  1007  00019A  500C               	movf	_INT2_InterruptHandler^0,w,c
  1008  00019C  100D               	iorwf	(_INT2_InterruptHandler+1)^0,w,c
  1009  00019E  B4D8               	btfsc	status,2,c
  1010  0001A0  EFD4  F000         	goto	i1u7_21
  1011  0001A4  EFD6  F000         	goto	i1u7_20
  1012  0001A8                     i1u7_21:
  1013  0001A8  EFE3  F000         	goto	i1l205
  1014  0001AC                     i1u7_20:
  1015  0001AC                     
  1016                           ;mcc_generated_files/ext_int.c: 99:     {;mcc_generated_files/ext_int.c: 100:         IN
      +                          T2_InterruptHandler();
  1017  0001AC  D802               	call	i1u8_28
  1018  0001AE  EFE3  F000         	goto	i1u8_29
  1019  0001B2                     i1u8_28:
  1020  0001B2  0005               	push	
  1021  0001B4  6EFA               	movwf	pclath,c
  1022  0001B6  500C               	movf	_INT2_InterruptHandler^0,w,c
  1023  0001B8  6EFD               	movwf	tosl,c
  1024  0001BA  500D               	movf	(_INT2_InterruptHandler+1)^0,w,c
  1025  0001BC  6EFE               	movwf	tosh,c
  1026  0001BE  50F8               	movf	tblptru,w,c
  1027  0001C0  6EFF               	movwf	tosu,c
  1028  0001C2  50FA               	movf	pclath,w,c
  1029  0001C4  0012               	return		;indir
  1030  0001C6                     i1u8_29:
  1031  0001C6                     i1l205:
  1032  0001C6  0012               	return		;funcret
  1033  0001C8                     __end_of_INT2_CallBack:
  1034                           	callstack 0
  1035                           
  1036 ;; *************** function _INT2_DefaultInterruptHandler *****************
  1037 ;; Defined at:
  1038 ;;		line 108 in file "mcc_generated_files/ext_int.c"
  1039 ;; Parameters:    Size  Location     Type
  1040 ;;		None
  1041 ;; Auto vars:     Size  Location     Type
  1042 ;;		None
  1043 ;; Return value:  Size  Location     Type
  1044 ;;                  1    wreg      void 
  1045 ;; Registers used:
  1046 ;;		None
  1047 ;; Tracked objects:
  1048 ;;		On entry : 0/0
  1049 ;;		On exit  : 0/0
  1050 ;;		Unchanged: 0/0
  1051 ;; Data sizes:     COMRAM   BANK0   BANK1   BANK2   BANK3   BANK4   BANK5   BANK6   BANK7   BANK8   BANK9  BANK10  BANK1
      +1  BANK12  BANK13  BANK14
  1052 ;;      Params:         0       0       0       0       0       0       0       0       0       0       0       0       
      +0       0       0       0
  1053 ;;      Locals:         0       0       0       0       0       0       0       0       0       0       0       0       
      +0       0       0       0
  1054 ;;      Temps:          0       0       0       0       0       0       0       0       0       0       0       0       
      +0       0       0       0
  1055 ;;      Totals:         0       0       0       0       0       0       0       0       0       0       0       0       
      +0       0       0       0
  1056 ;;Total ram usage:        0 bytes
  1057 ;; Hardware stack levels used: 1
  1058 ;; Hardware stack levels required when called: 4
  1059 ;; This function calls:
  1060 ;;		Nothing
  1061 ;; This function is called by:
  1062 ;;		_EXT_INT_Initialize
  1063 ;;		_INT2_CallBack
  1064 ;; This function uses a non-reentrant model
  1065 ;;
  1066                           
  1067                           	psect	text14
  1068  0002E8                     __ptext14:
  1069                           	callstack 0
  1070  0002E8                     _INT2_DefaultInterruptHandler:
  1071                           	callstack 20
  1072  0002E8  0012               	return		;funcret
  1073  0002EA                     __end_of_INT2_DefaultInterruptHandler:
  1074                           	callstack 0
  1075                           
  1076 ;; *************** function _INT1_ISR *****************
  1077 ;; Defined at:
  1078 ;;		line 60 in file "mcc_generated_files/ext_int.c"
  1079 ;; Parameters:    Size  Location     Type
  1080 ;;		None
  1081 ;; Auto vars:     Size  Location     Type
  1082 ;;		None
  1083 ;; Return value:  Size  Location     Type
  1084 ;;                  1    wreg      void 
  1085 ;; Registers used:
  1086 ;;		wreg, status,2, status,0, pcl, pclath, pclatu, tosl, cstack
  1087 ;; Tracked objects:
  1088 ;;		On entry : 0/0
  1089 ;;		On exit  : 0/0
  1090 ;;		Unchanged: 0/0
  1091 ;; Data sizes:     COMRAM   BANK0   BANK1   BANK2   BANK3   BANK4   BANK5   BANK6   BANK7   BANK8   BANK9  BANK10  BANK1
      +1  BANK12  BANK13  BANK14
  1092 ;;      Params:         0       0       0       0       0       0       0       0       0       0       0       0       
      +0       0       0       0
  1093 ;;      Locals:         0       0       0       0       0       0       0       0       0       0       0       0       
      +0       0       0       0
  1094 ;;      Temps:          0       0       0       0       0       0       0       0       0       0       0       0       
      +0       0       0       0
  1095 ;;      Totals:         0       0       0       0       0       0       0       0       0       0       0       0       
      +0       0       0       0
  1096 ;;Total ram usage:        0 bytes
  1097 ;; Hardware stack levels used: 1
  1098 ;; Hardware stack levels required when called: 6
  1099 ;; This function calls:
  1100 ;;		_INT1_CallBack
  1101 ;; This function is called by:
  1102 ;;		_INTERRUPT_InterruptManagerLow
  1103 ;; This function uses a non-reentrant model
  1104 ;;
  1105                           
  1106                           	psect	text15
  1107  0002D8                     __ptext15:
  1108                           	callstack 0
  1109  0002D8                     _INT1_ISR:
  1110                           	callstack 20
  1111  0002D8                     
  1112                           ;mcc_generated_files/ext_int.c: 62:     (INTCON3bits.INT1IF = 0);
  1113  0002D8  90F0               	bcf	240,0,c	;volatile
  1114  0002DA                     
  1115                           ;mcc_generated_files/ext_int.c: 65:     INT1_CallBack();
  1116  0002DA  ECE4  F000         	call	_INT1_CallBack	;wreg free
  1117  0002DE  0012               	return		;funcret
  1118  0002E0                     __end_of_INT1_ISR:
  1119                           	callstack 0
  1120                           
  1121 ;; *************** function _INT1_CallBack *****************
  1122 ;; Defined at:
  1123 ;;		line 69 in file "mcc_generated_files/ext_int.c"
  1124 ;; Parameters:    Size  Location     Type
  1125 ;;		None
  1126 ;; Auto vars:     Size  Location     Type
  1127 ;;		None
  1128 ;; Return value:  Size  Location     Type
  1129 ;;                  1    wreg      void 
  1130 ;; Registers used:
  1131 ;;		wreg, status,2, status,0, pcl, pclath, pclatu, tosl, cstack
  1132 ;; Tracked objects:
  1133 ;;		On entry : 0/0
  1134 ;;		On exit  : 0/0
  1135 ;;		Unchanged: 0/0
  1136 ;; Data sizes:     COMRAM   BANK0   BANK1   BANK2   BANK3   BANK4   BANK5   BANK6   BANK7   BANK8   BANK9  BANK10  BANK1
      +1  BANK12  BANK13  BANK14
  1137 ;;      Params:         0       0       0       0       0       0       0       0       0       0       0       0       
      +0       0       0       0
  1138 ;;      Locals:         0       0       0       0       0       0       0       0       0       0       0       0       
      +0       0       0       0
  1139 ;;      Temps:          0       0       0       0       0       0       0       0       0       0       0       0       
      +0       0       0       0
  1140 ;;      Totals:         0       0       0       0       0       0       0       0       0       0       0       0       
      +0       0       0       0
  1141 ;;Total ram usage:        0 bytes
  1142 ;; Hardware stack levels used: 1
  1143 ;; Hardware stack levels required when called: 5
  1144 ;; This function calls:
  1145 ;;		Absolute function
  1146 ;;		_INT1_DefaultInterruptHandler
  1147 ;; This function is called by:
  1148 ;;		_INT1_ISR
  1149 ;; This function uses a non-reentrant model
  1150 ;;
  1151                           
  1152                           	psect	text16
  1153  0001C8                     __ptext16:
  1154                           	callstack 0
  1155  0001C8                     _INT1_CallBack:
  1156                           	callstack 20
  1157  0001C8                     
  1158                           ;mcc_generated_files/ext_int.c: 72:     if(INT1_InterruptHandler)
  1159  0001C8  500E               	movf	_INT1_InterruptHandler^0,w,c
  1160  0001CA  100F               	iorwf	(_INT1_InterruptHandler+1)^0,w,c
  1161  0001CC  B4D8               	btfsc	status,2,c
  1162  0001CE  EFEB  F000         	goto	i1u5_21
  1163  0001D2  EFED  F000         	goto	i1u5_20
  1164  0001D6                     i1u5_21:
  1165  0001D6  EFFA  F000         	goto	i1l192
  1166  0001DA                     i1u5_20:
  1167  0001DA                     
  1168                           ;mcc_generated_files/ext_int.c: 73:     {;mcc_generated_files/ext_int.c: 74:         INT
      +                          1_InterruptHandler();
  1169  0001DA  D802               	call	i1u6_28
  1170  0001DC  EFFA  F000         	goto	i1u6_29
  1171  0001E0                     i1u6_28:
  1172  0001E0  0005               	push	
  1173  0001E2  6EFA               	movwf	pclath,c
  1174  0001E4  500E               	movf	_INT1_InterruptHandler^0,w,c
  1175  0001E6  6EFD               	movwf	tosl,c
  1176  0001E8  500F               	movf	(_INT1_InterruptHandler+1)^0,w,c
  1177  0001EA  6EFE               	movwf	tosh,c
  1178  0001EC  50F8               	movf	tblptru,w,c
  1179  0001EE  6EFF               	movwf	tosu,c
  1180  0001F0  50FA               	movf	pclath,w,c
  1181  0001F2  0012               	return		;indir
  1182  0001F4                     i1u6_29:
  1183  0001F4                     i1l192:
  1184  0001F4  0012               	return		;funcret
  1185  0001F6                     __end_of_INT1_CallBack:
  1186                           	callstack 0
  1187                           
  1188 ;; *************** function _INT1_DefaultInterruptHandler *****************
  1189 ;; Defined at:
  1190 ;;		line 82 in file "mcc_generated_files/ext_int.c"
  1191 ;; Parameters:    Size  Location     Type
  1192 ;;		None
  1193 ;; Auto vars:     Size  Location     Type
  1194 ;;		None
  1195 ;; Return value:  Size  Location     Type
  1196 ;;                  1    wreg      void 
  1197 ;; Registers used:
  1198 ;;		None
  1199 ;; Tracked objects:
  1200 ;;		On entry : 0/0
  1201 ;;		On exit  : 0/0
  1202 ;;		Unchanged: 0/0
  1203 ;; Data sizes:     COMRAM   BANK0   BANK1   BANK2   BANK3   BANK4   BANK5   BANK6   BANK7   BANK8   BANK9  BANK10  BANK1
      +1  BANK12  BANK13  BANK14
  1204 ;;      Params:         0       0       0       0       0       0       0       0       0       0       0       0       
      +0       0       0       0
  1205 ;;      Locals:         0       0       0       0       0       0       0       0       0       0       0       0       
      +0       0       0       0
  1206 ;;      Temps:          0       0       0       0       0       0       0       0       0       0       0       0       
      +0       0       0       0
  1207 ;;      Totals:         0       0       0       0       0       0       0       0       0       0       0       0       
      +0       0       0       0
  1208 ;;Total ram usage:        0 bytes
  1209 ;; Hardware stack levels used: 1
  1210 ;; Hardware stack levels required when called: 4
  1211 ;; This function calls:
  1212 ;;		Nothing
  1213 ;; This function is called by:
  1214 ;;		_EXT_INT_Initialize
  1215 ;;		_INT1_CallBack
  1216 ;; This function uses a non-reentrant model
  1217 ;;
  1218                           
  1219                           	psect	text17
  1220  0002EA                     __ptext17:
  1221                           	callstack 0
  1222  0002EA                     _INT1_DefaultInterruptHandler:
  1223                           	callstack 20
  1224  0002EA  0012               	return		;funcret
  1225  0002EC                     __end_of_INT1_DefaultInterruptHandler:
  1226                           	callstack 0
  1227                           
  1228 ;; *************** function _INTERRUPT_InterruptManagerHigh *****************
  1229 ;; Defined at:
  1230 ;;		line 73 in file "mcc_generated_files/interrupt_manager.c"
  1231 ;; Parameters:    Size  Location     Type
  1232 ;;		None
  1233 ;; Auto vars:     Size  Location     Type
  1234 ;;		None
  1235 ;; Return value:  Size  Location     Type
  1236 ;;                  1    wreg      void 
  1237 ;; Registers used:
  1238 ;;		wreg, status,2, status,0, pcl, pclath, pclatu, tosl, cstack
  1239 ;; Tracked objects:
  1240 ;;		On entry : 0/0
  1241 ;;		On exit  : 0/0
  1242 ;;		Unchanged: 0/0
  1243 ;; Data sizes:     COMRAM   BANK0   BANK1   BANK2   BANK3   BANK4   BANK5   BANK6   BANK7   BANK8   BANK9  BANK10  BANK1
      +1  BANK12  BANK13  BANK14
  1244 ;;      Params:         0       0       0       0       0       0       0       0       0       0       0       0       
      +0       0       0       0
  1245 ;;      Locals:         0       0       0       0       0       0       0       0       0       0       0       0       
      +0       0       0       0
  1246 ;;      Temps:          2       0       0       0       0       0       0       0       0       0       0       0       
      +0       0       0       0
  1247 ;;      Totals:         2       0       0       0       0       0       0       0       0       0       0       0       
      +0       0       0       0
  1248 ;;Total ram usage:        2 bytes
  1249 ;; Hardware stack levels used: 1
  1250 ;; Hardware stack levels required when called: 3
  1251 ;; This function calls:
  1252 ;;		_INT0_ISR
  1253 ;;		_TMR0_ISR
  1254 ;; This function is called by:
  1255 ;;		Interrupt level 2
  1256 ;; This function uses a non-reentrant model
  1257 ;;
  1258                           
  1259                           	psect	intcode
  1260  000008                     __pintcode:
  1261                           	callstack 0
  1262  000008                     _INTERRUPT_InterruptManagerHigh:
  1263                           	callstack 20
  1264                           
  1265                           ;incstack = 0
  1266  000008  8216               	bsf	int$flags,1,c	;set compiler interrupt flag (level 2)
  1267  00000A  EF47  F000         	goto	int_func
  1268                           
  1269                           	psect	intcode_body
  1270  00008E                     __pintcode_body:
  1271                           	callstack 20
  1272  00008E                     int_func:
  1273                           	callstack 20
  1274  00008E  CFFA F001          	movff	pclath,??_INTERRUPT_InterruptManagerHigh
  1275  000092  CFFB F002          	movff	pclatu,??_INTERRUPT_InterruptManagerHigh+1
  1276  000096                     
  1277                           ;mcc_generated_files/interrupt_manager.c: 76:     if(INTCONbits.TMR0IE == 1 && INTCONbit
      +                          s.TMR0IF == 1)
  1278  000096  AAF2               	btfss	242,5,c	;volatile
  1279  000098  EF50  F000         	goto	i2u9_41
  1280  00009C  EF52  F000         	goto	i2u9_40
  1281  0000A0                     i2u9_41:
  1282  0000A0  EF5D  F000         	goto	i2l90
  1283  0000A4                     i2u9_40:
  1284  0000A4  A4F2               	btfss	242,2,c	;volatile
  1285  0000A6  EF57  F000         	goto	i2u10_41
  1286  0000AA  EF59  F000         	goto	i2u10_40
  1287  0000AE                     i2u10_41:
  1288  0000AE  EF5D  F000         	goto	i2l90
  1289  0000B2                     i2u10_40:
  1290  0000B2                     
  1291                           ;mcc_generated_files/interrupt_manager.c: 77:     {;mcc_generated_files/interrupt_manage
      +                          r.c: 78:         TMR0_ISR();
  1292  0000B2  EC34  F001         	call	_TMR0_ISR	;wreg free
  1293                           
  1294                           ;mcc_generated_files/interrupt_manager.c: 79:     }
  1295  0000B6  EF6D  F000         	goto	i2l94
  1296  0000BA                     i2l90:
  1297  0000BA  A8F2               	btfss	242,4,c	;volatile
  1298  0000BC  EF62  F000         	goto	i2u11_41
  1299  0000C0  EF64  F000         	goto	i2u11_40
  1300  0000C4                     i2u11_41:
  1301  0000C4  EF6D  F000         	goto	i2l94
  1302  0000C8                     i2u11_40:
  1303  0000C8  A2F2               	btfss	242,1,c	;volatile
  1304  0000CA  EF69  F000         	goto	i2u12_41
  1305  0000CE  EF6B  F000         	goto	i2u12_40
  1306  0000D2                     i2u12_41:
  1307  0000D2  EF6D  F000         	goto	i2l94
  1308  0000D6                     i2u12_40:
  1309  0000D6                     
  1310                           ;mcc_generated_files/interrupt_manager.c: 81:     {;mcc_generated_files/interrupt_manage
      +                          r.c: 82:         INT0_ISR();
  1311  0000D6  EC70  F001         	call	_INT0_ISR	;wreg free
  1312  0000DA                     i2l94:
  1313  0000DA  C002  FFFB         	movff	??_INTERRUPT_InterruptManagerHigh+1,pclatu
  1314  0000DE  C001  FFFA         	movff	??_INTERRUPT_InterruptManagerHigh,pclath
  1315  0000E2  9216               	bcf	int$flags,1,c	;clear compiler interrupt flag (level 2)
  1316  0000E4  0011               	retfie		f
  1317  0000E6                     __end_of_INTERRUPT_InterruptManagerHigh:
  1318                           	callstack 0
  1319                           
  1320 ;; *************** function _TMR0_ISR *****************
  1321 ;; Defined at:
  1322 ;;		line 136 in file "mcc_generated_files/tmr0.c"
  1323 ;; Parameters:    Size  Location     Type
  1324 ;;		None
  1325 ;; Auto vars:     Size  Location     Type
  1326 ;;		None
  1327 ;; Return value:  Size  Location     Type
  1328 ;;                  1    wreg      void 
  1329 ;; Registers used:
  1330 ;;		wreg, status,2, status,0, pcl, pclath, pclatu, tosl, cstack
  1331 ;; Tracked objects:
  1332 ;;		On entry : 0/0
  1333 ;;		On exit  : 0/0
  1334 ;;		Unchanged: 0/0
  1335 ;; Data sizes:     COMRAM   BANK0   BANK1   BANK2   BANK3   BANK4   BANK5   BANK6   BANK7   BANK8   BANK9  BANK10  BANK1
      +1  BANK12  BANK13  BANK14
  1336 ;;      Params:         0       0       0       0       0       0       0       0       0       0       0       0       
      +0       0       0       0
  1337 ;;      Locals:         0       0       0       0       0       0       0       0       0       0       0       0       
      +0       0       0       0
  1338 ;;      Temps:          0       0       0       0       0       0       0       0       0       0       0       0       
      +0       0       0       0
  1339 ;;      Totals:         0       0       0       0       0       0       0       0       0       0       0       0       
      +0       0       0       0
  1340 ;;Total ram usage:        0 bytes
  1341 ;; Hardware stack levels used: 1
  1342 ;; Hardware stack levels required when called: 2
  1343 ;; This function calls:
  1344 ;;		_TMR0_CallBack
  1345 ;; This function is called by:
  1346 ;;		_INTERRUPT_InterruptManagerHigh
  1347 ;; This function uses a non-reentrant model
  1348 ;;
  1349                           
  1350                           	psect	text19
  1351  000268                     __ptext19:
  1352                           	callstack 0
  1353  000268                     _TMR0_ISR:
  1354                           	callstack 20
  1355  000268                     
  1356                           ;mcc_generated_files/tmr0.c: 140:     INTCONbits.TMR0IF = 0;
  1357  000268  94F2               	bcf	242,2,c	;volatile
  1358  00026A                     
  1359                           ;mcc_generated_files/tmr0.c: 144:     TMR0H = timer0ReloadVal >> 8;
  1360  00026A  5013               	movf	(_timer0ReloadVal+1)^0,w,c	;volatile
  1361  00026C  6ED7               	movwf	215,c	;volatile
  1362  00026E                     
  1363                           ;mcc_generated_files/tmr0.c: 145:     TMR0L = (uint8_t) timer0ReloadVal;
  1364  00026E  C012  FFD6         	movff	_timer0ReloadVal,4054	;volatile
  1365  000272                     
  1366                           ;mcc_generated_files/tmr0.c: 149:     TMR0_CallBack();
  1367  000272  ECFB  F000         	call	_TMR0_CallBack	;wreg free
  1368  000276  0012               	return		;funcret
  1369  000278                     __end_of_TMR0_ISR:
  1370                           	callstack 0
  1371                           
  1372 ;; *************** function _TMR0_CallBack *****************
  1373 ;; Defined at:
  1374 ;;		line 154 in file "mcc_generated_files/tmr0.c"
  1375 ;; Parameters:    Size  Location     Type
  1376 ;;		None
  1377 ;; Auto vars:     Size  Location     Type
  1378 ;;		None
  1379 ;; Return value:  Size  Location     Type
  1380 ;;                  1    wreg      void 
  1381 ;; Registers used:
  1382 ;;		wreg, status,2, status,0, pcl, pclath, pclatu, tosl, cstack
  1383 ;; Tracked objects:
  1384 ;;		On entry : 0/0
  1385 ;;		On exit  : 0/0
  1386 ;;		Unchanged: 0/0
  1387 ;; Data sizes:     COMRAM   BANK0   BANK1   BANK2   BANK3   BANK4   BANK5   BANK6   BANK7   BANK8   BANK9  BANK10  BANK1
      +1  BANK12  BANK13  BANK14
  1388 ;;      Params:         0       0       0       0       0       0       0       0       0       0       0       0       
      +0       0       0       0
  1389 ;;      Locals:         0       0       0       0       0       0       0       0       0       0       0       0       
      +0       0       0       0
  1390 ;;      Temps:          0       0       0       0       0       0       0       0       0       0       0       0       
      +0       0       0       0
  1391 ;;      Totals:         0       0       0       0       0       0       0       0       0       0       0       0       
      +0       0       0       0
  1392 ;;Total ram usage:        0 bytes
  1393 ;; Hardware stack levels used: 1
  1394 ;; Hardware stack levels required when called: 1
  1395 ;; This function calls:
  1396 ;;		Absolute function
  1397 ;;		_TMR0_DefaultInterruptHandler
  1398 ;; This function is called by:
  1399 ;;		_TMR0_ISR
  1400 ;; This function uses a non-reentrant model
  1401 ;;
  1402                           
  1403                           	psect	text20
  1404  0001F6                     __ptext20:
  1405                           	callstack 0
  1406  0001F6                     _TMR0_CallBack:
  1407                           	callstack 20
  1408  0001F6                     
  1409                           ;mcc_generated_files/tmr0.c: 158:     if(TMR0_InterruptHandler)
  1410  0001F6  5014               	movf	_TMR0_InterruptHandler^0,w,c
  1411  0001F8  1015               	iorwf	(_TMR0_InterruptHandler+1)^0,w,c
  1412  0001FA  B4D8               	btfsc	status,2,c
  1413  0001FC  EF02  F001         	goto	i2u1_41
  1414  000200  EF04  F001         	goto	i2u1_40
  1415  000204                     i2u1_41:
  1416  000204  EF11  F001         	goto	i2l148
  1417  000208                     i2u1_40:
  1418  000208                     
  1419                           ;mcc_generated_files/tmr0.c: 159:     {;mcc_generated_files/tmr0.c: 160:         TMR0_In
      +                          terruptHandler();
  1420  000208  D802               	call	i2u2_48
  1421  00020A  EF11  F001         	goto	i2u2_49
  1422  00020E                     i2u2_48:
  1423  00020E  0005               	push	
  1424  000210  6EFA               	movwf	pclath,c
  1425  000212  5014               	movf	_TMR0_InterruptHandler^0,w,c
  1426  000214  6EFD               	movwf	tosl,c
  1427  000216  5015               	movf	(_TMR0_InterruptHandler+1)^0,w,c
  1428  000218  6EFE               	movwf	tosh,c
  1429  00021A  50F8               	movf	tblptru,w,c
  1430  00021C  6EFF               	movwf	tosu,c
  1431  00021E  50FA               	movf	pclath,w,c
  1432  000220  0012               	return		;indir
  1433  000222                     i2u2_49:
  1434  000222                     i2l148:
  1435  000222  0012               	return		;funcret
  1436  000224                     __end_of_TMR0_CallBack:
  1437                           	callstack 0
  1438                           
  1439 ;; *************** function _TMR0_DefaultInterruptHandler *****************
  1440 ;; Defined at:
  1441 ;;		line 168 in file "mcc_generated_files/tmr0.c"
  1442 ;; Parameters:    Size  Location     Type
  1443 ;;		None
  1444 ;; Auto vars:     Size  Location     Type
  1445 ;;		None
  1446 ;; Return value:  Size  Location     Type
  1447 ;;                  1    wreg      void 
  1448 ;; Registers used:
  1449 ;;		None
  1450 ;; Tracked objects:
  1451 ;;		On entry : 0/0
  1452 ;;		On exit  : 0/0
  1453 ;;		Unchanged: 0/0
  1454 ;; Data sizes:     COMRAM   BANK0   BANK1   BANK2   BANK3   BANK4   BANK5   BANK6   BANK7   BANK8   BANK9  BANK10  BANK1
      +1  BANK12  BANK13  BANK14
  1455 ;;      Params:         0       0       0       0       0       0       0       0       0       0       0       0       
      +0       0       0       0
  1456 ;;      Locals:         0       0       0       0       0       0       0       0       0       0       0       0       
      +0       0       0       0
  1457 ;;      Temps:          0       0       0       0       0       0       0       0       0       0       0       0       
      +0       0       0       0
  1458 ;;      Totals:         0       0       0       0       0       0       0       0       0       0       0       0       
      +0       0       0       0
  1459 ;;Total ram usage:        0 bytes
  1460 ;; Hardware stack levels used: 1
  1461 ;; This function calls:
  1462 ;;		Nothing
  1463 ;; This function is called by:
  1464 ;;		_TMR0_Initialize
  1465 ;;		_TMR0_CallBack
  1466 ;; This function uses a non-reentrant model
  1467 ;;
  1468                           
  1469                           	psect	text21
  1470  0002EC                     __ptext21:
  1471                           	callstack 0
  1472  0002EC                     _TMR0_DefaultInterruptHandler:
  1473                           	callstack 20
  1474  0002EC  0012               	return		;funcret
  1475  0002EE                     __end_of_TMR0_DefaultInterruptHandler:
  1476                           	callstack 0
  1477                           
  1478 ;; *************** function _INT0_ISR *****************
  1479 ;; Defined at:
  1480 ;;		line 34 in file "mcc_generated_files/ext_int.c"
  1481 ;; Parameters:    Size  Location     Type
  1482 ;;		None
  1483 ;; Auto vars:     Size  Location     Type
  1484 ;;		None
  1485 ;; Return value:  Size  Location     Type
  1486 ;;                  1    wreg      void 
  1487 ;; Registers used:
  1488 ;;		wreg, status,2, status,0, pcl, pclath, pclatu, tosl, cstack
  1489 ;; Tracked objects:
  1490 ;;		On entry : 0/0
  1491 ;;		On exit  : 0/0
  1492 ;;		Unchanged: 0/0
  1493 ;; Data sizes:     COMRAM   BANK0   BANK1   BANK2   BANK3   BANK4   BANK5   BANK6   BANK7   BANK8   BANK9  BANK10  BANK1
      +1  BANK12  BANK13  BANK14
  1494 ;;      Params:         0       0       0       0       0       0       0       0       0       0       0       0       
      +0       0       0       0
  1495 ;;      Locals:         0       0       0       0       0       0       0       0       0       0       0       0       
      +0       0       0       0
  1496 ;;      Temps:          0       0       0       0       0       0       0       0       0       0       0       0       
      +0       0       0       0
  1497 ;;      Totals:         0       0       0       0       0       0       0       0       0       0       0       0       
      +0       0       0       0
  1498 ;;Total ram usage:        0 bytes
  1499 ;; Hardware stack levels used: 1
  1500 ;; Hardware stack levels required when called: 2
  1501 ;; This function calls:
  1502 ;;		_INT0_CallBack
  1503 ;; This function is called by:
  1504 ;;		_INTERRUPT_InterruptManagerHigh
  1505 ;; This function uses a non-reentrant model
  1506 ;;
  1507                           
  1508                           	psect	text22
  1509  0002E0                     __ptext22:
  1510                           	callstack 0
  1511  0002E0                     _INT0_ISR:
  1512                           	callstack 20
  1513  0002E0                     
  1514                           ;mcc_generated_files/ext_int.c: 36:     (INTCONbits.INT0IF = 0);
  1515  0002E0  92F2               	bcf	242,1,c	;volatile
  1516  0002E2                     
  1517                           ;mcc_generated_files/ext_int.c: 39:     INT0_CallBack();
  1518  0002E2  EC12  F001         	call	_INT0_CallBack	;wreg free
  1519  0002E6  0012               	return		;funcret
  1520  0002E8                     __end_of_INT0_ISR:
  1521                           	callstack 0
  1522                           
  1523 ;; *************** function _INT0_CallBack *****************
  1524 ;; Defined at:
  1525 ;;		line 43 in file "mcc_generated_files/ext_int.c"
  1526 ;; Parameters:    Size  Location     Type
  1527 ;;		None
  1528 ;; Auto vars:     Size  Location     Type
  1529 ;;		None
  1530 ;; Return value:  Size  Location     Type
  1531 ;;                  1    wreg      void 
  1532 ;; Registers used:
  1533 ;;		wreg, status,2, status,0, pcl, pclath, pclatu, tosl, cstack
  1534 ;; Tracked objects:
  1535 ;;		On entry : 0/0
  1536 ;;		On exit  : 0/0
  1537 ;;		Unchanged: 0/0
  1538 ;; Data sizes:     COMRAM   BANK0   BANK1   BANK2   BANK3   BANK4   BANK5   BANK6   BANK7   BANK8   BANK9  BANK10  BANK1
      +1  BANK12  BANK13  BANK14
  1539 ;;      Params:         0       0       0       0       0       0       0       0       0       0       0       0       
      +0       0       0       0
  1540 ;;      Locals:         0       0       0       0       0       0       0       0       0       0       0       0       
      +0       0       0       0
  1541 ;;      Temps:          0       0       0       0       0       0       0       0       0       0       0       0       
      +0       0       0       0
  1542 ;;      Totals:         0       0       0       0       0       0       0       0       0       0       0       0       
      +0       0       0       0
  1543 ;;Total ram usage:        0 bytes
  1544 ;; Hardware stack levels used: 1
  1545 ;; Hardware stack levels required when called: 1
  1546 ;; This function calls:
  1547 ;;		Absolute function
  1548 ;;		_INT0_DefaultInterruptHandler
  1549 ;; This function is called by:
  1550 ;;		_INT0_ISR
  1551 ;; This function uses a non-reentrant model
  1552 ;;
  1553                           
  1554                           	psect	text23
  1555  000224                     __ptext23:
  1556                           	callstack 0
  1557  000224                     _INT0_CallBack:
  1558                           	callstack 20
  1559  000224                     
  1560                           ;mcc_generated_files/ext_int.c: 46:     if(INT0_InterruptHandler)
  1561  000224  5010               	movf	_INT0_InterruptHandler^0,w,c
  1562  000226  1011               	iorwf	(_INT0_InterruptHandler+1)^0,w,c
  1563  000228  B4D8               	btfsc	status,2,c
  1564  00022A  EF19  F001         	goto	i2u3_41
  1565  00022E  EF1B  F001         	goto	i2u3_40
  1566  000232                     i2u3_41:
  1567  000232  EF28  F001         	goto	i2l179
  1568  000236                     i2u3_40:
  1569  000236                     
  1570                           ;mcc_generated_files/ext_int.c: 47:     {;mcc_generated_files/ext_int.c: 48:         INT
      +                          0_InterruptHandler();
  1571  000236  D802               	call	i2u4_48
  1572  000238  EF28  F001         	goto	i2u4_49
  1573  00023C                     i2u4_48:
  1574  00023C  0005               	push	
  1575  00023E  6EFA               	movwf	pclath,c
  1576  000240  5010               	movf	_INT0_InterruptHandler^0,w,c
  1577  000242  6EFD               	movwf	tosl,c
  1578  000244  5011               	movf	(_INT0_InterruptHandler+1)^0,w,c
  1579  000246  6EFE               	movwf	tosh,c
  1580  000248  50F8               	movf	tblptru,w,c
  1581  00024A  6EFF               	movwf	tosu,c
  1582  00024C  50FA               	movf	pclath,w,c
  1583  00024E  0012               	return		;indir
  1584  000250                     i2u4_49:
  1585  000250                     i2l179:
  1586  000250  0012               	return		;funcret
  1587  000252                     __end_of_INT0_CallBack:
  1588                           	callstack 0
  1589                           
  1590 ;; *************** function _INT0_DefaultInterruptHandler *****************
  1591 ;; Defined at:
  1592 ;;		line 56 in file "mcc_generated_files/ext_int.c"
  1593 ;; Parameters:    Size  Location     Type
  1594 ;;		None
  1595 ;; Auto vars:     Size  Location     Type
  1596 ;;		None
  1597 ;; Return value:  Size  Location     Type
  1598 ;;                  1    wreg      void 
  1599 ;; Registers used:
  1600 ;;		None
  1601 ;; Tracked objects:
  1602 ;;		On entry : 0/0
  1603 ;;		On exit  : 0/0
  1604 ;;		Unchanged: 0/0
  1605 ;; Data sizes:     COMRAM   BANK0   BANK1   BANK2   BANK3   BANK4   BANK5   BANK6   BANK7   BANK8   BANK9  BANK10  BANK1
      +1  BANK12  BANK13  BANK14
  1606 ;;      Params:         0       0       0       0       0       0       0       0       0       0       0       0       
      +0       0       0       0
  1607 ;;      Locals:         0       0       0       0       0       0       0       0       0       0       0       0       
      +0       0       0       0
  1608 ;;      Temps:          0       0       0       0       0       0       0       0       0       0       0       0       
      +0       0       0       0
  1609 ;;      Totals:         0       0       0       0       0       0       0       0       0       0       0       0       
      +0       0       0       0
  1610 ;;Total ram usage:        0 bytes
  1611 ;; Hardware stack levels used: 1
  1612 ;; This function calls:
  1613 ;;		Nothing
  1614 ;; This function is called by:
  1615 ;;		_EXT_INT_Initialize
  1616 ;;		_INT0_CallBack
  1617 ;; This function uses a non-reentrant model
  1618 ;;
  1619                           
  1620                           	psect	text24
  1621  0002EE                     __ptext24:
  1622                           	callstack 0
  1623  0002EE                     _INT0_DefaultInterruptHandler:
  1624                           	callstack 20
  1625  0002EE  0012               	return		;funcret
  1626  0002F0                     __end_of_INT0_DefaultInterruptHandler:
  1627                           	callstack 0
  1628  0000                     
  1629                           	psect	text25
  1630  000000                     __ptext25:
  1631                           	callstack 0
  1632  000000                     
  1633                           	psect	rparam
  1634  0000                     
  1635                           	psect	temp
  1636  000016                     btemp:
  1637                           	callstack 0
  1638  000016                     	ds	1
  1639  0000                     int$flags	set	btemp
  1640  0000                     wtemp8	set	btemp+1
  1641  0000                     ttemp5	set	btemp+1
  1642  0000                     ttemp6	set	btemp+4
  1643  0000                     ttemp7	set	btemp+8
  1644                           
  1645                           	psect	config
  1646                           
  1647                           ;Config register CONFIG1L @ 0xFFF8
  1648                           ;	Watchdog Timer
  1649                           ;	WDTEN = OFF, Disabled - Controlled by SWDTEN bit
  1650                           ;	PLL Prescaler Selection bits
  1651                           ;	PLLDIV = 2, Divide by 2 (8 MHz oscillator input)
  1652                           ;	Stack Overflow/Underflow Reset
  1653                           ;	STVREN = 0x1, unprogrammed default
  1654                           ;	Extended Instruction Set
  1655                           ;	XINST = OFF, Disabled
  1656                           ;	Background Debug
  1657                           ;	DEBUG = 0x1, unprogrammed default
  1658  FFF8                     	org	65528
  1659  FFF8  AC                 	db	172
  1660                           
  1661                           ;Config register CONFIG1H @ 0xFFF9
  1662                           ;	CPU System Clock Postscaler
  1663                           ;	CPUDIV = OSC3_PLL3, CPU system clock divide by 3
  1664                           ;	Code Protect
  1665                           ;	CP0 = 0x1, unprogrammed default
  1666  FFF9                     	org	65529
  1667  FFF9  F5                 	db	245
  1668                           
  1669                           ;Config register CONFIG2L @ 0xFFFA
  1670                           ;	Oscillator
  1671                           ;	OSC = INTOSCPLL, INTOSCPLL
  1672                           ;	T1OSCEN Enforcement
  1673                           ;	T1DIG = 0x1, unprogrammed default
  1674                           ;	Low-Power Timer1 Oscillator
  1675                           ;	LPT1OSC = 0x1, unprogrammed default
  1676                           ;	Fail-Safe Clock Monitor
  1677                           ;	FCMEN = 0x1, unprogrammed default
  1678                           ;	Internal External Oscillator Switch Over Mode
  1679                           ;	IESO = 0x1, unprogrammed default
  1680  FFFA                     	org	65530
  1681  FFFA  DA                 	db	218
  1682                           
  1683                           ;Config register CONFIG2H @ 0xFFFB
  1684                           ;	Watchdog Postscaler
  1685                           ;	WDTPS = 2048, 1:2048
  1686  FFFB                     	org	65531
  1687  FFFB  FB                 	db	251
  1688                           
  1689                           ;Config register CONFIG3L @ 0xFFFC
  1690                           ;	unspecified, using default values
  1691                           ;	DSWDT Clock Select
  1692                           ;	DSWDTOSC = 0x1, unprogrammed default
  1693                           ;	RTCC Clock Select
  1694                           ;	RTCOSC = 0x1, unprogrammed default
  1695                           ;	Deep Sleep BOR
  1696                           ;	DSBOREN = 0x1, unprogrammed default
  1697                           ;	Deep Sleep Watchdog Timer
  1698                           ;	DSWDTEN = 0x1, unprogrammed default
  1699                           ;	Deep Sleep Watchdog Postscaler
  1700                           ;	DSWDTPS = 0xF, unprogrammed default
  1701  FFFC                     	org	65532
  1702  FFFC  FF                 	db	255
  1703                           
  1704                           ;Config register CONFIG3H @ 0xFFFD
  1705                           ;	unspecified, using default values
  1706                           ;	IOLOCK One-Way Set Enable bit
  1707                           ;	IOL1WAY = 0x1, unprogrammed default
  1708                           ;	MSSP address masking
  1709                           ;	MSSP7B_EN = 0x1, unprogrammed default
  1710  FFFD                     	org	65533
  1711  FFFD  F9                 	db	249
  1712                           
  1713                           ;Config register CONFIG4L @ 0xFFFE
  1714                           ;	unspecified, using default values
  1715                           ;	Write/Erase Protect Page Start/End Location
  1716                           ;	WPFP = 0x3F, unprogrammed default
  1717                           ;	Write/Erase Protect Region Select (valid when WPDIS = 0)
  1718                           ;	WPEND = 0x1, unprogrammed default
  1719                           ;	Write/Erase Protect Configuration Region
  1720                           ;	WPCFG = 0x1, unprogrammed default
  1721  FFFE                     	org	65534
  1722  FFFE  FF                 	db	255
  1723                           
  1724                           ;Config register CONFIG4H @ 0xFFFF
  1725                           ;	unspecified, using default values
  1726                           ;	Write Protect Disable bit
  1727                           ;	WPDIS = 0x1, unprogrammed default
  1728  FFFF                     	org	65535
  1729  FFFF  F1                 	db	241
  1730                           tosu	equ	0xFFF
  1731                           tosh	equ	0xFFE
  1732                           tosl	equ	0xFFD
  1733                           stkptr	equ	0xFFC
  1734                           pclatu	equ	0xFFB
  1735                           pclath	equ	0xFFA
  1736                           pcl	equ	0xFF9
  1737                           tblptru	equ	0xFF8
  1738                           tblptrh	equ	0xFF7
  1739                           tblptrl	equ	0xFF6
  1740                           tablat	equ	0xFF5
  1741                           prodh	equ	0xFF4
  1742                           prodl	equ	0xFF3
  1743                           indf0	equ	0xFEF
  1744                           postinc0	equ	0xFEE
  1745                           postdec0	equ	0xFED
  1746                           preinc0	equ	0xFEC
  1747                           plusw0	equ	0xFEB
  1748                           fsr0h	equ	0xFEA
  1749                           fsr0l	equ	0xFE9
  1750                           wreg	equ	0xFE8
  1751                           indf1	equ	0xFE7
  1752                           postinc1	equ	0xFE6
  1753                           postdec1	equ	0xFE5
  1754                           preinc1	equ	0xFE4
  1755                           plusw1	equ	0xFE3
  1756                           fsr1h	equ	0xFE2
  1757                           fsr1l	equ	0xFE1
  1758                           bsr	equ	0xFE0
  1759                           indf2	equ	0xFDF
  1760                           postinc2	equ	0xFDE
  1761                           postdec2	equ	0xFDD
  1762                           preinc2	equ	0xFDC
  1763                           plusw2	equ	0xFDB
  1764                           fsr2h	equ	0xFDA
  1765                           fsr2l	equ	0xFD9
  1766                           status	equ	0xFD8

Data Sizes:
    Strings     0
    Constant    0
    Data        0
    BSS         0
    Persistent  10
    Stack       0

Auto Spaces:
    Space          Size  Autos    Used
    COMRAM           94     11      21
    BANK0           160      0       0
    BANK1           256      0       0
    BANK2           256      0       0
    BANK3           256      0       0
    BANK4           256      0       0
    BANK5           256      0       0
    BANK6           256      0       0
    BANK7           256      0       0
    BANK8           256      0       0
    BANK9           256      0       0
    BANK10          256      0       0
    BANK11          256      0       0
    BANK12          256      0       0
    BANK13          256      0       0
    BANK14          192      0       0

Pointer List with Targets:

    INT2_SetInterruptHandler@InterruptHandler	PTR FTN()void  size(2) Largest target is 1
		 -> INT2_DefaultInterruptHandler(), 

    INT2_InterruptHandler	PTR FTN()void  size(2) Largest target is 1
		 -> INT2_DefaultInterruptHandler(), Absolute function(), 

    INT1_SetInterruptHandler@InterruptHandler	PTR FTN()void  size(2) Largest target is 1
		 -> INT1_DefaultInterruptHandler(), 

    INT1_InterruptHandler	PTR FTN()void  size(2) Largest target is 1
		 -> INT1_DefaultInterruptHandler(), Absolute function(), 

    INT0_SetInterruptHandler@InterruptHandler	PTR FTN()void  size(2) Largest target is 1
		 -> INT0_DefaultInterruptHandler(), 

    INT0_InterruptHandler	PTR FTN()void  size(2) Largest target is 1
		 -> INT0_DefaultInterruptHandler(), Absolute function(), 

    TMR0_SetInterruptHandler@InterruptHandler	PTR FTN()void  size(2) Largest target is 1
		 -> TMR0_DefaultInterruptHandler(), 

    TMR0_InterruptHandler	PTR FTN()void  size(2) Largest target is 1
		 -> Absolute function(), TMR0_DefaultInterruptHandler(), 


Critical Paths under _main in COMRAM

    _SYSTEM_Initialize->_TMR0_Initialize
    _TMR0_Initialize->_TMR0_SetInterruptHandler
    _EXT_INT_Initialize->_INT0_SetInterruptHandler
    _EXT_INT_Initialize->_INT1_SetInterruptHandler
    _EXT_INT_Initialize->_INT2_SetInterruptHandler

Critical Paths under _INTERRUPT_InterruptManagerLow in COMRAM

    None.

Critical Paths under _INTERRUPT_InterruptManagerHigh in COMRAM

    None.

Critical Paths under _main in BANK0

    None.

Critical Paths under _INTERRUPT_InterruptManagerLow in BANK0

    None.

Critical Paths under _INTERRUPT_InterruptManagerHigh in BANK0

    None.

Critical Paths under _main in BANK1

    None.

Critical Paths under _INTERRUPT_InterruptManagerLow in BANK1

    None.

Critical Paths under _INTERRUPT_InterruptManagerHigh in BANK1

    None.

Critical Paths under _main in BANK2

    None.

Critical Paths under _INTERRUPT_InterruptManagerLow in BANK2

    None.

Critical Paths under _INTERRUPT_InterruptManagerHigh in BANK2

    None.

Critical Paths under _main in BANK3

    None.

Critical Paths under _INTERRUPT_InterruptManagerLow in BANK3

    None.

Critical Paths under _INTERRUPT_InterruptManagerHigh in BANK3

    None.

Critical Paths under _main in BANK4

    None.

Critical Paths under _INTERRUPT_InterruptManagerLow in BANK4

    None.

Critical Paths under _INTERRUPT_InterruptManagerHigh in BANK4

    None.

Critical Paths under _main in BANK5

    None.

Critical Paths under _INTERRUPT_InterruptManagerLow in BANK5

    None.

Critical Paths under _INTERRUPT_InterruptManagerHigh in BANK5

    None.

Critical Paths under _main in BANK6

    None.

Critical Paths under _INTERRUPT_InterruptManagerLow in BANK6

    None.

Critical Paths under _INTERRUPT_InterruptManagerHigh in BANK6

    None.

Critical Paths under _main in BANK7

    None.

Critical Paths under _INTERRUPT_InterruptManagerLow in BANK7

    None.

Critical Paths under _INTERRUPT_InterruptManagerHigh in BANK7

    None.

Critical Paths under _main in BANK8

    None.

Critical Paths under _INTERRUPT_InterruptManagerLow in BANK8

    None.

Critical Paths under _INTERRUPT_InterruptManagerHigh in BANK8

    None.

Critical Paths under _main in BANK9

    None.

Critical Paths under _INTERRUPT_InterruptManagerLow in BANK9

    None.

Critical Paths under _INTERRUPT_InterruptManagerHigh in BANK9

    None.

Critical Paths under _main in BANK10

    None.

Critical Paths under _INTERRUPT_InterruptManagerLow in BANK10

    None.

Critical Paths under _INTERRUPT_InterruptManagerHigh in BANK10

    None.

Critical Paths under _main in BANK11

    None.

Critical Paths under _INTERRUPT_InterruptManagerLow in BANK11

    None.

Critical Paths under _INTERRUPT_InterruptManagerHigh in BANK11

    None.

Critical Paths under _main in BANK12

    None.

Critical Paths under _INTERRUPT_InterruptManagerLow in BANK12

    None.

Critical Paths under _INTERRUPT_InterruptManagerHigh in BANK12

    None.

Critical Paths under _main in BANK13

    None.

Critical Paths under _INTERRUPT_InterruptManagerLow in BANK13

    None.

Critical Paths under _INTERRUPT_InterruptManagerHigh in BANK13

    None.

Critical Paths under _main in BANK14

    None.

Critical Paths under _INTERRUPT_InterruptManagerLow in BANK14

    None.

Critical Paths under _INTERRUPT_InterruptManagerHigh in BANK14

    None.

Call Graph Tables:

 ---------------------------------------------------------------------------------
 (Depth) Function   	        Calls       Base Space   Used Autos Params    Refs
 ---------------------------------------------------------------------------------
 (0) _main                                                 0     0      0     392
                  _SYSTEM_Initialize
 ---------------------------------------------------------------------------------
 (1) _SYSTEM_Initialize                                    0     0      0     392
                 _EXT_INT_Initialize
               _INTERRUPT_Initialize
              _OSCILLATOR_Initialize
             _PIN_MANAGER_Initialize
                    _TMR0_Initialize
 ---------------------------------------------------------------------------------
 (2) _TMR0_Initialize                                      2     2      0      98
                                              9 COMRAM     2     2      0
           _TMR0_SetInterruptHandler
 ---------------------------------------------------------------------------------
 (3) _TMR0_SetInterruptHandler                             2     0      2      98
                                              7 COMRAM     2     0      2
 ---------------------------------------------------------------------------------
 (2) _PIN_MANAGER_Initialize                               0     0      0       0
 ---------------------------------------------------------------------------------
 (2) _OSCILLATOR_Initialize                                0     0      0       0
 ---------------------------------------------------------------------------------
 (2) _INTERRUPT_Initialize                                 0     0      0       0
 ---------------------------------------------------------------------------------
 (2) _EXT_INT_Initialize                                   0     0      0     294
           _INT0_SetInterruptHandler
           _INT1_SetInterruptHandler
           _INT2_SetInterruptHandler
 ---------------------------------------------------------------------------------
 (3) _INT2_SetInterruptHandler                             2     0      2      98
                                              7 COMRAM     2     0      2
 ---------------------------------------------------------------------------------
 (3) _INT1_SetInterruptHandler                             2     0      2      98
                                              7 COMRAM     2     0      2
 ---------------------------------------------------------------------------------
 (3) _INT0_SetInterruptHandler                             2     0      2      98
                                              7 COMRAM     2     0      2
 ---------------------------------------------------------------------------------
 Estimated maximum stack depth 3
 ---------------------------------------------------------------------------------
 (Depth) Function   	        Calls       Base Space   Used Autos Params    Refs
 ---------------------------------------------------------------------------------
 (4) _INTERRUPT_InterruptManagerLow                        5     5      0       0
                                              2 COMRAM     5     5      0
                           _INT1_ISR
                           _INT2_ISR
 ---------------------------------------------------------------------------------
 (5) _INT2_ISR                                             0     0      0       0
                      _INT2_CallBack
 ---------------------------------------------------------------------------------
 (6) _INT2_CallBack                                        0     0      0       0
                   Absolute function *
       _INT2_DefaultInterruptHandler *
 ---------------------------------------------------------------------------------
 (7) _INT2_DefaultInterruptHandler                         0     0      0       0
 ---------------------------------------------------------------------------------
 (5) _INT1_ISR                                             0     0      0       0
                      _INT1_CallBack
 ---------------------------------------------------------------------------------
 (6) _INT1_CallBack                                        0     0      0       0
                   Absolute function *
       _INT1_DefaultInterruptHandler *
 ---------------------------------------------------------------------------------
 (7) _INT1_DefaultInterruptHandler                         0     0      0       0
 ---------------------------------------------------------------------------------
 (11) Absolute function(Fake)                              0     0      0       0
 ---------------------------------------------------------------------------------
 Estimated maximum stack depth 11
 ---------------------------------------------------------------------------------
 (Depth) Function   	        Calls       Base Space   Used Autos Params    Refs
 ---------------------------------------------------------------------------------
 (8) _INTERRUPT_InterruptManagerHigh                       2     2      0       0
                                              0 COMRAM     2     2      0
                           _INT0_ISR
                           _TMR0_ISR
 ---------------------------------------------------------------------------------
 (9) _TMR0_ISR                                             0     0      0       0
                      _TMR0_CallBack
 ---------------------------------------------------------------------------------
 (10) _TMR0_CallBack                                       0     0      0       0
                   Absolute function *
       _TMR0_DefaultInterruptHandler *
 ---------------------------------------------------------------------------------
 (11) _TMR0_DefaultInterruptHandler                        0     0      0       0
 ---------------------------------------------------------------------------------
 (9) _INT0_ISR                                             0     0      0       0
                      _INT0_CallBack
 ---------------------------------------------------------------------------------
 (10) _INT0_CallBack                                       0     0      0       0
                   Absolute function *
       _INT0_DefaultInterruptHandler *
 ---------------------------------------------------------------------------------
 (11) _INT0_DefaultInterruptHandler                        0     0      0       0
 ---------------------------------------------------------------------------------
 (11) Absolute function(Fake)                              0     0      0       0
 ---------------------------------------------------------------------------------
 Estimated maximum stack depth 11
 ---------------------------------------------------------------------------------

 Call Graph Graphs:

 _main (ROOT)
   _SYSTEM_Initialize
     _EXT_INT_Initialize
       _INT0_SetInterruptHandler
       _INT1_SetInterruptHandler
       _INT2_SetInterruptHandler
     _INTERRUPT_Initialize
     _OSCILLATOR_Initialize
     _PIN_MANAGER_Initialize
     _TMR0_Initialize
       _TMR0_SetInterruptHandler

 _INTERRUPT_InterruptManagerLow (ROOT)
   _INT1_ISR
     _INT1_CallBack
       Absolute function(Fake) *
       _INT1_DefaultInterruptHandler *
   _INT2_ISR
     _INT2_CallBack
       Absolute function(Fake) *
       _INT2_DefaultInterruptHandler *

 _INTERRUPT_InterruptManagerHigh (ROOT)
   _INT0_ISR
     _INT0_CallBack
       Absolute function(Fake) *
       _INT0_DefaultInterruptHandler *
   _TMR0_ISR
     _TMR0_CallBack
       Absolute function(Fake) *
       _TMR0_DefaultInterruptHandler *

 Address spaces:
Name               Size   Autos  Total    Cost      Usage
BITCOMRAM           5E      0       0       0        0.0%
NULL                 0      0       0       0        0.0%
CODE                 0      0       0       0        0.0%
COMRAM              5E      B      15       1       22.3%
STACK                0      0       0       2        0.0%
DATA                 0      0      15       3        0.0%
BITBANK0            A0      0       0       4        0.0%
BANK0               A0      0       0       5        0.0%
BITBANK1           100      0       0       6        0.0%
BANK1              100      0       0       7        0.0%
BITBANK2           100      0       0       8        0.0%
BANK2              100      0       0       9        0.0%
BITBANK3           100      0       0      10        0.0%
BANK3              100      0       0      11        0.0%
BITBANK4           100      0       0      12        0.0%
BANK4              100      0       0      13        0.0%
BITBANK5           100      0       0      14        0.0%
BANK5              100      0       0      15        0.0%
BITBANK6           100      0       0      16        0.0%
BANK6              100      0       0      17        0.0%
BITBANK7           100      0       0      18        0.0%
BANK7              100      0       0      19        0.0%
BITBANK8           100      0       0      20        0.0%
BANK8              100      0       0      21        0.0%
BITBANK9           100      0       0      22        0.0%
BANK9              100      0       0      23        0.0%
BITBANK10          100      0       0      24        0.0%
BANK10             100      0       0      25        0.0%
BITBANK11          100      0       0      26        0.0%
BANK11             100      0       0      27        0.0%
BITBANK12          100      0       0      28        0.0%
BANK12             100      0       0      29        0.0%
BITBANK13          100      0       0      30        0.0%
BANK13             100      0       0      31        0.0%
BITBANK14           C0      0       0      32        0.0%
BANK14              C0      0       0      33        0.0%
BITBIGSFRhh          D      0       0      34        0.0%
BITBIGSFRhlhh       18      0       0      35        0.0%
BITBIGSFRhll         1      0       0      36        0.0%
BITBIGSFRlhhh        2      0       0      37        0.0%
BITBIGSFRlhhl        F      0       0      38        0.0%
BITBIGSFRlhl        24      0       0      39        0.0%
BITBIGSFRllhh        4      0       0      40        0.0%
BITBIGSFRllhll       4      0       0      41        0.0%
BITBIGSFRllllh      3F      0       0      42        0.0%
BITBIGSFRlllllh      5      0       0      43        0.0%
BITBIGSFRllllll     57      0       0      44        0.0%
BITBIGSFRllllll     27      0       0      45        0.0%
ABS                  0      0      15      46        0.0%
BIGRAM             EBF      0       0      47        0.0%
BIGSFR               0      0       0     200        0.0%
BITSFR_2             0      0       0     200        0.0%
SFR_2                0      0       0     200        0.0%
BITSFR_1             0      0       0     200        0.0%
SFR_1                0      0       0     200        0.0%
BITSFR               0      0       0     200        0.0%
SFR                  0      0       0     200        0.0%


Microchip Technology PIC18 Macro Assembler V2.36 build 20220127204148 
Symbol Table                                                                                   Sat Oct 22 14:15:18 2022

                                      l22 02A6                                        l19 0266  
                                      l63 012A                                        l85 02B0  
                                      bsr 000FE0                           _timer0ReloadVal 0012  
                                     l214 0162                                       l126 0198  
                                     l151 029C                                       l223 028C  
                                     l208 02BA                                       l224 028C  
                                     l182 02CE                                       l195 02C4  
                                     l910 02A8                                       l920 0112  
                                     l912 00E6                                       l922 029E  
                                     l914 0102                                       l924 02A2  
                                     l916 0104                                       l926 02A4  
                                     l918 0106                ??_INT0_SetInterruptHandler 000A  
                                     tosl 000FFD                                       wreg 000FE8  
                           _INT0_CallBack 0224                             _INT1_CallBack 01C8  
                                    l1100 0286                                      l1102 028A  
                                    l1050 0294                                      l1052 02C6  
                                    l1060 0130                                      l1054 02BC  
                                    l1070 0150                                      l1062 013C  
                                    l1056 02B2                                      l1072 0152  
                                    l1064 013E                                      l1080 016E  
                                    l1074 0160                                      l1066 0140  
                                    l1058 012C                                      l1082 0184  
                                    l1090 0252                                      l1068 014E  
                                    l1084 0186                                      l1076 0164  
                                    l1092 0256                                      l1086 0188  
                                    l1078 0166                                      l1094 025A  
                                    l1088 0194                                      l1096 025E  
                                    l1098 0262                                      _LATA 000F89  
                                    _LATB 000F8A                                      _LATC 000F8B  
                                    _LATD 000F8C                                      _LATE 000F8D  
                                    i2l90 00BA                                      i1l99 0052  
                                    i2l94 00DA                             _INT2_CallBack 019A  
                                    _main 0286                                      btemp 0016  
               ?_INT2_SetInterruptHandler 0008                                      start 008A  
                            ___param_bank 000000                   __end_of_TMR0_Initialize 019A  
                        __end_of_INT0_ISR 02E8                          __end_of_INT1_ISR 02E0  
                        __end_of_INT2_ISR 02D8            ??_TMR0_DefaultInterruptHandler 0001  
           __end_of_OSCILLATOR_Initialize 02A8                                     ?_main 0001  
                                   _T0CON 000FD5                                     i1l103 0072  
                                   i1l201 02D6                                     i1l211 02E8  
                                   i1l205 01C6                                     i1l192 01F4  
                                   i1l188 02DE                                     i1l198 02EA  
                                   i2l144 0276                                     i2l154 02EC  
                                   i2l148 0222                                     i2l175 02E6  
                                   i2l185 02EE                                     i2l179 0250  
                                   i1l970 01DA                                     i1l972 019A  
                                   i1l974 01AC                                     i1l968 01C8  
                                   i1l998 02D8                                     i2l960 01F6  
                                   i2l962 0208                                     i2l964 0224  
                                   i2l966 0236                                     i2l990 026E  
                                   i2l992 0272                                     i2l994 02E0  
                                   i2l986 0268                                     i2l996 02E2  
                                   i2l988 026A                                     _TMR0H 000FD7  
                                   _TMR0L 000FD6                                     _TRISA 000F92  
                                   _TRISB 000F93                            ?_INT0_CallBack 0001  
                                   _TRISC 000F94                                     _TRISD 000F95  
                                   _TRISE 000F96                 ?_TMR0_SetInterruptHandler 0008  
                        __end_of_TMR0_ISR 0278                            ?_INT1_CallBack 0001  
          ??_INT1_DefaultInterruptHandler 0003                            ?_INT2_CallBack 0001  
                _INT1_SetInterruptHandler 02BC                                     pclath 000FFA  
                                   pclatu 000FFB                                     ttemp5 0017  
                                   ttemp6 001A                                     ttemp7 001E  
                                   status 000FD8                                     wtemp8 0017  
          ?_INTERRUPT_InterruptManagerLow 0001                           __initialization 0278  
                            __end_of_main 0294                                    ??_main 000C  
                           __activetblptr 000002                                    _ANCON0 000F48  
                                  _ANCON1 000F49                                    i1l1000 02DA  
                                  i1l1002 02D0                                    i1l1004 02D2  
                                  i1l1020 003C                                    i1l1022 004A  
                                  i1l1024 0060                                    _ODCON1 000F42  
                                  i1l1026 006E                                    i1l1018 002E  
                                  _ODCON2 000F41                                    _ODCON3 000F40  
                                  i2l1010 00A4                                    i2l1012 00B2  
                                  i2l1014 00C8                                    i2l1016 00D6  
                                  i2l1008 0096                                    _OSCCON 000FD3  
                                  _RPINR1 000EE7                                    _RPINR2 000EE8  
                                  i1u5_20 01DA                                    i1u5_21 01D6  
                                  i2u1_40 0208                                    i2u1_41 0204  
                                  i1u6_28 01E0                                    i1u7_20 01AC  
                                  i1u6_29 01F4                                    i1u7_21 01A8  
                                  i2u3_40 0236                                    i2u2_48 020E  
                                  i2u3_41 0232                                    i2u2_49 0222  
                                  i1u8_28 01B2                                    i1u8_29 01C6  
                                  i2u4_48 023C                                    i2u4_49 0250  
                                  i2u9_40 00A4                                    i2u9_41 00A0  
                        ?_TMR0_Initialize 0001                                    isa$std 000001  
                         ??_INT0_CallBack 0001      __end_of_INT2_DefaultInterruptHandler 02EA  
            _INT2_DefaultInterruptHandler 02E8                           ??_INT1_CallBack 0003  
                                  tblptru 000FF8                           ??_INT2_CallBack 0003  
                   __end_of_TMR0_CallBack 0224  INT2_SetInterruptHandler@InterruptHandler 0008  
INT1_SetInterruptHandler@InterruptHandler 0008  INT0_SetInterruptHandler@InterruptHandler 0008  
TMR0_SetInterruptHandler@InterruptHandler 0008          ??_INTERRUPT_InterruptManagerHigh 0001  
         ?_INTERRUPT_InterruptManagerHigh 0001                         _SYSTEM_Initialize 0252  
                              __accesstop 0060                   __end_of__initialization 0278  
                               ?_INT0_ISR 0001                                 ?_INT1_ISR 0001  
                               ?_INT2_ISR 0001                        ?_SYSTEM_Initialize 0001  
                           ___rparam_used 000001                            __pcstackCOMRAM 0001  
                     ??_SYSTEM_Initialize 000C                                 ?_TMR0_ISR 0001  
        __end_of_INT2_SetInterruptHandler 02BC           fp__INT2_DefaultInterruptHandler 0000  
           ?_INT2_DefaultInterruptHandler 0001                 __end_of_SYSTEM_Initialize 0268  
                   _INT0_InterruptHandler 0010                                ??_INT0_ISR 0001  
                              ??_INT1_ISR 0003                                ??_INT2_ISR 0003  
                              __pnvCOMRAM 000C          __end_of_TMR0_SetInterruptHandler 029E  
                              ??_TMR0_ISR 0001                ??_INT1_SetInterruptHandler 000A  
                                 i1u13_20 003C                                   i1u13_21 0038  
                                 i1u14_20 004A                                   i1u14_21 0046  
                                 i1u15_20 0060                                   i1u15_21 005C  
                                 i1u16_20 006E                                   i1u16_21 006A  
                                 i2u10_40 00B2                                   i2u10_41 00AE  
                                 i2u11_40 00C8                                   i2u11_41 00C4  
                                 i2u12_40 00D6                                   i2u12_41 00D2  
               ?_INT0_SetInterruptHandler 0008                                   __Hparam 0000  
                                 __Lparam 0000                                   __pcinit 0278  
                                 __ramtop 0F00                                   __ptext0 0286  
                                 __ptext1 0252                                   __ptext2 0164  
                                 __ptext3 0294                                   __ptext4 00E6  
                                 __ptext5 029E                                   __ptext6 02A8  
                                 __ptext7 012C                                   __ptext8 02B2  
                                 __ptext9 02BC                                 _T0CONbits 000FD5  
                   _OSCILLATOR_Initialize 029E                  ??_PIN_MANAGER_Initialize 0008  
                          __pintcode_body 008E                      end_of_initialization 0278  
                _INT2_SetInterruptHandler 02B2            ??_INT2_DefaultInterruptHandler 0003  
                           __Lmediumconst 0000                                   int_func 008E  
                _TMR0_SetInterruptHandler 0294                     _INT1_InterruptHandler 000E  
            __end_of_INTERRUPT_Initialize 02B2      __end_of_INT0_DefaultInterruptHandler 02F0  
            _INT0_DefaultInterruptHandler 02EE                    ?_OSCILLATOR_Initialize 0001  
                   __end_of_INT0_CallBack 0252                       start_initialization 0278  
                   __end_of_INT1_CallBack 01F6                     __end_of_INT2_CallBack 01C8  
              __end_of_EXT_INT_Initialize 0164           fp__INT0_DefaultInterruptHandler 0000  
           ?_INT0_DefaultInterruptHandler 0001          __end_of_INT0_SetInterruptHandler 02D0  
                   _INT2_InterruptHandler 000C                     _TMR0_InterruptHandler 0014  
                  _PIN_MANAGER_Initialize 00E6                                 __pintcode 0008  
                             __pintcodelo 0018                ??_INT2_SetInterruptHandler 000A  
                           _TMR0_CallBack 01F6                      _INTERRUPT_Initialize 02A8  
                       ??_TMR0_Initialize 000A                                  _INT0_ISR 02E0  
                                _INT1_ISR 02D8                                  _INT2_ISR 02D0  
               ?_INT1_SetInterruptHandler 0008                ??_TMR0_SetInterruptHandler 000A  
                                _RCONbits 000FD0                                  _TMR0_ISR 0268  
          ??_INT0_DefaultInterruptHandler 0001                            ?_TMR0_CallBack 0001  
                             _INTCON2bits 000FF1                               _INTCON3bits 000FF0  
                   ?_INTERRUPT_Initialize 0001                  _INT0_SetInterruptHandler 02C6  
                                __Hrparam 0000                                  __Lrparam 0000  
                 ??_OSCILLATOR_Initialize 0008           ??_INTERRUPT_InterruptManagerLow 0003  
                                __ptext10 02C6                                  __ptext20 01F6  
                                __ptext12 02D0                                  __ptext21 02EC  
                                __ptext13 019A                                  __ptext22 02E0  
                                __ptext14 02E8                                  __ptext23 0224  
                                __ptext15 02D8                                  __ptext24 02EE  
                                __ptext16 01C8                                  __ptext25 0000  
                                __ptext17 02EA                                  __ptext19 0268  
    __end_of_TMR0_DefaultInterruptHandler 02EE              _TMR0_DefaultInterruptHandler 02EC  
                                isa$xinst 000000                                  int$flags 0016  
    __end_of_INT1_DefaultInterruptHandler 02EC              _INT1_DefaultInterruptHandler 02EA  
                             _OSCTUNEbits 000F9B                                _INTCONbits 000FF2  
                         ??_TMR0_CallBack 0001                    ??_INTERRUPT_Initialize 0008  
                      _EXT_INT_Initialize 012C                                  intlevel1 0000  
                                intlevel2 0000                   ?_PIN_MANAGER_Initialize 0001  
                     ?_EXT_INT_Initialize 0001           fp__TMR0_DefaultInterruptHandler 0000  
           ?_TMR0_DefaultInterruptHandler 0001    __end_of_INTERRUPT_InterruptManagerHigh 00E6  
          _INTERRUPT_InterruptManagerHigh 0008                      ??_EXT_INT_Initialize 000A  
         fp__INT1_DefaultInterruptHandler 0000             ?_INT1_DefaultInterruptHandler 0001  
                         _TMR0_Initialize 0164          __end_of_INT1_SetInterruptHandler 02C6  
                              _WDTCONbits 000FC0     __end_of_INTERRUPT_InterruptManagerLow 008A  
           _INTERRUPT_InterruptManagerLow 0018            __end_of_PIN_MANAGER_Initialize 012C  
