MPLINK 4.48, Linker
Linker Map File - Created Tue Oct 18 22:15:58 2022

                                 Section Info
                  Section       Type    Address   Location Size(Bytes)
                ---------  ---------  ---------  ---------  ---------
               _entry_scn       code   0x000000    program   0x000006
      .romdata_MRF24J40.o    romdata   0x000006    program   0x000002
               highVector       code   0x000008    program   0x000006
       .code__user_putc.o       code   0x00000e    program   0x000002
           .code___init.o       code   0x000010    program   0x000002
      .idata_TempDemo.o_i    romdata   0x000012    program   0x000005
  .idata_SelfTestMode.o_i    romdata   0x000017    program   0x000001
               lowhVector       code   0x000018    program   0x000006
          .idata_MiWi.o_i    romdata   0x00001e    program   0x00000d
      .idata_MRF24J40.o_i    romdata   0x00002b    program   0x000003
              securityKey    romdata   0x00002e    program   0x000010
                   .cinit    romdata   0x00003e    program   0x00003e
             .code_MiWi.o       code   0x00007c    program   0x0044aa
         .code_MRF24J40.o       code   0x004526    program   0x001b76
             .code_Demo.o       code   0x00609c    program   0x000ddc
         .code_TempDemo.o       code   0x006e78    program   0x000a2c
                     PROG       code   0x0078a4    program   0x00096e
         .code_vfprintf.o       code   0x008212    program   0x000816
        .code_RangeDemo.o       code   0x008a28    program   0x00049a
             .stringtable    romdata   0x008ec2    program   0x0003d9
       .idata_Console.o_i    romdata   0x00929b    program   0x000000
       .romdata_MiWiPRO.o    romdata   0x00929b    program   0x000000
       .idata_MiWiPRO.o_i    romdata   0x00929b    program   0x000000
    .romdata_SymbolTime.o    romdata   0x00929b    program   0x000000
    .idata_SymbolTime.o_i    romdata   0x00929b    program   0x000000
           .romdata_NVM.o    romdata   0x00929b    program   0x000000
           .idata_NVM.o_i    romdata   0x00929b    program   0x000000
           .romdata_P2P.o    romdata   0x00929b    program   0x000000
           .idata_P2P.o_i    romdata   0x00929b    program   0x000000
    .idata__user_putc.o_i    romdata   0x00929b    program   0x000000
    .romdata__user_putc.o    romdata   0x00929b    program   0x000000
       .romdata_Console.o    romdata   0x00929b    program   0x000000
          .romdata_putc.o    romdata   0x00929b    program   0x000000
          .idata_putc.o_i    romdata   0x00929b    program   0x000000
      .idata_vfprintf.o_i    romdata   0x00929b    program   0x000000
      .idata_security.o_i    romdata   0x00929b    program   0x000000
      .romdata_security.o    romdata   0x00929b    program   0x000000
       .idata_MRF89XA.o_i    romdata   0x00929b    program   0x000000
       .romdata_MRF89XA.o    romdata   0x00929b    program   0x000000
        .idata___init.o_i    romdata   0x00929b    program   0x000000
        .romdata___init.o    romdata   0x00929b    program   0x000000
       .idata_sprintf.o_i    romdata   0x00929b    program   0x000000
       .romdata_sprintf.o    romdata   0x00929b    program   0x000000
    .romdata_LCD_ST7032.o    romdata   0x00929b    program   0x000000
    .idata_MAC_EEProm.o_i    romdata   0x00929b    program   0x000000
    .romdata_MAC_EEProm.o    romdata   0x00929b    program   0x000000
    .idata_LCD_ST7032.o_i    romdata   0x00929b    program   0x000000
  .romdata_SelfTestMode.o    romdata   0x00929b    program   0x000000
.idata_SST_SerialFlash.o_i    romdata   0x00929b    program   0x000000
.romdata_BSP_MiWiDemoBd.o    romdata   0x00929b    program   0x000000
.romdata_SST_SerialFlash.o    romdata   0x00929b    program   0x000000
.idata_BSP_MiWiDemoBd.o_i    romdata   0x00929b    program   0x000000
     .idata_RangeDemo.o_i    romdata   0x00929b    program   0x000000
     .idata_TimeDelay.o_i    romdata   0x00929b    program   0x000000
     .romdata_TimeDelay.o    romdata   0x00929b    program   0x000000
      .romdata_TempDemo.o    romdata   0x00929b    program   0x000000
          .romdata_Demo.o    romdata   0x00929b    program   0x000000
          .idata_MSPI.o_i    romdata   0x00929b    program   0x000000
          .romdata_MSPI.o    romdata   0x00929b    program   0x000000
       .romdata_c018i_e.o    romdata   0x00929b    program   0x000000
       .idata_c018i_e.o_i    romdata   0x00929b    program   0x000000
          .code_MRF89XA.o       code   0x00929c    program   0x000000
         .code_security.o       code   0x00929c    program   0x000000
          .code_c018i_e.o       code   0x00929c    program   0x000000
              .code_P2P.o       code   0x00929c    program   0x000000
          .code_Console.o       code   0x00929c    program   0x000000
     .code_SelfTestMode.o       code   0x00929c    program   0x0002de
          .code_MiWiPRO.o       code   0x00929c    program   0x000000
              .code_NVM.o       code   0x00957a    program   0x00029e
   .code_BSP_MiWiDemoBd.o       code   0x009818    program   0x00020a
       .code_LCD_ST7032.o       code   0x009a22    program   0x0001fa
        .code_TimeDelay.o       code   0x009c1c    program   0x00017c
  .code_SST_SerialFlash.o       code   0x009d98    program   0x000174
       .code_MAC_EEProm.o       code   0x009f0c    program   0x000104
     .romdata_RangeDemo.o    romdata   0x00a010    program   0x000100
               _cinit_scn       code   0x00a110    program   0x00009e
                   STRING       code   0x00a1ae    program   0x00009a
       .code_SymbolTime.o       code   0x00a248    program   0x000086
          .code_sprintf.o       code   0x00a2ce    program   0x000072
             .code_putc.o       code   0x00a340    program   0x000066
             .code_MSPI.o       code   0x00a3a6    program   0x000066
          .romdata_MiWi.o    romdata   0x00a40c    program   0x00003c
                    CTYPE       code   0x00a448    program   0x000024
                    .code       code   0x00a46c    program   0x000020
                    STDIO       code   0x00a48c    program   0x00001c
             _startup_scn       code   0x00a4a8    program   0x00001a
      .romdata_vfprintf.o    romdata   0x00a4c2    program   0x000011
          .idata_Demo.o_i    romdata   0x00a4d3    program   0x000004
.config_fff8_BSP_MiWiDemoBd.o    romdata   0x00fff8    program   0x000001
.config_fff9_BSP_MiWiDemoBd.o    romdata   0x00fff9    program   0x000001
.config_fffa_BSP_MiWiDemoBd.o    romdata   0x00fffa    program   0x000001
.config_fffb_BSP_MiWiDemoBd.o    romdata   0x00fffb    program   0x000001
               TRX_BUFFER      udata   0x000000       data   0x00005b
    .udata_SelfTestMode.o      udata   0x00005b       data   0x000005
            BIGvariables1      udata   0x000060       data   0x00008c
         .udata_c018i_e.o      udata   0x0000ec       data   0x00000a
  .udata_BSP_MiWiDemoBd.o      udata   0x0000f6       data   0x00000a
            .udata_MiWi.o      udata   0x000100       data   0x0000c3
      .udata_LCD_ST7032.o      udata   0x0001c3       data   0x000021
        .udata_MRF24J40.o      udata   0x0001e4       data   0x00001a
      .udata_SymbolTime.o      udata   0x0001fe       data   0x000002
        .udata_TempDemo.o      udata   0x000200       data   0x00001e
             .udata_NVM.o      udata   0x00021e       data   0x000016
                 .tmpdata      udata   0x000234       data   0x000008
        .idata_TempDemo.o      idata   0x00023c       data   0x000005
                MATH_DATA      udata   0x000241       data   0x000004
              HighISR_tmp      udata   0x000245       data   0x000004
            .idata_Demo.o      idata   0x000249       data   0x000004
        .idata_MRF24J40.o      idata   0x00024d       data   0x000003
         .idata_Console.o      idata   0x000250       data   0x000000
         .udata_Console.o      udata   0x000250       data   0x000000
         .idata_MiWiPRO.o      idata   0x000250       data   0x000000
        .udata_security.o      udata   0x000250       data   0x000000
        .idata_security.o      idata   0x000250       data   0x000000
         .udata_MRF89XA.o      udata   0x000250       data   0x000000
         .idata_MRF89XA.o      idata   0x000250       data   0x000000
          .udata___init.o      udata   0x000250       data   0x000000
          .idata___init.o      idata   0x000250       data   0x000000
         .udata_sprintf.o      udata   0x000250       data   0x000000
         .idata_sprintf.o      idata   0x000250       data   0x000000
        .udata_vfprintf.o      udata   0x000250       data   0x000000
        .idata_vfprintf.o      idata   0x000250       data   0x000000
            .udata_putc.o      udata   0x000250       data   0x000000
            .idata_putc.o      idata   0x000250       data   0x000000
      .udata__user_putc.o      udata   0x000250       data   0x000000
      .idata__user_putc.o      idata   0x000250       data   0x000000
 .idata_SST_SerialFlash.o      idata   0x000250       data   0x000000
 .udata_SST_SerialFlash.o      udata   0x000250       data   0x000000
      .idata_MAC_EEProm.o      idata   0x000250       data   0x000000
      .udata_MAC_EEProm.o      udata   0x000250       data   0x000000
      .idata_LCD_ST7032.o      idata   0x000250       data   0x000000
  .idata_BSP_MiWiDemoBd.o      idata   0x000250       data   0x000000
       .idata_RangeDemo.o      idata   0x000250       data   0x000000
       .udata_RangeDemo.o      udata   0x000250       data   0x000000
            .udata_Demo.o      udata   0x000250       data   0x000000
       .udata_TimeDelay.o      udata   0x000250       data   0x000000
       .idata_TimeDelay.o      idata   0x000250       data   0x000000
            .udata_MSPI.o      udata   0x000250       data   0x000000
            .idata_MSPI.o      idata   0x000250       data   0x000000
         .idata_c018i_e.o      idata   0x000250       data   0x000000
             .udata_P2P.o      udata   0x000250       data   0x000000
             .idata_P2P.o      idata   0x000250       data   0x000000
             .idata_NVM.o      idata   0x000250       data   0x000000
      .idata_SymbolTime.o      idata   0x000250       data   0x000000
         .udata_MiWiPRO.o      udata   0x000250       data   0x000000
                   .stack      udata   0x000d00       data   0x000100
              MAC_RX_BUFF      udata   0x000e00       data   0x0000b2
            .idata_MiWi.o      idata   0x000eb2       data   0x00000d
    .idata_SelfTestMode.o      idata   0x000ebf       data   0x000001
              SFR_BANKED0      udata   0x000ec6       data   0x00000e
              SFR_BANKED1      udata   0x000ed7       data   0x000008
              SFR_BANKED2      udata   0x000ee7       data   0x000004
              SFR_BANKED3      udata   0x000eec       data   0x000003
              SFR_BANKED4      udata   0x000ef2       data   0x000002
              SFR_BANKED5      udata   0x000ef6       data   0x000002
              SFR_BANKED6      udata   0x000efb       data   0x000005
              SFR_BANKED7      udata   0x000f26       data   0x000014
              SFR_BANKED8      udata   0x000f3c       data   0x000007
              SFR_BANKED9      udata   0x000f48       data   0x000008
             SFR_BANKED10      udata   0x000f52       data   0x00000e
            SFR_UNBANKED0      udata   0x000f60       data   0x0000a0



                              Program Memory Usage 
                               Start         End      
                           ---------   ---------      
                            0x000000    0x00929a      
                            0x00929c    0x00a4d6      
                            0x00fff8    0x00fffb      
            42202 out of 65538 program addresses used, program memory utilization is 64%



                              Symbols - Sorted by Name
                     Name    Address   Location    Storage File                     
                ---------  ---------  ---------  --------- ---------                
    AddNodeToNetworkTable   0x002a4a    program     extern D:\microchip_solutions_v2013-06-15\Microchip\WirelessProtocols\MiWi\MiWi.c
                BoardInit   0x009818    program     extern D:\microchip_solutions_v2013-06-15\MiWi DE Demo\MiWi Demo Kit\BSP_MiWiDemoBd.c
          BroadcastJitter   0x000080    program     extern D:\microchip_solutions_v2013-06-15\Microchip\WirelessProtocols\MiWi\MiWi.c
            ButtonPressed   0x0098be    program     extern D:\microchip_solutions_v2013-06-15\MiWi DE Demo\MiWi Demo Kit\BSP_MiWiDemoBd.c
             CreateorJoin   0x0061d4    program     static                          
                   D1616S   0x007d16    program     static E:\c18v3.46\pic18-lt\cxx-framework\src\extended\math\div16s.asm
                D1616SNEG   0x007d24    program     static E:\c18v3.46\pic18-lt\cxx-framework\src\extended\math\div16s.asm
                 D1616SOK   0x007d20    program     static E:\c18v3.46\pic18-lt\cxx-framework\src\extended\math\div16s.asm
                D1616SPOS   0x007d34    program     static E:\c18v3.46\pic18-lt\cxx-framework\src\extended\math\div16s.asm
                  D1616SX   0x007d5a    program     static E:\c18v3.46\pic18-lt\cxx-framework\src\extended\math\div16s.asm
                  DA1616S   0x007d06    program     static E:\c18v3.46\pic18-lt\cxx-framework\src\extended\math\div16s.asm
                Delay10us   0x009c1c    program     extern D:\microchip_solutions_v2013-06-15\Microchip\Common\TimeDelay.c
                  DelayMs   0x009cdc    program     extern D:\microchip_solutions_v2013-06-15\Microchip\Common\TimeDelay.c
           DumpConnection   0x00227e    program     extern D:\microchip_solutions_v2013-06-15\Microchip\WirelessProtocols\MiWi\MiWi.c
               EEPROMRead   0x009f0c    program     extern D:\microchip_solutions_v2013-06-15\MiWi DE Demo\MiWi Demo Kit\MAC_EEProm.c
                  HighISR   0x005a98    program     extern D:\microchip_solutions_v2013-06-15\Microchip\Transceivers\MRF24J40\MRF24J40.c
               HighVector   0x000008    program     extern D:\microchip_solutions_v2013-06-15\Microchip\Transceivers\MRF24J40\MRF24J40.c
             InitMRF24J40   0x0046ba    program     extern D:\microchip_solutions_v2013-06-15\Microchip\Transceivers\MRF24J40\MRF24J40.c
          InitSymbolTimer   0x00a248    program     extern D:\microchip_solutions_v2013-06-15\Microchip\WirelessProtocols\SymbolTime.c
          LCDBacklightOFF   0x009b2c    program     extern D:\microchip_solutions_v2013-06-15\MiWi DE Demo\MiWi Demo Kit\LCD_ST7032.c
           LCDBacklightON   0x009b28    program     extern D:\microchip_solutions_v2013-06-15\MiWi DE Demo\MiWi Demo Kit\LCD_ST7032.c
               LCDDisplay   0x009bca    program     extern D:\microchip_solutions_v2013-06-15\MiWi DE Demo\MiWi Demo Kit\LCD_ST7032.c
                 LCDErase   0x009afa    program     extern D:\microchip_solutions_v2013-06-15\MiWi DE Demo\MiWi Demo Kit\LCD_ST7032.c
                  LCDInit   0x009a6a    program     extern D:\microchip_solutions_v2013-06-15\MiWi DE Demo\MiWi Demo Kit\LCD_ST7032.c
                LCDUpdate   0x009b30    program     extern D:\microchip_solutions_v2013-06-15\MiWi DE Demo\MiWi Demo Kit\LCD_ST7032.c
             LCD_WriteCmd   0x009a22    program     extern D:\microchip_solutions_v2013-06-15\MiWi DE Demo\MiWi Demo Kit\LCD_ST7032.c
            LCD_WriteData   0x009a46    program     extern D:\microchip_solutions_v2013-06-15\MiWi DE Demo\MiWi Demo Kit\LCD_ST7032.c
                LowVector   0x000018    program     extern D:\microchip_solutions_v2013-06-15\Microchip\Transceivers\MRF24J40\MRF24J40.c
                 MacroNop   0x00007c    program     extern D:\microchip_solutions_v2013-06-15\Microchip\WirelessProtocols\MiWi\MiWi.c
    MiApp_BroadcastPacket   0x00371a    program     extern D:\microchip_solutions_v2013-06-15\Microchip\WirelessProtocols\MiWi\MiWi.c
     MiApp_ConnectionMode   0x002fb6    program     extern D:\microchip_solutions_v2013-06-15\Microchip\WirelessProtocols\MiWi\MiWi.c
     MiApp_DiscardMessage   0x003710    program     extern D:\microchip_solutions_v2013-06-15\Microchip\WirelessProtocols\MiWi\MiWi.c
MiApp_EstablishConnection   0x00320a    program     extern D:\microchip_solutions_v2013-06-15\Microchip\WirelessProtocols\MiWi\MiWi.c
   MiApp_MessageAvailable   0x0036fe    program     extern D:\microchip_solutions_v2013-06-15\Microchip\WirelessProtocols\MiWi\MiWi.c
       MiApp_ProtocolInit   0x002bb4    program     extern D:\microchip_solutions_v2013-06-15\Microchip\WirelessProtocols\MiWi\MiWi.c
   MiApp_RemoveConnection   0x003f6c    program     extern D:\microchip_solutions_v2013-06-15\Microchip\WirelessProtocols\MiWi\MiWi.c
   MiApp_SearchConnection   0x00300a    program     extern D:\microchip_solutions_v2013-06-15\Microchip\WirelessProtocols\MiWi\MiWi.c
         MiApp_SetChannel   0x002f6c    program     extern D:\microchip_solutions_v2013-06-15\Microchip\WirelessProtocols\MiWi\MiWi.c
    MiApp_StartConnection   0x003e78    program     extern D:\microchip_solutions_v2013-06-15\Microchip\WirelessProtocols\MiWi\MiWi.c
     MiApp_UnicastAddress   0x0039f0    program     extern D:\microchip_solutions_v2013-06-15\Microchip\WirelessProtocols\MiWi\MiWi.c
  MiApp_UnicastConnection   0x0037b0    program     extern D:\microchip_solutions_v2013-06-15\Microchip\WirelessProtocols\MiWi\MiWi.c
      MiMAC_DiscardPacket   0x005284    program     extern D:\microchip_solutions_v2013-06-15\Microchip\Transceivers\MRF24J40\MRF24J40.c
               MiMAC_Init   0x0059b4    program     extern D:\microchip_solutions_v2013-06-15\Microchip\Transceivers\MRF24J40\MRF24J40.c
     MiMAC_ReceivedPacket   0x004874    program     extern D:\microchip_solutions_v2013-06-15\Microchip\Transceivers\MRF24J40\MRF24J40.c
         MiMAC_SendPacket   0x0052a6    program     extern D:\microchip_solutions_v2013-06-15\Microchip\Transceivers\MRF24J40\MRF24J40.c
      MiMAC_SetAltAddress   0x005932    program     extern D:\microchip_solutions_v2013-06-15\Microchip\Transceivers\MRF24J40\MRF24J40.c
         MiMAC_SetChannel   0x005840    program     extern D:\microchip_solutions_v2013-06-15\Microchip\Transceivers\MRF24J40\MRF24J40.c
           MiMAC_SetPower   0x00589c    program     extern D:\microchip_solutions_v2013-06-15\Microchip\Transceivers\MRF24J40\MRF24J40.c
                MiWiTasks   0x000156    program     extern D:\microchip_solutions_v2013-06-15\Microchip\WirelessProtocols\MiWi\MiWi.c
             MiWi_TickGet   0x00a25e    program     extern D:\microchip_solutions_v2013-06-15\Microchip\WirelessProtocols\SymbolTime.c
                  NVMInit   0x00972e    program     extern D:\microchip_solutions_v2013-06-15\Microchip\WirelessProtocols\NVM.c
                  NVMRead   0x00957a    program     extern D:\microchip_solutions_v2013-06-15\Microchip\WirelessProtocols\NVM.c
                 NVMWrite   0x0095f6    program     extern D:\microchip_solutions_v2013-06-15\Microchip\WirelessProtocols\NVM.c
                 NVMalloc   0x0096c6    program     extern D:\microchip_solutions_v2013-06-15\Microchip\WirelessProtocols\NVM.c
               OpenSocket   0x002468    program     extern D:\microchip_solutions_v2013-06-15\Microchip\WirelessProtocols\MiWi\MiWi.c
        PHYGetLongRAMAddr   0x00462e    program     extern D:\microchip_solutions_v2013-06-15\Microchip\Transceivers\MRF24J40\MRF24J40.c
       PHYGetShortRAMAddr   0x0045ec    program     extern D:\microchip_solutions_v2013-06-15\Microchip\Transceivers\MRF24J40\MRF24J40.c
        PHYSetLongRAMAddr   0x004526    program     extern D:\microchip_solutions_v2013-06-15\Microchip\Transceivers\MRF24J40\MRF24J40.c
       PHYSetShortRAMAddr   0x0045aa    program     extern D:\microchip_solutions_v2013-06-15\Microchip\Transceivers\MRF24J40\MRF24J40.c
             PrintTempLCD   0x0076bc    program     extern D:\microchip_solutions_v2013-06-15\MiWi DE Demo\MiWi Demo Kit\TempDemo.c
                  RESTORE   0x008160    program     static E:\c18v3.46\pic18-lt\cxx-framework\src\extended\math\div16u.asm
                  RESTORE   0x007d4c    program     static E:\c18v3.46\pic18-lt\cxx-framework\src\extended\math\div16s.asm
                  RESTORE   0x007cba    program     static E:\c18v3.46\pic18-lt\cxx-framework\src\extended\math\div08u.asm
                  RESTORE   0x008204    program     static E:\c18v3.46\pic18-lt\cxx-framework\src\extended\math\div32u.asm
              RETQUOTIENT   0x008158    program     static E:\c18v3.46\pic18-lt\cxx-framework\src\extended\math\div16u.asm
              RETQUOTIENT   0x007d44    program     static E:\c18v3.46\pic18-lt\cxx-framework\src\extended\math\div16s.asm
              RETQUOTIENT   0x0081f4    program     static E:\c18v3.46\pic18-lt\cxx-framework\src\extended\math\div32u.asm
          RSSIlookupTable   0x00a010    program     extern D:\microchip_solutions_v2013-06-15\MiWi DE Demo\MiWi Demo Kit\RangeDemo.c
                RangeDemo   0x008a28    program     extern D:\microchip_solutions_v2013-06-15\MiWi DE Demo\MiWi Demo Kit\RangeDemo.c
           ReadTempSensor   0x0073ca    program     extern D:\microchip_solutions_v2013-06-15\MiWi DE Demo\MiWi Demo Kit\TempDemo.c
         Read_MAC_Address   0x009f58    program     extern D:\microchip_solutions_v2013-06-15\MiWi DE Demo\MiWi Demo Kit\MAC_EEProm.c
          Read_VBGVoltage   0x007682    program     extern D:\microchip_solutions_v2013-06-15\MiWi DE Demo\MiWi Demo Kit\TempDemo.c
             RouteMessage   0x001cb4    program     extern D:\microchip_solutions_v2013-06-15\Microchip\WirelessProtocols\MiWi\MiWi.c
                  SETSIGN   0x007cf4    program     static E:\c18v3.46\pic18-lt\cxx-framework\src\extended\math\div16s.asm
                 SETUPSTK   0x007c78    program     static E:\c18v3.46\pic18-lt\cxx-framework\src\extended\math\div08u.asm
                 SETUPSTK   0x007cd4    program     static E:\c18v3.46\pic18-lt\cxx-framework\src\extended\math\div16s.asm
                 SETUPSTK   0x00816e    program     static E:\c18v3.46\pic18-lt\cxx-framework\src\extended\math\div32u.asm
                 SETUPSTK   0x0080f6    program     static E:\c18v3.46\pic18-lt\cxx-framework\src\extended\math\div16u.asm
                   SPIGet   0x00a3ce    program     extern D:\microchip_solutions_v2013-06-15\Microchip\WirelessProtocols\MSPI.c
                  SPIGet2   0x00a400    program     extern D:\microchip_solutions_v2013-06-15\Microchip\WirelessProtocols\MSPI.c
                   SPIPut   0x00a3a6    program     extern D:\microchip_solutions_v2013-06-15\Microchip\WirelessProtocols\MSPI.c
                  SPIPut2   0x00a3da    program     extern D:\microchip_solutions_v2013-06-15\Microchip\WirelessProtocols\MSPI.c
                 SSTGetID   0x009ec0    program     extern D:\microchip_solutions_v2013-06-15\MiWi DE Demo\MiWi Demo Kit\SST_SerialFlash.c
                  SSTRead   0x009d98    program     extern D:\microchip_solutions_v2013-06-15\MiWi DE Demo\MiWi Demo Kit\SST_SerialFlash.c
                 SSTWrite   0x009e1c    program     extern D:\microchip_solutions_v2013-06-15\MiWi DE Demo\MiWi Demo Kit\SST_SerialFlash.c
                 ScanTime   0x00a40c    program     extern D:\microchip_solutions_v2013-06-15\Microchip\WirelessProtocols\MiWi\MiWi.c
     SearchForLongAddress   0x002986    program     extern D:\microchip_solutions_v2013-06-15\Microchip\WirelessProtocols\MiWi\MiWi.c
    SearchForShortAddress   0x0027f6    program     extern D:\microchip_solutions_v2013-06-15\Microchip\WirelessProtocols\MiWi\MiWi.c
                 SelfTest   0x00929c    program     extern D:\microchip_solutions_v2013-06-15\MiWi DE Demo\MiWi Demo Kit\SelfTestMode.c
               SendBeacon   0x00289a    program     extern D:\microchip_solutions_v2013-06-15\Microchip\WirelessProtocols\MiWi\MiWi.c
            SendMACPacket   0x00216e    program     extern D:\microchip_solutions_v2013-06-15\Microchip\WirelessProtocols\MiWi\MiWi.c
                 TempDemo   0x006e78    program     extern D:\microchip_solutions_v2013-06-15\MiWi DE Demo\MiWi Demo Kit\TempDemo.c
     UserInterruptHandler   0x009a20    program     extern D:\microchip_solutions_v2013-06-15\MiWi DE Demo\MiWi Demo Kit\BSP_MiWiDemoBd.c
              _2jContinue   0x00a1ce    program     static E:\c18v3.46\pic18-lt\cxx-framework\src\extended\stdclib\memset.asm
                   _2jEnd   0x00a232    program     static E:\c18v3.46\pic18-lt\cxx-framework\src\extended\stdclib\slenpgm.asm
                   _3jEnd   0x00a1d8    program     static E:\c18v3.46\pic18-lt\cxx-framework\src\extended\stdclib\memset.asm
              __FpCompare   0x007e30    program     extern E:\c18v3.46\pic18-lt\cxx-framework\src\extended\math\compFP.asm
                 __FpPack   0x0079ee    program     extern E:\c18v3.46\pic18-lt\cxx-framework\src\extended\math\packFP.asm
            __FpReturnNaN   0x007a70    program     extern E:\c18v3.46\pic18-lt\cxx-framework\src\extended\math\packFP.asm
         __FpReturnNegInf   0x007a82    program     extern E:\c18v3.46\pic18-lt\cxx-framework\src\extended\math\packFP.asm
        __FpReturnNegZero   0x007a9a    program     extern E:\c18v3.46\pic18-lt\cxx-framework\src\extended\math\packFP.asm
         __FpReturnPosInf   0x007a88    program     extern E:\c18v3.46\pic18-lt\cxx-framework\src\extended\math\packFP.asm
        __FpReturnPosZero   0x007aa2    program     extern E:\c18v3.46\pic18-lt\cxx-framework\src\extended\math\packFP.asm
        __FpReturnSignInf   0x007a7e    program     extern E:\c18v3.46\pic18-lt\cxx-framework\src\extended\math\packFP.asm
       __FpReturnSignZero   0x007a96    program     extern E:\c18v3.46\pic18-lt\cxx-framework\src\extended\math\packFP.asm
              __FpReturnW   0x007a46    program     extern E:\c18v3.46\pic18-lt\cxx-framework\src\extended\math\packFP.asm
              __FpUnPackA   0x007aa8    program     extern E:\c18v3.46\pic18-lt\cxx-framework\src\extended\math\unpackFP.asm
              __FpUnPackB   0x007ad8    program     extern E:\c18v3.46\pic18-lt\cxx-framework\src\extended\math\unpackFP.asm
       ___case_1_lbl00182   0x00106a    program     static                          
       ___case_3_lbl00115   0x000d04    program     static                          
       ___case_7_lbl00180   0x0019c2    program     static                          
      ___default_lbl00181   0x001a00    program     static                          
      ___default_lbl00183   0x001a04    program     static                          
         ___else_lbl00004   0x009ca0    program     static                          
         ___else_lbl00006   0x009c2c    program     static                          
         ___else_lbl00011   0x009d5c    program     static                          
         ___else_lbl00014   0x006296    program     static                          
         ___else_lbl00017   0x006230    program     static                          
         ___else_lbl00026   0x006502    program     static                          
         ___else_lbl00028   0x0064a6    program     static                          
         ___else_lbl00030   0x00644e    program     static                          
         ___else_lbl00054   0x00696e    program     static                          
         ___else_lbl00059   0x0069b8    program     static                          
         ___else_lbl00063   0x006a1c    program     static                          
         ___else_lbl00067   0x006a3e    program     static                          
         ___else_lbl00099   0x006cee    program     static                          
         ___else_lbl00108   0x006d7a    program     static                          
         ___else_lbl00110   0x006d62    program     static                          
          ___for_lbl00031   0x006a36    program     static                          
          ___for_lbl00032   0x006a3a    program     static                          
          ___for_lbl00033   0x006618    program     static                          
          ___for_lbl00034   0x00661c    program     static                          
          ___for_lbl00036   0x00655e    program     static                          
          ___for_lbl00042   0x006780    program     static                          
          ___for_lbl00043   0x006784    program     static                          
          ___for_lbl00045   0x0066c2    program     static                          
          ___for_lbl00046   0x006988    program     static                          
          ___for_lbl00047   0x00698c    program     static                          
          ___for_lbl00056   0x006826    program     static                          
          ___for_lbl00065   0x00654c    program     static                          
          ___for_lbl00077   0x006b6c    program     static                          
          ___for_lbl00078   0x006b70    program     static                          
          ___for_lbl00082   0x006ace    program     static                          
          ___for_lbl00087   0x006c08    program     static                          
          ___for_lbl00088   0x006c0c    program     static                          
          ___for_lbl00091   0x006bbc    program     static                          
          ___for_lbl00092   0x006d08    program     static                          
          ___for_lbl00093   0x006d0c    program     static                          
          ___for_lbl00102   0x006c2c    program     static                          
           ___if_lbl00003   0x0061b8    program     static                          
           ___if_lbl00003   0x009cd4    program     static                          
           ___if_lbl00004   0x0061ce    program     static                          
           ___if_lbl00005   0x009cd4    program     static                          
           ___if_lbl00010   0x009d90    program     static                          
           ___if_lbl00011   0x0062aa    program     static                          
           ___if_lbl00012   0x0062ac    program     static                          
           ___if_lbl00013   0x0062ac    program     static                          
           ___if_lbl00015   0x0062b2    program     static                          
           ___if_lbl00016   0x0062b2    program     static                          
           ___if_lbl00018   0x0062da    program     static                          
           ___if_lbl00023   0x0063c6    program     static                          
           ___if_lbl00024   0x0063ca    program     static                          
           ___if_lbl00025   0x006544    program     static                          
           ___if_lbl00027   0x006544    program     static                          
           ___if_lbl00029   0x006544    program     static                          
           ___if_lbl00035   0x006618    program     static                          
           ___if_lbl00037   0x006628    program     static                          
           ___if_lbl00038   0x00662a    program     static                          
           ___if_lbl00039   0x00662a    program     static                          
           ___if_lbl00044   0x006780    program     static                          
           ___if_lbl00051   0x006984    program     static                          
           ___if_lbl00052   0x006986    program     static                          
           ___if_lbl00053   0x006986    program     static                          
           ___if_lbl00055   0x006988    program     static                          
           ___if_lbl00057   0x00698c    program     static                          
           ___if_lbl00058   0x0069ce    program     static                          
           ___if_lbl00060   0x006a2c    program     static                          
           ___if_lbl00061   0x006a2e    program     static                          
           ___if_lbl00062   0x006a2e    program     static                          
           ___if_lbl00064   0x006a36    program     static                          
           ___if_lbl00066   0x006a50    program     static                          
           ___if_lbl00068   0x005278    program     static                          
           ___if_lbl00068   0x006a50    program     static                          
           ___if_lbl00069   0x006a52    program     static                          
           ___if_lbl00075   0x006ac6    program     static                          
           ___if_lbl00076   0x006ac6    program     static                          
           ___if_lbl00080   0x006b6c    program     static                          
           ___if_lbl00081   0x006b6c    program     static                          
           ___if_lbl00083   0x006b70    program     static                          
           ___if_lbl00084   0x006b74    program     static                          
           ___if_lbl00085   0x006ba8    program     static                          
           ___if_lbl00090   0x006c08    program     static                          
           ___if_lbl00096   0x006cfe    program     static                          
           ___if_lbl00097   0x006d00    program     static                          
           ___if_lbl00098   0x006d00    program     static                          
           ___if_lbl00100   0x006d02    program     static                          
           ___if_lbl00101   0x006d08    program     static                          
           ___if_lbl00103   0x006d0c    program     static                          
           ___if_lbl00104   0x006d3a    program     static                          
           ___if_lbl00105   0x006d4a    program     static                          
           ___if_lbl00106   0x006d92    program     static                          
           ___if_lbl00107   0x006d92    program     static                          
           ___if_lbl00109   0x006d92    program     static                          
           ___if_lbl00111   0x006d92    program     static                          
           ___if_lbl00114   0x006dca    program     static                          
           ___if_lbl00117   0x006e62    program     static                          
           ___if_lbl00118   0x006e6c    program     static                          
           ___if_lbl00185   0x001a10    program     static                          
       ___return_lbl00000   0x009cd4    program     static                          
       ___return_lbl00000   0x00007e    program     static                          
       ___return_lbl00000   0x006e70    program     static                          
       ___return_lbl00000   0x000004    program     static                          
       ___return_lbl00001   0x00a4c0    program     static                          
       ___return_lbl00002   0x00a1ac    program     static                          
       ___return_lbl00007   0x001cac    program     static                          
       ___return_lbl00007   0x009d90    program     static                          
       ___return_lbl00215   0x00000c    program     static                          
       ___return_lbl00216   0x00001c    program     static                          
   ___switchexit_lbl00012   0x001a06    program     static                          
   ___switchexit_lbl00116   0x001a02    program     static                          
        ___while_lbl00001   0x006138    program     static                          
        ___while_lbl00001   0x009ca0    program     static                          
        ___while_lbl00002   0x0061d0    program     static                          
        ___while_lbl00002   0x009cd4    program     static                          
        ___while_lbl00005   0x006222    program     static                          
        ___while_lbl00006   0x0062b4    program     static                          
        ___while_lbl00007   0x006240    program     static                          
        ___while_lbl00008   0x009d5c    program     static                          
        ___while_lbl00008   0x0062b0    program     static                          
        ___while_lbl00009   0x009d90    program     static                          
        ___while_lbl00009   0x006282    program     static                          
        ___while_lbl00010   0x0062ae    program     static                          
        ___while_lbl00019   0x006302    program     static                          
        ___while_lbl00020   0x006a52    program     static                          
        ___while_lbl00021   0x0063b4    program     static                          
        ___while_lbl00022   0x0063c8    program     static                          
        ___while_lbl00040   0x0066ac    program     static                          
        ___while_lbl00041   0x006a30    program     static                          
        ___while_lbl00048   0x006958    program     static                          
        ___while_lbl00049   0x006988    program     static                          
        ___while_lbl00070   0x006a52    program     static                          
        ___while_lbl00071   0x006e70    program     static                          
        ___while_lbl00072   0x006a70    program     static                          
        ___while_lbl00073   0x006e6e    program     static                          
        ___while_lbl00094   0x006cd8    program     static                          
        ___while_lbl00095   0x006d02    program     static                          
                  __addFP   0x0078a8    program     extern E:\c18v3.46\pic18-lt\cxx-framework\src\extended\math\addFP.asm
              __cast08sFP   0x007b08    program     extern E:\c18v3.46\pic18-lt\cxx-framework\src\extended\math\cast08FP.asm
              __cast08uFP   0x007b04    program     extern E:\c18v3.46\pic18-lt\cxx-framework\src\extended\math\cast08FP.asm
              __cast16sFP   0x007b42    program     extern E:\c18v3.46\pic18-lt\cxx-framework\src\extended\math\cast16FP.asm
              __cast16uFP   0x007b3e    program     extern E:\c18v3.46\pic18-lt\cxx-framework\src\extended\math\cast16FP.asm
               __castFP08   0x007b80    program     extern E:\c18v3.46\pic18-lt\cxx-framework\src\extended\math\castFP08.asm
               __castFP16   0x007bf2    program     extern E:\c18v3.46\pic18-lt\cxx-framework\src\extended\math\castFP16.asm
               __config_0   0x00fff8    program     static D:\microchip_solutions_v2013-06-15\MiWi DE Demo\MiWi Demo Kit\BSP_MiWiDemoBd.c
               __config_1   0x00fff9    program     static D:\microchip_solutions_v2013-06-15\MiWi DE Demo\MiWi Demo Kit\BSP_MiWiDemoBd.c
               __config_2   0x00fffa    program     static D:\microchip_solutions_v2013-06-15\MiWi DE Demo\MiWi Demo Kit\BSP_MiWiDemoBd.c
               __config_3   0x00fffb    program     static D:\microchip_solutions_v2013-06-15\MiWi DE Demo\MiWi Demo Kit\BSP_MiWiDemoBd.c
                 __div08u   0x007c90    program     extern E:\c18v3.46\pic18-lt\cxx-framework\src\extended\math\div08u.asm
                 __div16s   0x007cec    program     extern E:\c18v3.46\pic18-lt\cxx-framework\src\extended\math\div16s.asm
                 __div16u   0x00810e    program     extern E:\c18v3.46\pic18-lt\cxx-framework\src\extended\math\div16u.asm
                 __div32u   0x008186    program     extern E:\c18v3.46\pic18-lt\cxx-framework\src\extended\math\div32u.asm
                  __divFP   0x007d64    program     extern E:\c18v3.46\pic18-lt\cxx-framework\src\extended\math\divFP.asm
                   __init   0x000010    program     extern E:\c18v3.46\pic18-lt\cxx-framework\src\extended\stdclib\__init.c
                   __ltFP   0x007e1e    program     extern E:\c18v3.46\pic18-lt\cxx-framework\src\extended\math\ltFP.asm
                 __mod08u   0x007c96    program     extern E:\c18v3.46\pic18-lt\cxx-framework\src\extended\math\div08u.asm
                 __mod16s   0x007cf2    program     extern E:\c18v3.46\pic18-lt\cxx-framework\src\extended\math\div16s.asm
                 __mod16u   0x008114    program     extern E:\c18v3.46\pic18-lt\cxx-framework\src\extended\math\div16u.asm
                 __mod32u   0x00818c    program     extern E:\c18v3.46\pic18-lt\cxx-framework\src\extended\math\div32u.asm
                  __mul16   0x007efe    program     extern E:\c18v3.46\pic18-lt\cxx-framework\src\extended\math\mul16.asm
                  __mul32   0x007f66    program     extern E:\c18v3.46\pic18-lt\cxx-framework\src\extended\math\mul32.asm
                  __mulFP   0x008008    program     extern E:\c18v3.46\pic18-lt\cxx-framework\src\extended\math\mulFP.asm
                   __pa_0   0x0088d4    program     static E:\c18v3.46\pic18-lt\cxx-framework\src\extended\stdclib\vfprintf.c
                   __pa_1   0x0088e2    program     static E:\c18v3.46\pic18-lt\cxx-framework\src\extended\stdclib\vfprintf.c
                  __pa_10   0x008970    program     static E:\c18v3.46\pic18-lt\cxx-framework\src\extended\stdclib\vfprintf.c
                  __pa_11   0x008980    program     static E:\c18v3.46\pic18-lt\cxx-framework\src\extended\stdclib\vfprintf.c
                  __pa_12   0x008990    program     static E:\c18v3.46\pic18-lt\cxx-framework\src\extended\stdclib\vfprintf.c
                  __pa_13   0x00899e    program     static E:\c18v3.46\pic18-lt\cxx-framework\src\extended\stdclib\vfprintf.c
                  __pa_14   0x0089bc    program     static E:\c18v3.46\pic18-lt\cxx-framework\src\extended\stdclib\vfprintf.c
                  __pa_15   0x0089c6    program     static E:\c18v3.46\pic18-lt\cxx-framework\src\extended\stdclib\vfprintf.c
                  __pa_16   0x0089cc    program     static E:\c18v3.46\pic18-lt\cxx-framework\src\extended\stdclib\vfprintf.c
                  __pa_17   0x0089dc    program     static E:\c18v3.46\pic18-lt\cxx-framework\src\extended\stdclib\vfprintf.c
                  __pa_18   0x0089e8    program     static E:\c18v3.46\pic18-lt\cxx-framework\src\extended\stdclib\vfprintf.c
                  __pa_19   0x0089f6    program     static E:\c18v3.46\pic18-lt\cxx-framework\src\extended\stdclib\vfprintf.c
                   __pa_2   0x0088f2    program     static E:\c18v3.46\pic18-lt\cxx-framework\src\extended\stdclib\vfprintf.c
                  __pa_20   0x008a00    program     static E:\c18v3.46\pic18-lt\cxx-framework\src\extended\stdclib\vfprintf.c
                  __pa_21   0x008a0a    program     static E:\c18v3.46\pic18-lt\cxx-framework\src\extended\stdclib\vfprintf.c
                  __pa_22   0x008a14    program     static E:\c18v3.46\pic18-lt\cxx-framework\src\extended\stdclib\vfprintf.c
                  __pa_23   0x008a22    program     static E:\c18v3.46\pic18-lt\cxx-framework\src\extended\stdclib\vfprintf.c
                   __pa_3   0x0088fe    program     static E:\c18v3.46\pic18-lt\cxx-framework\src\extended\stdclib\vfprintf.c
                   __pa_4   0x008912    program     static E:\c18v3.46\pic18-lt\cxx-framework\src\extended\stdclib\vfprintf.c
                   __pa_5   0x008924    program     static E:\c18v3.46\pic18-lt\cxx-framework\src\extended\stdclib\vfprintf.c
                   __pa_6   0x008934    program     static E:\c18v3.46\pic18-lt\cxx-framework\src\extended\stdclib\vfprintf.c
                   __pa_7   0x008946    program     static E:\c18v3.46\pic18-lt\cxx-framework\src\extended\stdclib\vfprintf.c
                   __pa_8   0x008952    program     static E:\c18v3.46\pic18-lt\cxx-framework\src\extended\stdclib\vfprintf.c
                   __pa_9   0x008964    program     static E:\c18v3.46\pic18-lt\cxx-framework\src\extended\stdclib\vfprintf.c
               __string_0   0x0090d5    program     static D:\microchip_solutions_v2013-06-15\MiWi DE Demo\MiWi Demo Kit\Demo.c
               __string_0   0x009141    program     static D:\microchip_solutions_v2013-06-15\MiWi DE Demo\MiWi Demo Kit\TempDemo.c
               __string_0   0x00927a    program     static D:\microchip_solutions_v2013-06-15\MiWi DE Demo\MiWi Demo Kit\SelfTestMode.c
               __string_0   0x0091fb    program     static D:\microchip_solutions_v2013-06-15\MiWi DE Demo\MiWi Demo Kit\RangeDemo.c
               __string_1   0x0091df    program     static D:\microchip_solutions_v2013-06-15\MiWi DE Demo\MiWi Demo Kit\RangeDemo.c
               __string_1   0x00925b    program     static D:\microchip_solutions_v2013-06-15\MiWi DE Demo\MiWi Demo Kit\SelfTestMode.c
               __string_1   0x009122    program     static D:\microchip_solutions_v2013-06-15\MiWi DE Demo\MiWi Demo Kit\TempDemo.c
               __string_1   0x0090c4    program     static D:\microchip_solutions_v2013-06-15\MiWi DE Demo\MiWi Demo Kit\Demo.c
              __string_10   0x008fed    program     static D:\microchip_solutions_v2013-06-15\MiWi DE Demo\MiWi Demo Kit\Demo.c
              __string_11   0x008fcc    program     static D:\microchip_solutions_v2013-06-15\MiWi DE Demo\MiWi Demo Kit\Demo.c
              __string_12   0x008fb7    program     static D:\microchip_solutions_v2013-06-15\MiWi DE Demo\MiWi Demo Kit\Demo.c
              __string_13   0x008fa7    program     static D:\microchip_solutions_v2013-06-15\MiWi DE Demo\MiWi Demo Kit\Demo.c
              __string_14   0x008f93    program     static D:\microchip_solutions_v2013-06-15\MiWi DE Demo\MiWi Demo Kit\Demo.c
              __string_15   0x008f84    program     static D:\microchip_solutions_v2013-06-15\MiWi DE Demo\MiWi Demo Kit\Demo.c
              __string_16   0x008f65    program     static D:\microchip_solutions_v2013-06-15\MiWi DE Demo\MiWi Demo Kit\Demo.c
              __string_17   0x008f48    program     static D:\microchip_solutions_v2013-06-15\MiWi DE Demo\MiWi Demo Kit\Demo.c
              __string_18   0x008f26    program     static D:\microchip_solutions_v2013-06-15\MiWi DE Demo\MiWi Demo Kit\Demo.c
              __string_19   0x008f06    program     static D:\microchip_solutions_v2013-06-15\MiWi DE Demo\MiWi Demo Kit\Demo.c
               __string_2   0x009111    program     static D:\microchip_solutions_v2013-06-15\MiWi DE Demo\MiWi Demo Kit\TempDemo.c
               __string_2   0x0090b2    program     static D:\microchip_solutions_v2013-06-15\MiWi DE Demo\MiWi Demo Kit\Demo.c
               __string_2   0x00924f    program     static D:\microchip_solutions_v2013-06-15\MiWi DE Demo\MiWi Demo Kit\SelfTestMode.c
               __string_2   0x0091cf    program     static D:\microchip_solutions_v2013-06-15\MiWi DE Demo\MiWi Demo Kit\RangeDemo.c
              __string_20   0x008ee4    program     static D:\microchip_solutions_v2013-06-15\MiWi DE Demo\MiWi Demo Kit\Demo.c
              __string_21   0x008ec2    program     static D:\microchip_solutions_v2013-06-15\MiWi DE Demo\MiWi Demo Kit\Demo.c
               __string_3   0x0091be    program     static D:\microchip_solutions_v2013-06-15\MiWi DE Demo\MiWi Demo Kit\RangeDemo.c
               __string_3   0x009101    program     static D:\microchip_solutions_v2013-06-15\MiWi DE Demo\MiWi Demo Kit\TempDemo.c
               __string_3   0x0090a2    program     static D:\microchip_solutions_v2013-06-15\MiWi DE Demo\MiWi Demo Kit\Demo.c
               __string_3   0x009235    program     static D:\microchip_solutions_v2013-06-15\MiWi DE Demo\MiWi Demo Kit\SelfTestMode.c
               __string_4   0x009084    program     static D:\microchip_solutions_v2013-06-15\MiWi DE Demo\MiWi Demo Kit\Demo.c
               __string_4   0x00921b    program     static D:\microchip_solutions_v2013-06-15\MiWi DE Demo\MiWi Demo Kit\SelfTestMode.c
               __string_4   0x0090f7    program     static D:\microchip_solutions_v2013-06-15\MiWi DE Demo\MiWi Demo Kit\TempDemo.c
               __string_4   0x0091b0    program     static D:\microchip_solutions_v2013-06-15\MiWi DE Demo\MiWi Demo Kit\RangeDemo.c
               __string_5   0x009063    program     static D:\microchip_solutions_v2013-06-15\MiWi DE Demo\MiWi Demo Kit\Demo.c
               __string_5   0x0090f3    program     static D:\microchip_solutions_v2013-06-15\MiWi DE Demo\MiWi Demo Kit\TempDemo.c
               __string_5   0x0091a1    program     static D:\microchip_solutions_v2013-06-15\MiWi DE Demo\MiWi Demo Kit\RangeDemo.c
               __string_6   0x009052    program     static D:\microchip_solutions_v2013-06-15\MiWi DE Demo\MiWi Demo Kit\Demo.c
               __string_6   0x009180    program     static D:\microchip_solutions_v2013-06-15\MiWi DE Demo\MiWi Demo Kit\RangeDemo.c
               __string_6   0x0090ef    program     static D:\microchip_solutions_v2013-06-15\MiWi DE Demo\MiWi Demo Kit\TempDemo.c
               __string_7   0x009035    program     static D:\microchip_solutions_v2013-06-15\MiWi DE Demo\MiWi Demo Kit\Demo.c
               __string_7   0x009160    program     static D:\microchip_solutions_v2013-06-15\MiWi DE Demo\MiWi Demo Kit\RangeDemo.c
               __string_7   0x0090ed    program     static D:\microchip_solutions_v2013-06-15\MiWi DE Demo\MiWi Demo Kit\TempDemo.c
               __string_8   0x0090e8    program     static D:\microchip_solutions_v2013-06-15\MiWi DE Demo\MiWi Demo Kit\TempDemo.c
               __string_8   0x00901e    program     static D:\microchip_solutions_v2013-06-15\MiWi DE Demo\MiWi Demo Kit\Demo.c
               __string_9   0x00900c    program     static D:\microchip_solutions_v2013-06-15\MiWi DE Demo\MiWi Demo Kit\Demo.c
               __string_9   0x0090e6    program     static D:\microchip_solutions_v2013-06-15\MiWi DE Demo\MiWi Demo Kit\TempDemo.c
                  __subFP   0x0078a4    program     extern E:\c18v3.46\pic18-lt\cxx-framework\src\extended\math\addFP.asm
               __tmplbl_0   0x0061b4    program     static                          
               __tmplbl_1   0x00660a    program     static                          
              __tmplbl_10   0x0068d0    program     static                          
              __tmplbl_11   0x00687a    program     static                          
              __tmplbl_12   0x006876    program     static                          
              __tmplbl_13   0x006980    program     static                          
              __tmplbl_14   0x00697a    program     static                          
              __tmplbl_15   0x006ac4    program     static                          
              __tmplbl_16   0x006aae    program     static                          
              __tmplbl_17   0x006b66    program     static                          
              __tmplbl_18   0x006b32    program     static                          
              __tmplbl_19   0x006bb4    program     static                          
               __tmplbl_2   0x006606    program     static                          
              __tmplbl_20   0x006bae    program     static                          
              __tmplbl_21   0x006c06    program     static                          
              __tmplbl_22   0x006be4    program     static                          
              __tmplbl_23   0x006da0    program     static                          
              __tmplbl_24   0x006d98    program     static                          
              __tmplbl_25   0x006d9c    program     static                          
              __tmplbl_26   0x006dda    program     static                          
              __tmplbl_27   0x006dd0    program     static                          
              __tmplbl_28   0x006dd4    program     static                          
              __tmplbl_29   0x006488    program     static                          
               __tmplbl_3   0x0065b0    program     static                          
               __tmplbl_4   0x0065ac    program     static                          
               __tmplbl_5   0x006776    program     static                          
               __tmplbl_6   0x006772    program     static                          
               __tmplbl_7   0x00671c    program     static                          
               __tmplbl_8   0x006718    program     static                          
               __tmplbl_9   0x0068d4    program     static                          
            __zero_memory   0x00a46c    program     extern E:\c18v3.46\pic18-lt\cxx-framework\src\extended\proc\p18f46j50.asm
                _do_cinit   0x00a110    program     extern E:\c18v3.46\pic18-lt\cxx-framework\src\extended\startup\c018i_e.c
            _early08uexit   0x007c9a    program     extern E:\c18v3.46\pic18-lt\cxx-framework\src\extended\math\div08u.asm
            _early16uexit   0x008118    program     extern E:\c18v3.46\pic18-lt\cxx-framework\src\extended\math\div16u.asm
            _early32uexit   0x008190    program     extern E:\c18v3.46\pic18-lt\cxx-framework\src\extended\math\div32u.asm
                   _entry   0x000000    program     extern E:\c18v3.46\pic18-lt\cxx-framework\src\extended\startup\c018i_e.c
                   _false   0x0081d4    program     static E:\c18v3.46\pic18-lt\cxx-framework\src\extended\math\div32u.asm
                 _startup   0x00a4a8    program     extern E:\c18v3.46\pic18-lt\cxx-framework\src\extended\startup\c018i_e.c
              _usart_putc   0x00a48c    program     extern E:\c18v3.46\pic18-lt\cxx-framework\src\pmc_common\USART\_usartpc.asm
               _user_putc   0x00000e    program     extern E:\c18v3.46\pic18-lt\cxx-framework\src\extended\stdclib\_user_putc.c
                compare_l   0x00a482    program     static E:\c18v3.46\pic18-lt\cxx-framework\src\extended\proc\p18f46j50.asm
                copy_loop   0x00a182    program     static                          
            copy_one_byte   0x00a188    program     static                          
                divmod08u   0x007c9c    program     static E:\c18v3.46\pic18-lt\cxx-framework\src\extended\math\div08u.asm
                divmod16u   0x00811a    program     static E:\c18v3.46\pic18-lt\cxx-framework\src\extended\math\div16u.asm
                divmod32u   0x008192    program     static E:\c18v3.46\pic18-lt\cxx-framework\src\extended\math\div32u.asm
                     done   0x00a1ac    program     static                          
             done_copying   0x00a196    program     static                          
                  endloop   0x007cb2    program     static E:\c18v3.46\pic18-lt\cxx-framework\src\extended\math\div08u.asm
                  endloop   0x008140    program     static E:\c18v3.46\pic18-lt\cxx-framework\src\extended\math\div16u.asm
     findNextNetworkEntry   0x002234    program     extern D:\microchip_solutions_v2013-06-15\Microchip\WirelessProtocols\MiWi\MiWi.c
            isSameAddress   0x002b68    program     extern D:\microchip_solutions_v2013-06-15\Microchip\WirelessProtocols\MiWi\MiWi.c
                  isdigit   0x00a448    program     extern E:\c18v3.46\pic18-lt\cxx-framework\src\extended\stdclib\isdigit.asm
                 jANotInf   0x0078ea    program     static E:\c18v3.46\pic18-lt\cxx-framework\src\extended\math\addFP.asm
                 jANotInf   0x00803a    program     static E:\c18v3.46\pic18-lt\cxx-framework\src\extended\math\mulFP.asm
                 jANotNeg   0x00797e    program     static E:\c18v3.46\pic18-lt\cxx-framework\src\extended\math\addFP.asm
              jAandWsetup   0x00794e    program     static E:\c18v3.46\pic18-lt\cxx-framework\src\extended\math\addFP.asm
                  jAisNeg   0x007ec0    program     static E:\c18v3.46\pic18-lt\cxx-framework\src\extended\math\compFP.asm
                 jAltBexp   0x00793c    program     static E:\c18v3.46\pic18-lt\cxx-framework\src\extended\math\addFP.asm
                jBANotInf   0x0078e0    program     static E:\c18v3.46\pic18-lt\cxx-framework\src\extended\math\addFP.asm
                 jBNotInf   0x0078f8    program     static E:\c18v3.46\pic18-lt\cxx-framework\src\extended\math\addFP.asm
                     jBeg   0x0078aa    program     static E:\c18v3.46\pic18-lt\cxx-framework\src\extended\math\addFP.asm
                     jBeg   0x007b44    program     static E:\c18v3.46\pic18-lt\cxx-framework\src\extended\math\cast16FP.asm
                     jBeg   0x007b0a    program     static E:\c18v3.46\pic18-lt\cxx-framework\src\extended\math\cast08FP.asm
              jBothFinite   0x008048    program     static E:\c18v3.46\pic18-lt\cxx-framework\src\extended\math\mulFP.asm
             jBothNotZero   0x007e62    program     static E:\c18v3.46\pic18-lt\cxx-framework\src\extended\math\compFP.asm
             jBothNotZero   0x008054    program     static E:\c18v3.46\pic18-lt\cxx-framework\src\extended\math\mulFP.asm
            jDifOrPosSign   0x00790c    program     static E:\c18v3.46\pic18-lt\cxx-framework\src\extended\math\addFP.asm
              jDivANotInf   0x007d96    program     static E:\c18v3.46\pic18-lt\cxx-framework\src\extended\math\divFP.asm
             jDivANotZero   0x007daa    program     static E:\c18v3.46\pic18-lt\cxx-framework\src\extended\math\divFP.asm
                 jDivLoop   0x007dd2    program     static E:\c18v3.46\pic18-lt\cxx-framework\src\extended\math\divFP.asm
                 jDivNext   0x007df8    program     static E:\c18v3.46\pic18-lt\cxx-framework\src\extended\math\divFP.asm
                    jDone   0x007be0    program     static E:\c18v3.46\pic18-lt\cxx-framework\src\extended\math\castFP08.asm
                    jDone   0x007c62    program     static E:\c18v3.46\pic18-lt\cxx-framework\src\extended\math\castFP16.asm
                      jEQ   0x007e7e    program     static E:\c18v3.46\pic18-lt\cxx-framework\src\extended\math\compFP.asm
                     jEnd   0x00a1e0    program     static E:\c18v3.46\pic18-lt\cxx-framework\src\extended\stdclib\memset.asm
                     jEnd   0x00a1fc    program     static E:\c18v3.46\pic18-lt\cxx-framework\src\extended\stdclib\strlen.asm
                     jEnd   0x00a234    program     static E:\c18v3.46\pic18-lt\cxx-framework\src\extended\stdclib\slenpgm.asm
                    jExch   0x007e8a    program     static E:\c18v3.46\pic18-lt\cxx-framework\src\extended\math\compFP.asm
                    jExit   0x007be4    program     static E:\c18v3.46\pic18-lt\cxx-framework\src\extended\math\castFP08.asm
                    jExit   0x007a62    program     static E:\c18v3.46\pic18-lt\cxx-framework\src\extended\math\packFP.asm
                    jExit   0x007c6a    program     static E:\c18v3.46\pic18-lt\cxx-framework\src\extended\math\castFP16.asm
                    jExit   0x007eee    program     static E:\c18v3.46\pic18-lt\cxx-framework\src\extended\math\compFP.asm
                   jExpEQ   0x007ed0    program     static E:\c18v3.46\pic18-lt\cxx-framework\src\extended\math\compFP.asm
                   jFinal   0x007eb4    program     static E:\c18v3.46\pic18-lt\cxx-framework\src\extended\math\compFP.asm
               jFinalSign   0x0079e6    program     static E:\c18v3.46\pic18-lt\cxx-framework\src\extended\math\addFP.asm
                jHaveZero   0x008050    program     static E:\c18v3.46\pic18-lt\cxx-framework\src\extended\math\mulFP.asm
                    jLoop   0x00a21c    program     static E:\c18v3.46\pic18-lt\cxx-framework\src\extended\stdclib\slenpgm.asm
                    jLoop   0x00a1f2    program     static E:\c18v3.46\pic18-lt\cxx-framework\src\extended\stdclib\strlen.asm
                    jLoop   0x007c42    program     static E:\c18v3.46\pic18-lt\cxx-framework\src\extended\math\castFP16.asm
                    jLoop   0x007bc8    program     static E:\c18v3.46\pic18-lt\cxx-framework\src\extended\math\castFP08.asm
                    jLoop   0x00a1c2    program     static E:\c18v3.46\pic18-lt\cxx-framework\src\extended\stdclib\memset.asm
                jLoopExit   0x007c52    program     static E:\c18v3.46\pic18-lt\cxx-framework\src\extended\math\castFP16.asm
                jLoopExit   0x007bd6    program     static E:\c18v3.46\pic18-lt\cxx-framework\src\extended\math\castFP08.asm
                   jMatch   0x00a468    program     static E:\c18v3.46\pic18-lt\cxx-framework\src\extended\stdclib\isdigit.asm
                     jMax   0x007ba4    program     static E:\c18v3.46\pic18-lt\cxx-framework\src\extended\math\castFP08.asm
                     jMax   0x007c16    program     static E:\c18v3.46\pic18-lt\cxx-framework\src\extended\math\castFP16.asm
                  jMaxNeg   0x007bae    program     static E:\c18v3.46\pic18-lt\cxx-framework\src\extended\math\castFP08.asm
                  jMaxNeg   0x007c24    program     static E:\c18v3.46\pic18-lt\cxx-framework\src\extended\math\castFP16.asm
                  jMaxPos   0x007c1a    program     static E:\c18v3.46\pic18-lt\cxx-framework\src\extended\math\castFP16.asm
                  jMaxPos   0x007ba8    program     static E:\c18v3.46\pic18-lt\cxx-framework\src\extended\math\castFP08.asm
                      jNE   0x007e82    program     static E:\c18v3.46\pic18-lt\cxx-framework\src\extended\math\compFP.asm
                jNoAdjust   0x007df6    program     static E:\c18v3.46\pic18-lt\cxx-framework\src\extended\math\divFP.asm
                  jNoExch   0x007eaa    program     static E:\c18v3.46\pic18-lt\cxx-framework\src\extended\math\compFP.asm
                 jNoMatch   0x00a46a    program     static E:\c18v3.46\pic18-lt\cxx-framework\src\extended\stdclib\isdigit.asm
             jNotBothZero   0x007910    program     static E:\c18v3.46\pic18-lt\cxx-framework\src\extended\math\addFP.asm
                  jNotInf   0x007bb8    program     static E:\c18v3.46\pic18-lt\cxx-framework\src\extended\math\castFP08.asm
                  jNotInf   0x007c32    program     static E:\c18v3.46\pic18-lt\cxx-framework\src\extended\math\castFP16.asm
                  jNotNeg   0x007b2a    program     static E:\c18v3.46\pic18-lt\cxx-framework\src\extended\math\cast08FP.asm
                  jNotNeg   0x007b6a    program     static E:\c18v3.46\pic18-lt\cxx-framework\src\extended\math\cast16FP.asm
                  jPkLoop   0x0079fc    program     static E:\c18v3.46\pic18-lt\cxx-framework\src\extended\math\packFP.asm
             jPkRoundDone   0x007a46    program     static E:\c18v3.46\pic18-lt\cxx-framework\src\extended\math\packFP.asm
               jPkRoundIt   0x007a2e    program     static E:\c18v3.46\pic18-lt\cxx-framework\src\extended\math\packFP.asm
             jPkShiftDone   0x007a18    program     static E:\c18v3.46\pic18-lt\cxx-framework\src\extended\math\packFP.asm
           jReturnPosInf0   0x007a8c    program     static E:\c18v3.46\pic18-lt\cxx-framework\src\extended\math\packFP.asm
                  jRotate   0x007edc    program     static E:\c18v3.46\pic18-lt\cxx-framework\src\extended\math\compFP.asm
                   jShift   0x007ec6    program     static E:\c18v3.46\pic18-lt\cxx-framework\src\extended\math\compFP.asm
               jShiftDone   0x0079a6    program     static E:\c18v3.46\pic18-lt\cxx-framework\src\extended\math\addFP.asm
               jShiftLoop   0x007998    program     static E:\c18v3.46\pic18-lt\cxx-framework\src\extended\math\addFP.asm
                jSignDone   0x0079d6    program     static E:\c18v3.46\pic18-lt\cxx-framework\src\extended\math\addFP.asm
                 jSignsEQ   0x007e66    program     static E:\c18v3.46\pic18-lt\cxx-framework\src\extended\math\compFP.asm
                  jUnpkA1   0x007ab2    program     static E:\c18v3.46\pic18-lt\cxx-framework\src\extended\math\unpackFP.asm
                  jUnpkA2   0x007aca    program     static E:\c18v3.46\pic18-lt\cxx-framework\src\extended\math\unpackFP.asm
                 jUnpkANZ   0x007ac0    program     static E:\c18v3.46\pic18-lt\cxx-framework\src\extended\math\unpackFP.asm
                  jUnpkB1   0x007ae2    program     static E:\c18v3.46\pic18-lt\cxx-framework\src\extended\math\unpackFP.asm
                  jUnpkB2   0x007afa    program     static E:\c18v3.46\pic18-lt\cxx-framework\src\extended\math\unpackFP.asm
                 jUnpkBNZ   0x007af0    program     static E:\c18v3.46\pic18-lt\cxx-framework\src\extended\math\unpackFP.asm
                 jUnpkNaN   0x007ad4    program     static E:\c18v3.46\pic18-lt\cxx-framework\src\extended\math\unpackFP.asm
                 jWNotNeg   0x007992    program     static E:\c18v3.46\pic18-lt\cxx-framework\src\extended\math\addFP.asm
                    jZero   0x007c2c    program     static E:\c18v3.46\pic18-lt\cxx-framework\src\extended\math\castFP16.asm
                    jZero   0x007bb4    program     static E:\c18v3.46\pic18-lt\cxx-framework\src\extended\math\castFP08.asm
               jZero1and2   0x007a90    program     static E:\c18v3.46\pic18-lt\cxx-framework\src\extended\math\packFP.asm
                     loop   0x00a49c    program     static E:\c18v3.46\pic18-lt\cxx-framework\src\pmc_common\USART\_usartpc.asm
                     loop   0x008124    program     static E:\c18v3.46\pic18-lt\cxx-framework\src\extended\math\div16u.asm
                     loop   0x00a4b6    program     static                          
                     loop   0x0081a0    program     static E:\c18v3.46\pic18-lt\cxx-framework\src\extended\math\div32u.asm
                     loop   0x007ca4    program     static E:\c18v3.46\pic18-lt\cxx-framework\src\extended\math\div08u.asm
                   loop_h   0x00a47a    program     static E:\c18v3.46\pic18-lt\cxx-framework\src\extended\proc\p18f46j50.asm
                   loop_l   0x00a484    program     static E:\c18v3.46\pic18-lt\cxx-framework\src\extended\proc\p18f46j50.asm
                     main   0x00609c    program     extern D:\microchip_solutions_v2013-06-15\MiWi DE Demo\MiWi Demo Kit\Demo.c
                   memset   0x00a1ae    program     extern E:\c18v3.46\pic18-lt\cxx-framework\src\extended\stdclib\memset.asm
      myKeySequenceNumber   0x000007    program     extern D:\microchip_solutions_v2013-06-15\Microchip\Transceivers\MRF24J40\MRF24J40.c
            mySecurityKey   0x00002e    program     extern D:\microchip_solutions_v2013-06-15\Microchip\Transceivers\MRF24J40\MRF24J40.c
          mySecurityLevel   0x000006    program     extern D:\microchip_solutions_v2013-06-15\Microchip\Transceivers\MRF24J40\MRF24J40.c
                     putc   0x00a340    program     extern E:\c18v3.46\pic18-lt\cxx-framework\src\extended\stdclib\putc.c
                 s_digits   0x00a4c2    program     static E:\c18v3.46\pic18-lt\cxx-framework\src\extended\stdclib\vfprintf.c
            s_put_n_chars   0x008212    program     static E:\c18v3.46\pic18-lt\cxx-framework\src\extended\stdclib\vfprintf.c
                  sprintf   0x00a2ce    program     extern E:\c18v3.46\pic18-lt\cxx-framework\src\extended\stdclib\sprintf.c
                   strlen   0x00a1e2    program     extern E:\c18v3.46\pic18-lt\cxx-framework\src\extended\stdclib\strlen.asm
                strlenpgm   0x00a1fe    program     extern E:\c18v3.46\pic18-lt\cxx-framework\src\extended\stdclib\slenpgm.asm
                     test   0x00a12a    program     static                          
                 vfprintf   0x008244    program     extern E:\c18v3.46\pic18-lt\cxx-framework\src\extended\stdclib\vfprintf.c
               zero_block   0x00a47a    program     static E:\c18v3.46\pic18-lt\cxx-framework\src\extended\proc\p18f46j50.asm
                   ADCON0   0x000fc2       data     extern E:\c18v3.46\pic18-lt\cxx-framework\src\extended\proc\p18f46j50.asm
               ADCON0bits   0x000fc2       data     extern E:\c18v3.46\pic18-lt\cxx-framework\src\extended\proc\p18f46j50.asm
                   ADCON1   0x000fc1       data     extern E:\c18v3.46\pic18-lt\cxx-framework\src\extended\proc\p18f46j50.asm
               ADCON1bits   0x000fc1       data     extern E:\c18v3.46\pic18-lt\cxx-framework\src\extended\proc\p18f46j50.asm
                    ADRES   0x000fc3       data     extern E:\c18v3.46\pic18-lt\cxx-framework\src\extended\proc\p18f46j50.asm
                   ADRESH   0x000fc4       data     extern E:\c18v3.46\pic18-lt\cxx-framework\src\extended\proc\p18f46j50.asm
                   ADRESL   0x000fc3       data     extern E:\c18v3.46\pic18-lt\cxx-framework\src\extended\proc\p18f46j50.asm
                  ALRMCFG   0x000f91       data     extern E:\c18v3.46\pic18-lt\cxx-framework\src\extended\proc\p18f46j50.asm
              ALRMCFGbits   0x000f91       data     extern E:\c18v3.46\pic18-lt\cxx-framework\src\extended\proc\p18f46j50.asm
                  ALRMRPT   0x000f90       data     extern E:\c18v3.46\pic18-lt\cxx-framework\src\extended\proc\p18f46j50.asm
              ALRMRPTbits   0x000f90       data     extern E:\c18v3.46\pic18-lt\cxx-framework\src\extended\proc\p18f46j50.asm
                 ALRMVALH   0x000f8f       data     extern E:\c18v3.46\pic18-lt\cxx-framework\src\extended\proc\p18f46j50.asm
                 ALRMVALL   0x000f8e       data     extern E:\c18v3.46\pic18-lt\cxx-framework\src\extended\proc\p18f46j50.asm
                   ANCON0   0x000f48       data     extern E:\c18v3.46\pic18-lt\cxx-framework\src\extended\proc\p18f46j50.asm
               ANCON0bits   0x000f48       data     extern E:\c18v3.46\pic18-lt\cxx-framework\src\extended\proc\p18f46j50.asm
                   ANCON1   0x000f49       data     extern E:\c18v3.46\pic18-lt\cxx-framework\src\extended\proc\p18f46j50.asm
               ANCON1bits   0x000f49       data     extern E:\c18v3.46\pic18-lt\cxx-framework\src\extended\proc\p18f46j50.asm
      AcknowledgementAddr   0x00015d       data     extern D:\microchip_solutions_v2013-06-15\Microchip\WirelessProtocols\MiWi\MiWi.c
       AcknowledgementSeq   0x000ebd       data     extern D:\microchip_solutions_v2013-06-15\Microchip\WirelessProtocols\MiWi\MiWi.c
    ActiveScanResultIndex   0x00010b       data     extern D:\microchip_solutions_v2013-06-15\Microchip\WirelessProtocols\MiWi\MiWi.c
        ActiveScanResults   0x00010c       data     extern D:\microchip_solutions_v2013-06-15\Microchip\WirelessProtocols\MiWi\MiWi.c
         AdditionalNodeID   0x00024c       data     extern D:\microchip_solutions_v2013-06-15\MiWi DE Demo\MiWi Demo Kit\Demo.c
                  BAUDCON   0x000f7e       data     extern E:\c18v3.46\pic18-lt\cxx-framework\src\extended\proc\p18f46j50.asm
                 BAUDCON1   0x000f7e       data     extern E:\c18v3.46\pic18-lt\cxx-framework\src\extended\proc\p18f46j50.asm
             BAUDCON1bits   0x000f7e       data     extern E:\c18v3.46\pic18-lt\cxx-framework\src\extended\proc\p18f46j50.asm
                 BAUDCON2   0x000f7c       data     extern E:\c18v3.46\pic18-lt\cxx-framework\src\extended\proc\p18f46j50.asm
             BAUDCON2bits   0x000f7c       data     extern E:\c18v3.46\pic18-lt\cxx-framework\src\extended\proc\p18f46j50.asm
              BAUDCONbits   0x000f7e       data     extern E:\c18v3.46\pic18-lt\cxx-framework\src\extended\proc\p18f46j50.asm
                  BAUDCTL   0x000f7e       data     extern E:\c18v3.46\pic18-lt\cxx-framework\src\extended\proc\p18f46j50.asm
              BAUDCTLbits   0x000f7e       data     extern E:\c18v3.46\pic18-lt\cxx-framework\src\extended\proc\p18f46j50.asm
                      BSR   0x000fe0       data     extern E:\c18v3.46\pic18-lt\cxx-framework\src\extended\proc\p18f46j50.asm
                BankIndex   0x00024d       data     extern D:\microchip_solutions_v2013-06-15\Microchip\Transceivers\MRF24J40\MRF24J40.c
         BroadcastRecords   0x00019f       data     extern D:\microchip_solutions_v2013-06-15\Microchip\WirelessProtocols\MiWi\MiWi.c
                  CCP1CON   0x000fba       data     extern E:\c18v3.46\pic18-lt\cxx-framework\src\extended\proc\p18f46j50.asm
              CCP1CONbits   0x000fba       data     extern E:\c18v3.46\pic18-lt\cxx-framework\src\extended\proc\p18f46j50.asm
                  CCP2CON   0x000fb4       data     extern E:\c18v3.46\pic18-lt\cxx-framework\src\extended\proc\p18f46j50.asm
              CCP2CONbits   0x000fb4       data     extern E:\c18v3.46\pic18-lt\cxx-framework\src\extended\proc\p18f46j50.asm
                    CCPR1   0x000fbb       data     extern E:\c18v3.46\pic18-lt\cxx-framework\src\extended\proc\p18f46j50.asm
                   CCPR1H   0x000fbc       data     extern E:\c18v3.46\pic18-lt\cxx-framework\src\extended\proc\p18f46j50.asm
                   CCPR1L   0x000fbb       data     extern E:\c18v3.46\pic18-lt\cxx-framework\src\extended\proc\p18f46j50.asm
                    CCPR2   0x000fb5       data     extern E:\c18v3.46\pic18-lt\cxx-framework\src\extended\proc\p18f46j50.asm
                   CCPR2H   0x000fb6       data     extern E:\c18v3.46\pic18-lt\cxx-framework\src\extended\proc\p18f46j50.asm
                   CCPR2L   0x000fb5       data     extern E:\c18v3.46\pic18-lt\cxx-framework\src\extended\proc\p18f46j50.asm
                   CM1CON   0x000fd2       data     extern E:\c18v3.46\pic18-lt\cxx-framework\src\extended\proc\p18f46j50.asm
                  CM1CON1   0x000fd2       data     extern E:\c18v3.46\pic18-lt\cxx-framework\src\extended\proc\p18f46j50.asm
              CM1CON1bits   0x000fd2       data     extern E:\c18v3.46\pic18-lt\cxx-framework\src\extended\proc\p18f46j50.asm
               CM1CONbits   0x000fd2       data     extern E:\c18v3.46\pic18-lt\cxx-framework\src\extended\proc\p18f46j50.asm
                   CM2CON   0x000fd1       data     extern E:\c18v3.46\pic18-lt\cxx-framework\src\extended\proc\p18f46j50.asm
                  CM2CON1   0x000fd1       data     extern E:\c18v3.46\pic18-lt\cxx-framework\src\extended\proc\p18f46j50.asm
              CM2CON1bits   0x000fd1       data     extern E:\c18v3.46\pic18-lt\cxx-framework\src\extended\proc\p18f46j50.asm
               CM2CONbits   0x000fd1       data     extern E:\c18v3.46\pic18-lt\cxx-framework\src\extended\proc\p18f46j50.asm
                   CMSTAT   0x000f70       data     extern E:\c18v3.46\pic18-lt\cxx-framework\src\extended\proc\p18f46j50.asm
                 CMSTATUS   0x000f70       data     extern E:\c18v3.46\pic18-lt\cxx-framework\src\extended\proc\p18f46j50.asm
             CMSTATUSbits   0x000f70       data     extern E:\c18v3.46\pic18-lt\cxx-framework\src\extended\proc\p18f46j50.asm
               CMSTATbits   0x000f70       data     extern E:\c18v3.46\pic18-lt\cxx-framework\src\extended\proc\p18f46j50.asm
                 CTMUCONH   0x000fb3       data     extern E:\c18v3.46\pic18-lt\cxx-framework\src\extended\proc\p18f46j50.asm
             CTMUCONHbits   0x000fb3       data     extern E:\c18v3.46\pic18-lt\cxx-framework\src\extended\proc\p18f46j50.asm
                 CTMUCONL   0x000fb2       data     extern E:\c18v3.46\pic18-lt\cxx-framework\src\extended\proc\p18f46j50.asm
             CTMUCONLbits   0x000fb2       data     extern E:\c18v3.46\pic18-lt\cxx-framework\src\extended\proc\p18f46j50.asm
                 CTMUICON   0x000fb1       data     extern E:\c18v3.46\pic18-lt\cxx-framework\src\extended\proc\p18f46j50.asm
             CTMUICONbits   0x000fb1       data     extern E:\c18v3.46\pic18-lt\cxx-framework\src\extended\proc\p18f46j50.asm
                   CVRCON   0x000f53       data     extern E:\c18v3.46\pic18-lt\cxx-framework\src\extended\proc\p18f46j50.asm
               CVRCONbits   0x000f53       data     extern E:\c18v3.46\pic18-lt\cxx-framework\src\extended\proc\p18f46j50.asm
                 ConnMode   0x000ebb       data     extern D:\microchip_solutions_v2013-06-15\Microchip\WirelessProtocols\MiWi\MiWi.c
          ConnectionEntry   0x00024a       data     extern D:\microchip_solutions_v2013-06-15\MiWi DE Demo\MiWi Demo Kit\Demo.c
          ConnectionTable   0x000060       data     extern D:\microchip_solutions_v2013-06-15\Microchip\WirelessProtocols\MiWi\MiWi.c
         CurrentNodeIndex   0x000240       data     extern D:\microchip_solutions_v2013-06-15\MiWi DE Demo\MiWi Demo Kit\TempDemo.c
                   DMABCH   0x000f66       data     extern E:\c18v3.46\pic18-lt\cxx-framework\src\extended\proc\p18f46j50.asm
               DMABCHbits   0x000f66       data     extern E:\c18v3.46\pic18-lt\cxx-framework\src\extended\proc\p18f46j50.asm
                   DMABCL   0x000f67       data     extern E:\c18v3.46\pic18-lt\cxx-framework\src\extended\proc\p18f46j50.asm
                  DMACON1   0x000f88       data     extern E:\c18v3.46\pic18-lt\cxx-framework\src\extended\proc\p18f46j50.asm
              DMACON1bits   0x000f88       data     extern E:\c18v3.46\pic18-lt\cxx-framework\src\extended\proc\p18f46j50.asm
                  DMACON2   0x000f86       data     extern E:\c18v3.46\pic18-lt\cxx-framework\src\extended\proc\p18f46j50.asm
              DMACON2bits   0x000f86       data     extern E:\c18v3.46\pic18-lt\cxx-framework\src\extended\proc\p18f46j50.asm
                   DSCONH   0x000f4d       data     extern E:\c18v3.46\pic18-lt\cxx-framework\src\extended\proc\p18f46j50.asm
               DSCONHbits   0x000f4d       data     extern E:\c18v3.46\pic18-lt\cxx-framework\src\extended\proc\p18f46j50.asm
                   DSCONL   0x000f4c       data     extern E:\c18v3.46\pic18-lt\cxx-framework\src\extended\proc\p18f46j50.asm
               DSCONLbits   0x000f4c       data     extern E:\c18v3.46\pic18-lt\cxx-framework\src\extended\proc\p18f46j50.asm
                   DSGPR0   0x000f4e       data     extern E:\c18v3.46\pic18-lt\cxx-framework\src\extended\proc\p18f46j50.asm
                   DSGPR1   0x000f4f       data     extern E:\c18v3.46\pic18-lt\cxx-framework\src\extended\proc\p18f46j50.asm
                  DSWAKEH   0x000f4b       data     extern E:\c18v3.46\pic18-lt\cxx-framework\src\extended\proc\p18f46j50.asm
              DSWAKEHbits   0x000f4b       data     extern E:\c18v3.46\pic18-lt\cxx-framework\src\extended\proc\p18f46j50.asm
                  DSWAKEL   0x000f4a       data     extern E:\c18v3.46\pic18-lt\cxx-framework\src\extended\proc\p18f46j50.asm
              DSWAKELbits   0x000f4a       data     extern E:\c18v3.46\pic18-lt\cxx-framework\src\extended\proc\p18f46j50.asm
                  ECCP1AS   0x000fbe       data     extern E:\c18v3.46\pic18-lt\cxx-framework\src\extended\proc\p18f46j50.asm
              ECCP1ASbits   0x000fbe       data     extern E:\c18v3.46\pic18-lt\cxx-framework\src\extended\proc\p18f46j50.asm
                 ECCP1CON   0x000fba       data     extern E:\c18v3.46\pic18-lt\cxx-framework\src\extended\proc\p18f46j50.asm
             ECCP1CONbits   0x000fba       data     extern E:\c18v3.46\pic18-lt\cxx-framework\src\extended\proc\p18f46j50.asm
                 ECCP1DEL   0x000fbd       data     extern E:\c18v3.46\pic18-lt\cxx-framework\src\extended\proc\p18f46j50.asm
             ECCP1DELbits   0x000fbd       data     extern E:\c18v3.46\pic18-lt\cxx-framework\src\extended\proc\p18f46j50.asm
                  ECCP2AS   0x000fb8       data     extern E:\c18v3.46\pic18-lt\cxx-framework\src\extended\proc\p18f46j50.asm
              ECCP2ASbits   0x000fb8       data     extern E:\c18v3.46\pic18-lt\cxx-framework\src\extended\proc\p18f46j50.asm
                 ECCP2CON   0x000fb4       data     extern E:\c18v3.46\pic18-lt\cxx-framework\src\extended\proc\p18f46j50.asm
             ECCP2CONbits   0x000fb4       data     extern E:\c18v3.46\pic18-lt\cxx-framework\src\extended\proc\p18f46j50.asm
                 ECCP2DEL   0x000fb7       data     extern E:\c18v3.46\pic18-lt\cxx-framework\src\extended\proc\p18f46j50.asm
             ECCP2DELbits   0x000fb7       data     extern E:\c18v3.46\pic18-lt\cxx-framework\src\extended\proc\p18f46j50.asm
                   EECON1   0x000fa6       data     extern E:\c18v3.46\pic18-lt\cxx-framework\src\extended\proc\p18f46j50.asm
               EECON1bits   0x000fa6       data     extern E:\c18v3.46\pic18-lt\cxx-framework\src\extended\proc\p18f46j50.asm
                   EECON2   0x000fa7       data     extern E:\c18v3.46\pic18-lt\cxx-framework\src\extended\proc\p18f46j50.asm
               EEPROM_Val   0x00005c       data     extern D:\microchip_solutions_v2013-06-15\MiWi DE Demo\MiWi Demo Kit\SelfTestMode.c
                     FSR0   0x000fe9       data     extern E:\c18v3.46\pic18-lt\cxx-framework\src\extended\proc\p18f46j50.asm
                    FSR0H   0x000fea       data     extern E:\c18v3.46\pic18-lt\cxx-framework\src\extended\proc\p18f46j50.asm
                    FSR0L   0x000fe9       data     extern E:\c18v3.46\pic18-lt\cxx-framework\src\extended\proc\p18f46j50.asm
                     FSR1   0x000fe1       data     extern E:\c18v3.46\pic18-lt\cxx-framework\src\extended\proc\p18f46j50.asm
                    FSR1H   0x000fe2       data     extern E:\c18v3.46\pic18-lt\cxx-framework\src\extended\proc\p18f46j50.asm
                    FSR1L   0x000fe1       data     extern E:\c18v3.46\pic18-lt\cxx-framework\src\extended\proc\p18f46j50.asm
                     FSR2   0x000fd9       data     extern E:\c18v3.46\pic18-lt\cxx-framework\src\extended\proc\p18f46j50.asm
                    FSR2H   0x000fda       data     extern E:\c18v3.46\pic18-lt\cxx-framework\src\extended\proc\p18f46j50.asm
                    FSR2L   0x000fd9       data     extern E:\c18v3.46\pic18-lt\cxx-framework\src\extended\proc\p18f46j50.asm
                  HLVDCON   0x000f85       data     extern E:\c18v3.46\pic18-lt\cxx-framework\src\extended\proc\p18f46j50.asm
              HLVDCONbits   0x000f85       data     extern E:\c18v3.46\pic18-lt\cxx-framework\src\extended\proc\p18f46j50.asm
               IEEESeqNum   0x0001f7       data     extern D:\microchip_solutions_v2013-06-15\Microchip\Transceivers\MRF24J40\MRF24J40.c
                    INDF0   0x000fef       data     extern E:\c18v3.46\pic18-lt\cxx-framework\src\extended\proc\p18f46j50.asm
                    INDF1   0x000fe7       data     extern E:\c18v3.46\pic18-lt\cxx-framework\src\extended\proc\p18f46j50.asm
                    INDF2   0x000fdf       data     extern E:\c18v3.46\pic18-lt\cxx-framework\src\extended\proc\p18f46j50.asm
                   INTCON   0x000ff2       data     extern E:\c18v3.46\pic18-lt\cxx-framework\src\extended\proc\p18f46j50.asm
                  INTCON2   0x000ff1       data     extern E:\c18v3.46\pic18-lt\cxx-framework\src\extended\proc\p18f46j50.asm
              INTCON2bits   0x000ff1       data     extern E:\c18v3.46\pic18-lt\cxx-framework\src\extended\proc\p18f46j50.asm
                  INTCON3   0x000ff0       data     extern E:\c18v3.46\pic18-lt\cxx-framework\src\extended\proc\p18f46j50.asm
              INTCON3bits   0x000ff0       data     extern E:\c18v3.46\pic18-lt\cxx-framework\src\extended\proc\p18f46j50.asm
               INTCONbits   0x000ff2       data     extern E:\c18v3.46\pic18-lt\cxx-framework\src\extended\proc\p18f46j50.asm
                     IPR1   0x000f9f       data     extern E:\c18v3.46\pic18-lt\cxx-framework\src\extended\proc\p18f46j50.asm
                 IPR1bits   0x000f9f       data     extern E:\c18v3.46\pic18-lt\cxx-framework\src\extended\proc\p18f46j50.asm
                     IPR2   0x000fa2       data     extern E:\c18v3.46\pic18-lt\cxx-framework\src\extended\proc\p18f46j50.asm
                 IPR2bits   0x000fa2       data     extern E:\c18v3.46\pic18-lt\cxx-framework\src\extended\proc\p18f46j50.asm
                     IPR3   0x000fa5       data     extern E:\c18v3.46\pic18-lt\cxx-framework\src\extended\proc\p18f46j50.asm
                 IPR3bits   0x000fa5       data     extern E:\c18v3.46\pic18-lt\cxx-framework\src\extended\proc\p18f46j50.asm
     IncomingFrameCounter   0x000033       data     extern D:\microchip_solutions_v2013-06-15\Microchip\WirelessProtocols\MiWi\MiWi.c
                     LATA   0x000f89       data     extern E:\c18v3.46\pic18-lt\cxx-framework\src\extended\proc\p18f46j50.asm
                 LATAbits   0x000f89       data     extern E:\c18v3.46\pic18-lt\cxx-framework\src\extended\proc\p18f46j50.asm
                     LATB   0x000f8a       data     extern E:\c18v3.46\pic18-lt\cxx-framework\src\extended\proc\p18f46j50.asm
                 LATBbits   0x000f8a       data     extern E:\c18v3.46\pic18-lt\cxx-framework\src\extended\proc\p18f46j50.asm
                     LATC   0x000f8b       data     extern E:\c18v3.46\pic18-lt\cxx-framework\src\extended\proc\p18f46j50.asm
                 LATCbits   0x000f8b       data     extern E:\c18v3.46\pic18-lt\cxx-framework\src\extended\proc\p18f46j50.asm
                     LATD   0x000f8c       data     extern E:\c18v3.46\pic18-lt\cxx-framework\src\extended\proc\p18f46j50.asm
                 LATDbits   0x000f8c       data     extern E:\c18v3.46\pic18-lt\cxx-framework\src\extended\proc\p18f46j50.asm
                     LATE   0x000f8d       data     extern E:\c18v3.46\pic18-lt\cxx-framework\src\extended\proc\p18f46j50.asm
                 LATEbits   0x000f8d       data     extern E:\c18v3.46\pic18-lt\cxx-framework\src\extended\proc\p18f46j50.asm
                  LCDText   0x0001c3       data     extern D:\microchip_solutions_v2013-06-15\MiWi DE Demo\MiWi Demo Kit\LCD_ST7032.c
        MACCurrentChannel   0x0001f8       data     extern D:\microchip_solutions_v2013-06-15\Microchip\Transceivers\MRF24J40\MRF24J40.c
            MACInitParams   0x0001e4       data     extern D:\microchip_solutions_v2013-06-15\Microchip\Transceivers\MRF24J40\MRF24J40.c
              MACRxPacket   0x000194       data     extern D:\microchip_solutions_v2013-06-15\Microchip\WirelessProtocols\MiWi\MiWi.c
                MAC_PANID   0x0001f9       data     extern D:\microchip_solutions_v2013-06-15\Microchip\Transceivers\MRF24J40\MRF24J40.c
           MRF24J40Status   0x0001fd       data     extern D:\microchip_solutions_v2013-06-15\Microchip\Transceivers\MRF24J40\MRF24J40.c
                      MTP   0x00018d       data     extern D:\microchip_solutions_v2013-06-15\Microchip\WirelessProtocols\MiWi\MiWi.c
          MiWiAckRequired   0x000ebe       data     extern D:\microchip_solutions_v2013-06-15\Microchip\WirelessProtocols\MiWi\MiWi.c
         MiWiCapacityInfo   0x000100       data     extern D:\microchip_solutions_v2013-06-15\Microchip\WirelessProtocols\MiWi\MiWi.c
               MiWiSeqNum   0x00015f       data     extern D:\microchip_solutions_v2013-06-15\Microchip\WirelessProtocols\MiWi\MiWi.c
         MiWiStateMachine   0x00015b       data     extern D:\microchip_solutions_v2013-06-15\Microchip\WirelessProtocols\MiWi\MiWi.c
         NetFreezerEnable   0x00024b       data     extern D:\microchip_solutions_v2013-06-15\MiWi DE Demo\MiWi Demo Kit\Demo.c
                NodeIndex   0x00023f       data     extern D:\microchip_solutions_v2013-06-15\MiWi DE Demo\MiWi Demo Kit\TempDemo.c
                 NodeTemp   0x000200       data     extern D:\microchip_solutions_v2013-06-15\MiWi DE Demo\MiWi Demo Kit\TempDemo.c
                   ODCON1   0x000f42       data     extern E:\c18v3.46\pic18-lt\cxx-framework\src\extended\proc\p18f46j50.asm
               ODCON1bits   0x000f42       data     extern E:\c18v3.46\pic18-lt\cxx-framework\src\extended\proc\p18f46j50.asm
                   ODCON2   0x000f41       data     extern E:\c18v3.46\pic18-lt\cxx-framework\src\extended\proc\p18f46j50.asm
               ODCON2bits   0x000f41       data     extern E:\c18v3.46\pic18-lt\cxx-framework\src\extended\proc\p18f46j50.asm
                   ODCON3   0x000f40       data     extern E:\c18v3.46\pic18-lt\cxx-framework\src\extended\proc\p18f46j50.asm
               ODCON3bits   0x000f40       data     extern E:\c18v3.46\pic18-lt\cxx-framework\src\extended\proc\p18f46j50.asm
                   OSCCON   0x000fd3       data     extern E:\c18v3.46\pic18-lt\cxx-framework\src\extended\proc\p18f46j50.asm
               OSCCONbits   0x000fd3       data     extern E:\c18v3.46\pic18-lt\cxx-framework\src\extended\proc\p18f46j50.asm
                  OSCTUNE   0x000f9b       data     extern E:\c18v3.46\pic18-lt\cxx-framework\src\extended\proc\p18f46j50.asm
              OSCTUNEbits   0x000f9b       data     extern E:\c18v3.46\pic18-lt\cxx-framework\src\extended\proc\p18f46j50.asm
     OutgoingFrameCounter   0x0001e7       data     extern D:\microchip_solutions_v2013-06-15\Microchip\Transceivers\MRF24J40\MRF24J40.c
                  PADCFG1   0x000f3c       data     extern E:\c18v3.46\pic18-lt\cxx-framework\src\extended\proc\p18f46j50.asm
              PADCFG1bits   0x000f3c       data     extern E:\c18v3.46\pic18-lt\cxx-framework\src\extended\proc\p18f46j50.asm
                       PC   0x000ff9       data     extern E:\c18v3.46\pic18-lt\cxx-framework\src\extended\proc\p18f46j50.asm
                      PCL   0x000ff9       data     extern E:\c18v3.46\pic18-lt\cxx-framework\src\extended\proc\p18f46j50.asm
                   PCLATH   0x000ffa       data     extern E:\c18v3.46\pic18-lt\cxx-framework\src\extended\proc\p18f46j50.asm
                   PCLATU   0x000ffb       data     extern E:\c18v3.46\pic18-lt\cxx-framework\src\extended\proc\p18f46j50.asm
                     PIE1   0x000f9d       data     extern E:\c18v3.46\pic18-lt\cxx-framework\src\extended\proc\p18f46j50.asm
                 PIE1bits   0x000f9d       data     extern E:\c18v3.46\pic18-lt\cxx-framework\src\extended\proc\p18f46j50.asm
                     PIE2   0x000fa0       data     extern E:\c18v3.46\pic18-lt\cxx-framework\src\extended\proc\p18f46j50.asm
                 PIE2bits   0x000fa0       data     extern E:\c18v3.46\pic18-lt\cxx-framework\src\extended\proc\p18f46j50.asm
                     PIE3   0x000fa3       data     extern E:\c18v3.46\pic18-lt\cxx-framework\src\extended\proc\p18f46j50.asm
                 PIE3bits   0x000fa3       data     extern E:\c18v3.46\pic18-lt\cxx-framework\src\extended\proc\p18f46j50.asm
                     PIR1   0x000f9e       data     extern E:\c18v3.46\pic18-lt\cxx-framework\src\extended\proc\p18f46j50.asm
                 PIR1bits   0x000f9e       data     extern E:\c18v3.46\pic18-lt\cxx-framework\src\extended\proc\p18f46j50.asm
                     PIR2   0x000fa1       data     extern E:\c18v3.46\pic18-lt\cxx-framework\src\extended\proc\p18f46j50.asm
                 PIR2bits   0x000fa1       data     extern E:\c18v3.46\pic18-lt\cxx-framework\src\extended\proc\p18f46j50.asm
                     PIR3   0x000fa4       data     extern E:\c18v3.46\pic18-lt\cxx-framework\src\extended\proc\p18f46j50.asm
                 PIR3bits   0x000fa4       data     extern E:\c18v3.46\pic18-lt\cxx-framework\src\extended\proc\p18f46j50.asm
                   PLUSW0   0x000feb       data     extern E:\c18v3.46\pic18-lt\cxx-framework\src\extended\proc\p18f46j50.asm
                   PLUSW1   0x000fe3       data     extern E:\c18v3.46\pic18-lt\cxx-framework\src\extended\proc\p18f46j50.asm
                   PLUSW2   0x000fdb       data     extern E:\c18v3.46\pic18-lt\cxx-framework\src\extended\proc\p18f46j50.asm
                  PMADDRH   0x000f6f       data     extern E:\c18v3.46\pic18-lt\cxx-framework\src\extended\proc\p18f46j50.asm
              PMADDRHbits   0x000f6f       data     extern E:\c18v3.46\pic18-lt\cxx-framework\src\extended\proc\p18f46j50.asm
                  PMADDRL   0x000f6e       data     extern E:\c18v3.46\pic18-lt\cxx-framework\src\extended\proc\p18f46j50.asm
                   PMCONH   0x000f5f       data     extern E:\c18v3.46\pic18-lt\cxx-framework\src\extended\proc\p18f46j50.asm
               PMCONHbits   0x000f5f       data     extern E:\c18v3.46\pic18-lt\cxx-framework\src\extended\proc\p18f46j50.asm
                   PMCONL   0x000f5e       data     extern E:\c18v3.46\pic18-lt\cxx-framework\src\extended\proc\p18f46j50.asm
               PMCONLbits   0x000f5e       data     extern E:\c18v3.46\pic18-lt\cxx-framework\src\extended\proc\p18f46j50.asm
                  PMDIN1H   0x000f6d       data     extern E:\c18v3.46\pic18-lt\cxx-framework\src\extended\proc\p18f46j50.asm
                  PMDIN1L   0x000f6c       data     extern E:\c18v3.46\pic18-lt\cxx-framework\src\extended\proc\p18f46j50.asm
                  PMDIN2H   0x000f59       data     extern E:\c18v3.46\pic18-lt\cxx-framework\src\extended\proc\p18f46j50.asm
                  PMDIN2L   0x000f58       data     extern E:\c18v3.46\pic18-lt\cxx-framework\src\extended\proc\p18f46j50.asm
                 PMDOUT1H   0x000f6f       data     extern E:\c18v3.46\pic18-lt\cxx-framework\src\extended\proc\p18f46j50.asm
                 PMDOUT1L   0x000f6e       data     extern E:\c18v3.46\pic18-lt\cxx-framework\src\extended\proc\p18f46j50.asm
                 PMDOUT2H   0x000f5b       data     extern E:\c18v3.46\pic18-lt\cxx-framework\src\extended\proc\p18f46j50.asm
                 PMDOUT2L   0x000f5a       data     extern E:\c18v3.46\pic18-lt\cxx-framework\src\extended\proc\p18f46j50.asm
                     PMEH   0x000f57       data     extern E:\c18v3.46\pic18-lt\cxx-framework\src\extended\proc\p18f46j50.asm
                 PMEHbits   0x000f57       data     extern E:\c18v3.46\pic18-lt\cxx-framework\src\extended\proc\p18f46j50.asm
                     PMEL   0x000f56       data     extern E:\c18v3.46\pic18-lt\cxx-framework\src\extended\proc\p18f46j50.asm
                 PMELbits   0x000f56       data     extern E:\c18v3.46\pic18-lt\cxx-framework\src\extended\proc\p18f46j50.asm
                  PMMODEH   0x000f5d       data     extern E:\c18v3.46\pic18-lt\cxx-framework\src\extended\proc\p18f46j50.asm
              PMMODEHbits   0x000f5d       data     extern E:\c18v3.46\pic18-lt\cxx-framework\src\extended\proc\p18f46j50.asm
                  PMMODEL   0x000f5c       data     extern E:\c18v3.46\pic18-lt\cxx-framework\src\extended\proc\p18f46j50.asm
              PMMODELbits   0x000f5c       data     extern E:\c18v3.46\pic18-lt\cxx-framework\src\extended\proc\p18f46j50.asm
                  PMSTATH   0x000f55       data     extern E:\c18v3.46\pic18-lt\cxx-framework\src\extended\proc\p18f46j50.asm
              PMSTATHbits   0x000f55       data     extern E:\c18v3.46\pic18-lt\cxx-framework\src\extended\proc\p18f46j50.asm
                  PMSTATL   0x000f54       data     extern E:\c18v3.46\pic18-lt\cxx-framework\src\extended\proc\p18f46j50.asm
              PMSTATLbits   0x000f54       data     extern E:\c18v3.46\pic18-lt\cxx-framework\src\extended\proc\p18f46j50.asm
                    PORTA   0x000f80       data     extern E:\c18v3.46\pic18-lt\cxx-framework\src\extended\proc\p18f46j50.asm
                PORTAbits   0x000f80       data     extern E:\c18v3.46\pic18-lt\cxx-framework\src\extended\proc\p18f46j50.asm
                    PORTB   0x000f81       data     extern E:\c18v3.46\pic18-lt\cxx-framework\src\extended\proc\p18f46j50.asm
                PORTBbits   0x000f81       data     extern E:\c18v3.46\pic18-lt\cxx-framework\src\extended\proc\p18f46j50.asm
                    PORTC   0x000f82       data     extern E:\c18v3.46\pic18-lt\cxx-framework\src\extended\proc\p18f46j50.asm
                PORTCbits   0x000f82       data     extern E:\c18v3.46\pic18-lt\cxx-framework\src\extended\proc\p18f46j50.asm
                    PORTD   0x000f83       data     extern E:\c18v3.46\pic18-lt\cxx-framework\src\extended\proc\p18f46j50.asm
                PORTDbits   0x000f83       data     extern E:\c18v3.46\pic18-lt\cxx-framework\src\extended\proc\p18f46j50.asm
                    PORTE   0x000f84       data     extern E:\c18v3.46\pic18-lt\cxx-framework\src\extended\proc\p18f46j50.asm
                PORTEbits   0x000f84       data     extern E:\c18v3.46\pic18-lt\cxx-framework\src\extended\proc\p18f46j50.asm
                 POSTDEC0   0x000fed       data     extern E:\c18v3.46\pic18-lt\cxx-framework\src\extended\proc\p18f46j50.asm
                 POSTDEC1   0x000fe5       data     extern E:\c18v3.46\pic18-lt\cxx-framework\src\extended\proc\p18f46j50.asm
                 POSTDEC2   0x000fdd       data     extern E:\c18v3.46\pic18-lt\cxx-framework\src\extended\proc\p18f46j50.asm
                 POSTINC0   0x000fee       data     extern E:\c18v3.46\pic18-lt\cxx-framework\src\extended\proc\p18f46j50.asm
                 POSTINC1   0x000fe6       data     extern E:\c18v3.46\pic18-lt\cxx-framework\src\extended\proc\p18f46j50.asm
                 POSTINC2   0x000fde       data     extern E:\c18v3.46\pic18-lt\cxx-framework\src\extended\proc\p18f46j50.asm
                   PPSCON   0x000eff       data     extern E:\c18v3.46\pic18-lt\cxx-framework\src\extended\proc\p18f46j50.asm
               PPSCONbits   0x000eff       data     extern E:\c18v3.46\pic18-lt\cxx-framework\src\extended\proc\p18f46j50.asm
                      PR2   0x000fcb       data     extern E:\c18v3.46\pic18-lt\cxx-framework\src\extended\proc\p18f46j50.asm
                      PR4   0x000f77       data     extern E:\c18v3.46\pic18-lt\cxx-framework\src\extended\proc\p18f46j50.asm
                  PREINC0   0x000fec       data     extern E:\c18v3.46\pic18-lt\cxx-framework\src\extended\proc\p18f46j50.asm
                  PREINC1   0x000fe4       data     extern E:\c18v3.46\pic18-lt\cxx-framework\src\extended\proc\p18f46j50.asm
                  PREINC2   0x000fdc       data     extern E:\c18v3.46\pic18-lt\cxx-framework\src\extended\proc\p18f46j50.asm
                     PROD   0x000ff3       data     extern E:\c18v3.46\pic18-lt\cxx-framework\src\extended\proc\p18f46j50.asm
                    PRODH   0x000ff4       data     extern E:\c18v3.46\pic18-lt\cxx-framework\src\extended\proc\p18f46j50.asm
                    PRODL   0x000ff3       data     extern E:\c18v3.46\pic18-lt\cxx-framework\src\extended\proc\p18f46j50.asm
                 PSTR1CON   0x000fbf       data     extern E:\c18v3.46\pic18-lt\cxx-framework\src\extended\proc\p18f46j50.asm
             PSTR1CONbits   0x000fbf       data     extern E:\c18v3.46\pic18-lt\cxx-framework\src\extended\proc\p18f46j50.asm
                 PSTR2CON   0x000fb9       data     extern E:\c18v3.46\pic18-lt\cxx-framework\src\extended\proc\p18f46j50.asm
             PSTR2CONbits   0x000fb9       data     extern E:\c18v3.46\pic18-lt\cxx-framework\src\extended\proc\p18f46j50.asm
                  PWM1CON   0x000fbd       data     extern E:\c18v3.46\pic18-lt\cxx-framework\src\extended\proc\p18f46j50.asm
              PWM1CONbits   0x000fbd       data     extern E:\c18v3.46\pic18-lt\cxx-framework\src\extended\proc\p18f46j50.asm
                  PWM2CON   0x000fb7       data     extern E:\c18v3.46\pic18-lt\cxx-framework\src\extended\proc\p18f46j50.asm
              PWM2CONbits   0x000fb7       data     extern E:\c18v3.46\pic18-lt\cxx-framework\src\extended\proc\p18f46j50.asm
                     RCON   0x000fd0       data     extern E:\c18v3.46\pic18-lt\cxx-framework\src\extended\proc\p18f46j50.asm
                 RCONbits   0x000fd0       data     extern E:\c18v3.46\pic18-lt\cxx-framework\src\extended\proc\p18f46j50.asm
                    RCREG   0x000faf       data     extern E:\c18v3.46\pic18-lt\cxx-framework\src\extended\proc\p18f46j50.asm
                   RCREG1   0x000faf       data     extern E:\c18v3.46\pic18-lt\cxx-framework\src\extended\proc\p18f46j50.asm
                   RCREG2   0x000faa       data     extern E:\c18v3.46\pic18-lt\cxx-framework\src\extended\proc\p18f46j50.asm
                    RCSTA   0x000fac       data     extern E:\c18v3.46\pic18-lt\cxx-framework\src\extended\proc\p18f46j50.asm
                   RCSTA1   0x000fac       data     extern E:\c18v3.46\pic18-lt\cxx-framework\src\extended\proc\p18f46j50.asm
               RCSTA1bits   0x000fac       data     extern E:\c18v3.46\pic18-lt\cxx-framework\src\extended\proc\p18f46j50.asm
                   RCSTA2   0x000f9c       data     extern E:\c18v3.46\pic18-lt\cxx-framework\src\extended\proc\p18f46j50.asm
               RCSTA2bits   0x000f9c       data     extern E:\c18v3.46\pic18-lt\cxx-framework\src\extended\proc\p18f46j50.asm
                RCSTAbits   0x000fac       data     extern E:\c18v3.46\pic18-lt\cxx-framework\src\extended\proc\p18f46j50.asm
                  REFOCON   0x000f3d       data     extern E:\c18v3.46\pic18-lt\cxx-framework\src\extended\proc\p18f46j50.asm
              REFOCONbits   0x000f3d       data     extern E:\c18v3.46\pic18-lt\cxx-framework\src\extended\proc\p18f46j50.asm
                   RPINR1   0x000ee7       data     extern E:\c18v3.46\pic18-lt\cxx-framework\src\extended\proc\p18f46j50.asm
                  RPINR12   0x000ef2       data     extern E:\c18v3.46\pic18-lt\cxx-framework\src\extended\proc\p18f46j50.asm
                  RPINR13   0x000ef3       data     extern E:\c18v3.46\pic18-lt\cxx-framework\src\extended\proc\p18f46j50.asm
                  RPINR16   0x000ef6       data     extern E:\c18v3.46\pic18-lt\cxx-framework\src\extended\proc\p18f46j50.asm
                  RPINR17   0x000ef7       data     extern E:\c18v3.46\pic18-lt\cxx-framework\src\extended\proc\p18f46j50.asm
                   RPINR2   0x000ee8       data     extern E:\c18v3.46\pic18-lt\cxx-framework\src\extended\proc\p18f46j50.asm
                  RPINR21   0x000efb       data     extern E:\c18v3.46\pic18-lt\cxx-framework\src\extended\proc\p18f46j50.asm
                  RPINR22   0x000efc       data     extern E:\c18v3.46\pic18-lt\cxx-framework\src\extended\proc\p18f46j50.asm
                  RPINR23   0x000efd       data     extern E:\c18v3.46\pic18-lt\cxx-framework\src\extended\proc\p18f46j50.asm
                  RPINR24   0x000efe       data     extern E:\c18v3.46\pic18-lt\cxx-framework\src\extended\proc\p18f46j50.asm
                   RPINR3   0x000ee9       data     extern E:\c18v3.46\pic18-lt\cxx-framework\src\extended\proc\p18f46j50.asm
                   RPINR4   0x000eea       data     extern E:\c18v3.46\pic18-lt\cxx-framework\src\extended\proc\p18f46j50.asm
                   RPINR6   0x000eec       data     extern E:\c18v3.46\pic18-lt\cxx-framework\src\extended\proc\p18f46j50.asm
                   RPINR7   0x000eed       data     extern E:\c18v3.46\pic18-lt\cxx-framework\src\extended\proc\p18f46j50.asm
                   RPINR8   0x000eee       data     extern E:\c18v3.46\pic18-lt\cxx-framework\src\extended\proc\p18f46j50.asm
                    RPOR0   0x000ec6       data     extern E:\c18v3.46\pic18-lt\cxx-framework\src\extended\proc\p18f46j50.asm
                    RPOR1   0x000ec7       data     extern E:\c18v3.46\pic18-lt\cxx-framework\src\extended\proc\p18f46j50.asm
                   RPOR10   0x000ed0       data     extern E:\c18v3.46\pic18-lt\cxx-framework\src\extended\proc\p18f46j50.asm
                   RPOR11   0x000ed1       data     extern E:\c18v3.46\pic18-lt\cxx-framework\src\extended\proc\p18f46j50.asm
                   RPOR12   0x000ed2       data     extern E:\c18v3.46\pic18-lt\cxx-framework\src\extended\proc\p18f46j50.asm
                   RPOR13   0x000ed3       data     extern E:\c18v3.46\pic18-lt\cxx-framework\src\extended\proc\p18f46j50.asm
                   RPOR17   0x000ed7       data     extern E:\c18v3.46\pic18-lt\cxx-framework\src\extended\proc\p18f46j50.asm
                   RPOR18   0x000ed8       data     extern E:\c18v3.46\pic18-lt\cxx-framework\src\extended\proc\p18f46j50.asm
                   RPOR19   0x000ed9       data     extern E:\c18v3.46\pic18-lt\cxx-framework\src\extended\proc\p18f46j50.asm
                    RPOR2   0x000ec8       data     extern E:\c18v3.46\pic18-lt\cxx-framework\src\extended\proc\p18f46j50.asm
                   RPOR20   0x000eda       data     extern E:\c18v3.46\pic18-lt\cxx-framework\src\extended\proc\p18f46j50.asm
                   RPOR21   0x000edb       data     extern E:\c18v3.46\pic18-lt\cxx-framework\src\extended\proc\p18f46j50.asm
                   RPOR22   0x000edc       data     extern E:\c18v3.46\pic18-lt\cxx-framework\src\extended\proc\p18f46j50.asm
                   RPOR23   0x000edd       data     extern E:\c18v3.46\pic18-lt\cxx-framework\src\extended\proc\p18f46j50.asm
                   RPOR24   0x000ede       data     extern E:\c18v3.46\pic18-lt\cxx-framework\src\extended\proc\p18f46j50.asm
                    RPOR3   0x000ec9       data     extern E:\c18v3.46\pic18-lt\cxx-framework\src\extended\proc\p18f46j50.asm
                    RPOR4   0x000eca       data     extern E:\c18v3.46\pic18-lt\cxx-framework\src\extended\proc\p18f46j50.asm
                    RPOR5   0x000ecb       data     extern E:\c18v3.46\pic18-lt\cxx-framework\src\extended\proc\p18f46j50.asm
                    RPOR6   0x000ecc       data     extern E:\c18v3.46\pic18-lt\cxx-framework\src\extended\proc\p18f46j50.asm
                    RPOR7   0x000ecd       data     extern E:\c18v3.46\pic18-lt\cxx-framework\src\extended\proc\p18f46j50.asm
                    RPOR8   0x000ece       data     extern E:\c18v3.46\pic18-lt\cxx-framework\src\extended\proc\p18f46j50.asm
                    RPOR9   0x000ecf       data     extern E:\c18v3.46\pic18-lt\cxx-framework\src\extended\proc\p18f46j50.asm
                   RTCCAL   0x000f3e       data     extern E:\c18v3.46\pic18-lt\cxx-framework\src\extended\proc\p18f46j50.asm
               RTCCALbits   0x000f3e       data     extern E:\c18v3.46\pic18-lt\cxx-framework\src\extended\proc\p18f46j50.asm
                   RTCCFG   0x000f3f       data     extern E:\c18v3.46\pic18-lt\cxx-framework\src\extended\proc\p18f46j50.asm
               RTCCFGbits   0x000f3f       data     extern E:\c18v3.46\pic18-lt\cxx-framework\src\extended\proc\p18f46j50.asm
                  RTCVALH   0x000f99       data     extern E:\c18v3.46\pic18-lt\cxx-framework\src\extended\proc\p18f46j50.asm
                  RTCVALL   0x000f98       data     extern E:\c18v3.46\pic18-lt\cxx-framework\src\extended\proc\p18f46j50.asm
                  RXADDRH   0x000f68       data     extern E:\c18v3.46\pic18-lt\cxx-framework\src\extended\proc\p18f46j50.asm
              RXADDRHbits   0x000f68       data     extern E:\c18v3.46\pic18-lt\cxx-framework\src\extended\proc\p18f46j50.asm
                  RXADDRL   0x000f69       data     extern E:\c18v3.46\pic18-lt\cxx-framework\src\extended\proc\p18f46j50.asm
           RouterFailures   0x000168       data     extern D:\microchip_solutions_v2013-06-15\Microchip\WirelessProtocols\MiWi\MiWi.c
             RoutingTable   0x000160       data     extern D:\microchip_solutions_v2013-06-15\Microchip\WirelessProtocols\MiWi\MiWi.c
                 RxBuffer   0x000e00       data     extern D:\microchip_solutions_v2013-06-15\Microchip\Transceivers\MRF24J40\MRF24J40.c
                    SPBRG   0x000fb0       data     extern E:\c18v3.46\pic18-lt\cxx-framework\src\extended\proc\p18f46j50.asm
                   SPBRG1   0x000fb0       data     extern E:\c18v3.46\pic18-lt\cxx-framework\src\extended\proc\p18f46j50.asm
                   SPBRG2   0x000fab       data     extern E:\c18v3.46\pic18-lt\cxx-framework\src\extended\proc\p18f46j50.asm
                   SPBRGH   0x000f7f       data     extern E:\c18v3.46\pic18-lt\cxx-framework\src\extended\proc\p18f46j50.asm
                  SPBRGH1   0x000f7f       data     extern E:\c18v3.46\pic18-lt\cxx-framework\src\extended\proc\p18f46j50.asm
                  SPBRGH2   0x000f7d       data     extern E:\c18v3.46\pic18-lt\cxx-framework\src\extended\proc\p18f46j50.asm
                  SSP1ADD   0x000fc8       data     extern E:\c18v3.46\pic18-lt\cxx-framework\src\extended\proc\p18f46j50.asm
              SSP1ADDbits   0x000fc8       data     extern E:\c18v3.46\pic18-lt\cxx-framework\src\extended\proc\p18f46j50.asm
                  SSP1BUF   0x000fc9       data     extern E:\c18v3.46\pic18-lt\cxx-framework\src\extended\proc\p18f46j50.asm
                 SSP1CON1   0x000fc6       data     extern E:\c18v3.46\pic18-lt\cxx-framework\src\extended\proc\p18f46j50.asm
             SSP1CON1bits   0x000fc6       data     extern E:\c18v3.46\pic18-lt\cxx-framework\src\extended\proc\p18f46j50.asm
                 SSP1CON2   0x000fc5       data     extern E:\c18v3.46\pic18-lt\cxx-framework\src\extended\proc\p18f46j50.asm
             SSP1CON2bits   0x000fc5       data     extern E:\c18v3.46\pic18-lt\cxx-framework\src\extended\proc\p18f46j50.asm
                 SSP1STAT   0x000fc7       data     extern E:\c18v3.46\pic18-lt\cxx-framework\src\extended\proc\p18f46j50.asm
             SSP1STATbits   0x000fc7       data     extern E:\c18v3.46\pic18-lt\cxx-framework\src\extended\proc\p18f46j50.asm
                  SSP2ADD   0x000f74       data     extern E:\c18v3.46\pic18-lt\cxx-framework\src\extended\proc\p18f46j50.asm
              SSP2ADDbits   0x000f74       data     extern E:\c18v3.46\pic18-lt\cxx-framework\src\extended\proc\p18f46j50.asm
                  SSP2BUF   0x000f75       data     extern E:\c18v3.46\pic18-lt\cxx-framework\src\extended\proc\p18f46j50.asm
                 SSP2CON1   0x000f72       data     extern E:\c18v3.46\pic18-lt\cxx-framework\src\extended\proc\p18f46j50.asm
             SSP2CON1bits   0x000f72       data     extern E:\c18v3.46\pic18-lt\cxx-framework\src\extended\proc\p18f46j50.asm
                 SSP2CON2   0x000f71       data     extern E:\c18v3.46\pic18-lt\cxx-framework\src\extended\proc\p18f46j50.asm
             SSP2CON2bits   0x000f71       data     extern E:\c18v3.46\pic18-lt\cxx-framework\src\extended\proc\p18f46j50.asm
                 SSP2STAT   0x000f73       data     extern E:\c18v3.46\pic18-lt\cxx-framework\src\extended\proc\p18f46j50.asm
             SSP2STATbits   0x000f73       data     extern E:\c18v3.46\pic18-lt\cxx-framework\src\extended\proc\p18f46j50.asm
                   SSPADD   0x000fc8       data     extern E:\c18v3.46\pic18-lt\cxx-framework\src\extended\proc\p18f46j50.asm
               SSPADDbits   0x000fc8       data     extern E:\c18v3.46\pic18-lt\cxx-framework\src\extended\proc\p18f46j50.asm
                   SSPBUF   0x000fc9       data     extern E:\c18v3.46\pic18-lt\cxx-framework\src\extended\proc\p18f46j50.asm
                  SSPCON1   0x000fc6       data     extern E:\c18v3.46\pic18-lt\cxx-framework\src\extended\proc\p18f46j50.asm
              SSPCON1bits   0x000fc6       data     extern E:\c18v3.46\pic18-lt\cxx-framework\src\extended\proc\p18f46j50.asm
                  SSPCON2   0x000fc5       data     extern E:\c18v3.46\pic18-lt\cxx-framework\src\extended\proc\p18f46j50.asm
              SSPCON2bits   0x000fc5       data     extern E:\c18v3.46\pic18-lt\cxx-framework\src\extended\proc\p18f46j50.asm
                  SSPSTAT   0x000fc7       data     extern E:\c18v3.46\pic18-lt\cxx-framework\src\extended\proc\p18f46j50.asm
              SSPSTATbits   0x000fc7       data     extern E:\c18v3.46\pic18-lt\cxx-framework\src\extended\proc\p18f46j50.asm
                  SST_Val   0x00005f       data     extern D:\microchip_solutions_v2013-06-15\MiWi DE Demo\MiWi Demo Kit\SelfTestMode.c
                   STATUS   0x000fd8       data     extern E:\c18v3.46\pic18-lt\cxx-framework\src\extended\proc\p18f46j50.asm
               STATUSbits   0x000fd8       data     extern E:\c18v3.46\pic18-lt\cxx-framework\src\extended\proc\p18f46j50.asm
                   STKPTR   0x000ffc       data     extern E:\c18v3.46\pic18-lt\cxx-framework\src\extended\proc\p18f46j50.asm
               STKPTRbits   0x000ffc       data     extern E:\c18v3.46\pic18-lt\cxx-framework\src\extended\proc\p18f46j50.asm
                    T0CON   0x000fd5       data     extern E:\c18v3.46\pic18-lt\cxx-framework\src\extended\proc\p18f46j50.asm
                T0CONbits   0x000fd5       data     extern E:\c18v3.46\pic18-lt\cxx-framework\src\extended\proc\p18f46j50.asm
                    T1CON   0x000fcd       data     extern E:\c18v3.46\pic18-lt\cxx-framework\src\extended\proc\p18f46j50.asm
                T1CONbits   0x000fcd       data     extern E:\c18v3.46\pic18-lt\cxx-framework\src\extended\proc\p18f46j50.asm
                   T1GCON   0x000f9a       data     extern E:\c18v3.46\pic18-lt\cxx-framework\src\extended\proc\p18f46j50.asm
               T1GCONbits   0x000f9a       data     extern E:\c18v3.46\pic18-lt\cxx-framework\src\extended\proc\p18f46j50.asm
                    T2CON   0x000fca       data     extern E:\c18v3.46\pic18-lt\cxx-framework\src\extended\proc\p18f46j50.asm
                T2CONbits   0x000fca       data     extern E:\c18v3.46\pic18-lt\cxx-framework\src\extended\proc\p18f46j50.asm
                    T3CON   0x000f79       data     extern E:\c18v3.46\pic18-lt\cxx-framework\src\extended\proc\p18f46j50.asm
                T3CONbits   0x000f79       data     extern E:\c18v3.46\pic18-lt\cxx-framework\src\extended\proc\p18f46j50.asm
                   T3GCON   0x000f97       data     extern E:\c18v3.46\pic18-lt\cxx-framework\src\extended\proc\p18f46j50.asm
               T3GCONbits   0x000f97       data     extern E:\c18v3.46\pic18-lt\cxx-framework\src\extended\proc\p18f46j50.asm
                    T4CON   0x000f76       data     extern E:\c18v3.46\pic18-lt\cxx-framework\src\extended\proc\p18f46j50.asm
                T4CONbits   0x000f76       data     extern E:\c18v3.46\pic18-lt\cxx-framework\src\extended\proc\p18f46j50.asm
                   TABLAT   0x000ff5       data     extern E:\c18v3.46\pic18-lt\cxx-framework\src\extended\proc\p18f46j50.asm
                   TBLPTR   0x000ff6       data     extern E:\c18v3.46\pic18-lt\cxx-framework\src\extended\proc\p18f46j50.asm
                  TBLPTRH   0x000ff7       data     extern E:\c18v3.46\pic18-lt\cxx-framework\src\extended\proc\p18f46j50.asm
                  TBLPTRL   0x000ff6       data     extern E:\c18v3.46\pic18-lt\cxx-framework\src\extended\proc\p18f46j50.asm
                  TBLPTRU   0x000ff8       data     extern E:\c18v3.46\pic18-lt\cxx-framework\src\extended\proc\p18f46j50.asm
                  TCLKCON   0x000f52       data     extern E:\c18v3.46\pic18-lt\cxx-framework\src\extended\proc\p18f46j50.asm
              TCLKCONbits   0x000f52       data     extern E:\c18v3.46\pic18-lt\cxx-framework\src\extended\proc\p18f46j50.asm
                    TMR0H   0x000fd7       data     extern E:\c18v3.46\pic18-lt\cxx-framework\src\extended\proc\p18f46j50.asm
                    TMR0L   0x000fd6       data     extern E:\c18v3.46\pic18-lt\cxx-framework\src\extended\proc\p18f46j50.asm
                    TMR1H   0x000fcf       data     extern E:\c18v3.46\pic18-lt\cxx-framework\src\extended\proc\p18f46j50.asm
                    TMR1L   0x000fce       data     extern E:\c18v3.46\pic18-lt\cxx-framework\src\extended\proc\p18f46j50.asm
                     TMR2   0x000fcc       data     extern E:\c18v3.46\pic18-lt\cxx-framework\src\extended\proc\p18f46j50.asm
                    TMR3H   0x000f7b       data     extern E:\c18v3.46\pic18-lt\cxx-framework\src\extended\proc\p18f46j50.asm
                    TMR3L   0x000f7a       data     extern E:\c18v3.46\pic18-lt\cxx-framework\src\extended\proc\p18f46j50.asm
                     TMR4   0x000f78       data     extern E:\c18v3.46\pic18-lt\cxx-framework\src\extended\proc\p18f46j50.asm
                      TOS   0x000ffd       data     extern E:\c18v3.46\pic18-lt\cxx-framework\src\extended\proc\p18f46j50.asm
                     TOSH   0x000ffe       data     extern E:\c18v3.46\pic18-lt\cxx-framework\src\extended\proc\p18f46j50.asm
                     TOSL   0x000ffd       data     extern E:\c18v3.46\pic18-lt\cxx-framework\src\extended\proc\p18f46j50.asm
                     TOSU   0x000fff       data     extern E:\c18v3.46\pic18-lt\cxx-framework\src\extended\proc\p18f46j50.asm
                    TRISA   0x000f92       data     extern E:\c18v3.46\pic18-lt\cxx-framework\src\extended\proc\p18f46j50.asm
                TRISAbits   0x000f92       data     extern E:\c18v3.46\pic18-lt\cxx-framework\src\extended\proc\p18f46j50.asm
                    TRISB   0x000f93       data     extern E:\c18v3.46\pic18-lt\cxx-framework\src\extended\proc\p18f46j50.asm
                TRISBbits   0x000f93       data     extern E:\c18v3.46\pic18-lt\cxx-framework\src\extended\proc\p18f46j50.asm
                    TRISC   0x000f94       data     extern E:\c18v3.46\pic18-lt\cxx-framework\src\extended\proc\p18f46j50.asm
                TRISCbits   0x000f94       data     extern E:\c18v3.46\pic18-lt\cxx-framework\src\extended\proc\p18f46j50.asm
                    TRISD   0x000f95       data     extern E:\c18v3.46\pic18-lt\cxx-framework\src\extended\proc\p18f46j50.asm
                TRISDbits   0x000f95       data     extern E:\c18v3.46\pic18-lt\cxx-framework\src\extended\proc\p18f46j50.asm
                    TRISE   0x000f96       data     extern E:\c18v3.46\pic18-lt\cxx-framework\src\extended\proc\p18f46j50.asm
                TRISEbits   0x000f96       data     extern E:\c18v3.46\pic18-lt\cxx-framework\src\extended\proc\p18f46j50.asm
                  TXADDRH   0x000f6a       data     extern E:\c18v3.46\pic18-lt\cxx-framework\src\extended\proc\p18f46j50.asm
              TXADDRHbits   0x000f6a       data     extern E:\c18v3.46\pic18-lt\cxx-framework\src\extended\proc\p18f46j50.asm
                  TXADDRL   0x000f6b       data     extern E:\c18v3.46\pic18-lt\cxx-framework\src\extended\proc\p18f46j50.asm
                    TXREG   0x000fae       data     extern E:\c18v3.46\pic18-lt\cxx-framework\src\extended\proc\p18f46j50.asm
                   TXREG1   0x000fae       data     extern E:\c18v3.46\pic18-lt\cxx-framework\src\extended\proc\p18f46j50.asm
                   TXREG2   0x000fa9       data     extern E:\c18v3.46\pic18-lt\cxx-framework\src\extended\proc\p18f46j50.asm
                    TXSTA   0x000fad       data     extern E:\c18v3.46\pic18-lt\cxx-framework\src\extended\proc\p18f46j50.asm
                   TXSTA1   0x000fad       data     extern E:\c18v3.46\pic18-lt\cxx-framework\src\extended\proc\p18f46j50.asm
               TXSTA1bits   0x000fad       data     extern E:\c18v3.46\pic18-lt\cxx-framework\src\extended\proc\p18f46j50.asm
                   TXSTA2   0x000fa8       data     extern E:\c18v3.46\pic18-lt\cxx-framework\src\extended\proc\p18f46j50.asm
               TXSTA2bits   0x000fa8       data     extern E:\c18v3.46\pic18-lt\cxx-framework\src\extended\proc\p18f46j50.asm
                TXSTAbits   0x000fad       data     extern E:\c18v3.46\pic18-lt\cxx-framework\src\extended\proc\p18f46j50.asm
                 TxBuffer   0x000000       data     extern D:\microchip_solutions_v2013-06-15\Microchip\WirelessProtocols\MiWi\MiWi.c
                   TxData   0x000155       data     extern D:\microchip_solutions_v2013-06-15\Microchip\WirelessProtocols\MiWi\MiWi.c
                    UADDR   0x000f38       data     extern E:\c18v3.46\pic18-lt\cxx-framework\src\extended\proc\p18f46j50.asm
                UADDRbits   0x000f38       data     extern E:\c18v3.46\pic18-lt\cxx-framework\src\extended\proc\p18f46j50.asm
                     UCFG   0x000f39       data     extern E:\c18v3.46\pic18-lt\cxx-framework\src\extended\proc\p18f46j50.asm
                 UCFGbits   0x000f39       data     extern E:\c18v3.46\pic18-lt\cxx-framework\src\extended\proc\p18f46j50.asm
                     UCON   0x000f65       data     extern E:\c18v3.46\pic18-lt\cxx-framework\src\extended\proc\p18f46j50.asm
                 UCONbits   0x000f65       data     extern E:\c18v3.46\pic18-lt\cxx-framework\src\extended\proc\p18f46j50.asm
                     UEIE   0x000f37       data     extern E:\c18v3.46\pic18-lt\cxx-framework\src\extended\proc\p18f46j50.asm
                 UEIEbits   0x000f37       data     extern E:\c18v3.46\pic18-lt\cxx-framework\src\extended\proc\p18f46j50.asm
                     UEIR   0x000f63       data     extern E:\c18v3.46\pic18-lt\cxx-framework\src\extended\proc\p18f46j50.asm
                 UEIRbits   0x000f63       data     extern E:\c18v3.46\pic18-lt\cxx-framework\src\extended\proc\p18f46j50.asm
                     UEP0   0x000f26       data     extern E:\c18v3.46\pic18-lt\cxx-framework\src\extended\proc\p18f46j50.asm
                 UEP0bits   0x000f26       data     extern E:\c18v3.46\pic18-lt\cxx-framework\src\extended\proc\p18f46j50.asm
                     UEP1   0x000f27       data     extern E:\c18v3.46\pic18-lt\cxx-framework\src\extended\proc\p18f46j50.asm
                    UEP10   0x000f30       data     extern E:\c18v3.46\pic18-lt\cxx-framework\src\extended\proc\p18f46j50.asm
                UEP10bits   0x000f30       data     extern E:\c18v3.46\pic18-lt\cxx-framework\src\extended\proc\p18f46j50.asm
                    UEP11   0x000f31       data     extern E:\c18v3.46\pic18-lt\cxx-framework\src\extended\proc\p18f46j50.asm
                UEP11bits   0x000f31       data     extern E:\c18v3.46\pic18-lt\cxx-framework\src\extended\proc\p18f46j50.asm
                    UEP12   0x000f32       data     extern E:\c18v3.46\pic18-lt\cxx-framework\src\extended\proc\p18f46j50.asm
                UEP12bits   0x000f32       data     extern E:\c18v3.46\pic18-lt\cxx-framework\src\extended\proc\p18f46j50.asm
                    UEP13   0x000f33       data     extern E:\c18v3.46\pic18-lt\cxx-framework\src\extended\proc\p18f46j50.asm
                UEP13bits   0x000f33       data     extern E:\c18v3.46\pic18-lt\cxx-framework\src\extended\proc\p18f46j50.asm
                    UEP14   0x000f34       data     extern E:\c18v3.46\pic18-lt\cxx-framework\src\extended\proc\p18f46j50.asm
                UEP14bits   0x000f34       data     extern E:\c18v3.46\pic18-lt\cxx-framework\src\extended\proc\p18f46j50.asm
                    UEP15   0x000f35       data     extern E:\c18v3.46\pic18-lt\cxx-framework\src\extended\proc\p18f46j50.asm
                UEP15bits   0x000f35       data     extern E:\c18v3.46\pic18-lt\cxx-framework\src\extended\proc\p18f46j50.asm
                 UEP1bits   0x000f27       data     extern E:\c18v3.46\pic18-lt\cxx-framework\src\extended\proc\p18f46j50.asm
                     UEP2   0x000f28       data     extern E:\c18v3.46\pic18-lt\cxx-framework\src\extended\proc\p18f46j50.asm
                 UEP2bits   0x000f28       data     extern E:\c18v3.46\pic18-lt\cxx-framework\src\extended\proc\p18f46j50.asm
                     UEP3   0x000f29       data     extern E:\c18v3.46\pic18-lt\cxx-framework\src\extended\proc\p18f46j50.asm
                 UEP3bits   0x000f29       data     extern E:\c18v3.46\pic18-lt\cxx-framework\src\extended\proc\p18f46j50.asm
                     UEP4   0x000f2a       data     extern E:\c18v3.46\pic18-lt\cxx-framework\src\extended\proc\p18f46j50.asm
                 UEP4bits   0x000f2a       data     extern E:\c18v3.46\pic18-lt\cxx-framework\src\extended\proc\p18f46j50.asm
                     UEP5   0x000f2b       data     extern E:\c18v3.46\pic18-lt\cxx-framework\src\extended\proc\p18f46j50.asm
                 UEP5bits   0x000f2b       data     extern E:\c18v3.46\pic18-lt\cxx-framework\src\extended\proc\p18f46j50.asm
                     UEP6   0x000f2c       data     extern E:\c18v3.46\pic18-lt\cxx-framework\src\extended\proc\p18f46j50.asm
                 UEP6bits   0x000f2c       data     extern E:\c18v3.46\pic18-lt\cxx-framework\src\extended\proc\p18f46j50.asm
                     UEP7   0x000f2d       data     extern E:\c18v3.46\pic18-lt\cxx-framework\src\extended\proc\p18f46j50.asm
                 UEP7bits   0x000f2d       data     extern E:\c18v3.46\pic18-lt\cxx-framework\src\extended\proc\p18f46j50.asm
                     UEP8   0x000f2e       data     extern E:\c18v3.46\pic18-lt\cxx-framework\src\extended\proc\p18f46j50.asm
                 UEP8bits   0x000f2e       data     extern E:\c18v3.46\pic18-lt\cxx-framework\src\extended\proc\p18f46j50.asm
                     UEP9   0x000f2f       data     extern E:\c18v3.46\pic18-lt\cxx-framework\src\extended\proc\p18f46j50.asm
                 UEP9bits   0x000f2f       data     extern E:\c18v3.46\pic18-lt\cxx-framework\src\extended\proc\p18f46j50.asm
                     UFRM   0x000f60       data     extern E:\c18v3.46\pic18-lt\cxx-framework\src\extended\proc\p18f46j50.asm
                    UFRMH   0x000f61       data     extern E:\c18v3.46\pic18-lt\cxx-framework\src\extended\proc\p18f46j50.asm
                UFRMHbits   0x000f61       data     extern E:\c18v3.46\pic18-lt\cxx-framework\src\extended\proc\p18f46j50.asm
                    UFRML   0x000f60       data     extern E:\c18v3.46\pic18-lt\cxx-framework\src\extended\proc\p18f46j50.asm
                UFRMLbits   0x000f60       data     extern E:\c18v3.46\pic18-lt\cxx-framework\src\extended\proc\p18f46j50.asm
                      UIE   0x000f36       data     extern E:\c18v3.46\pic18-lt\cxx-framework\src\extended\proc\p18f46j50.asm
                  UIEbits   0x000f36       data     extern E:\c18v3.46\pic18-lt\cxx-framework\src\extended\proc\p18f46j50.asm
                      UIR   0x000f62       data     extern E:\c18v3.46\pic18-lt\cxx-framework\src\extended\proc\p18f46j50.asm
                  UIRbits   0x000f62       data     extern E:\c18v3.46\pic18-lt\cxx-framework\src\extended\proc\p18f46j50.asm
                    USTAT   0x000f64       data     extern E:\c18v3.46\pic18-lt\cxx-framework\src\extended\proc\p18f46j50.asm
                USTATbits   0x000f64       data     extern E:\c18v3.46\pic18-lt\cxx-framework\src\extended\proc\p18f46j50.asm
                   WDTCON   0x000fc0       data     extern E:\c18v3.46\pic18-lt\cxx-framework\src\extended\proc\p18f46j50.asm
               WDTCONbits   0x000fc0       data     extern E:\c18v3.46\pic18-lt\cxx-framework\src\extended\proc\p18f46j50.asm
                     WREG   0x000fe8       data     extern E:\c18v3.46\pic18-lt\cxx-framework\src\extended\proc\p18f46j50.asm
                __RETVAL0   0x000241       data     extern E:\c18v3.46\pic18-lt\cxx-framework\src\extended\math\cmath18.asm
                __RETVAL1   0x000242       data     extern E:\c18v3.46\pic18-lt\cxx-framework\src\extended\math\cmath18.asm
                __RETVAL2   0x000243       data     extern E:\c18v3.46\pic18-lt\cxx-framework\src\extended\math\cmath18.asm
                __RETVAL3   0x000244       data     extern E:\c18v3.46\pic18-lt\cxx-framework\src\extended\math\cmath18.asm
                  __tmp_0   0x000234       data     static E:\c18v3.46\pic18-lt\cxx-framework\src\extended\stdclib\vfprintf.c
                  __tmp_0   0x000234       data     static D:\microchip_solutions_v2013-06-15\Microchip\WirelessProtocols\MiWi\MiWi.c
                  __tmp_0   0x000234       data     static D:\microchip_solutions_v2013-06-15\Microchip\Common\TimeDelay.c
                  __tmp_0   0x000234       data     static D:\microchip_solutions_v2013-06-15\MiWi DE Demo\MiWi Demo Kit\SelfTestMode.c
                  __tmp_0   0x000234       data     static D:\microchip_solutions_v2013-06-15\MiWi DE Demo\MiWi Demo Kit\MAC_EEProm.c
                  __tmp_0   0x000234       data     static D:\microchip_solutions_v2013-06-15\MiWi DE Demo\MiWi Demo Kit\BSP_MiWiDemoBd.c
                  __tmp_0   0x000234       data     static D:\microchip_solutions_v2013-06-15\MiWi DE Demo\MiWi Demo Kit\RangeDemo.c
                  __tmp_0   0x000234       data     static D:\microchip_solutions_v2013-06-15\MiWi DE Demo\MiWi Demo Kit\TempDemo.c
                  __tmp_0   0x000234       data     static D:\microchip_solutions_v2013-06-15\MiWi DE Demo\MiWi Demo Kit\Demo.c
                  __tmp_0   0x000234       data     static D:\microchip_solutions_v2013-06-15\Microchip\WirelessProtocols\NVM.c
                  __tmp_0   0x000234       data     static D:\microchip_solutions_v2013-06-15\Microchip\Transceivers\MRF24J40\MRF24J40.c
                  __tmp_1   0x000245       data     static D:\microchip_solutions_v2013-06-15\Microchip\Transceivers\MRF24J40\MRF24J40.c
                curr_byte   0x0000ef       data     static E:\c18v3.46\pic18-lt\cxx-framework\src\extended\startup\c018i_e.c
               curr_entry   0x0000f1       data     static E:\c18v3.46\pic18-lt\cxx-framework\src\extended\startup\c018i_e.c
           currentChannel   0x000eba       data     extern D:\microchip_solutions_v2013-06-15\Microchip\WirelessProtocols\MiWi\MiWi.c
                 data_ptr   0x0000f3       data     static E:\c18v3.46\pic18-lt\cxx-framework\src\extended\startup\c018i_e.c
              defaultHops   0x000ebc       data     extern D:\microchip_solutions_v2013-06-15\Microchip\WirelessProtocols\MiWi\MiWi.c
           failureCounter   0x00024e       data     extern D:\microchip_solutions_v2013-06-15\Microchip\Transceivers\MRF24J40\MRF24J40.c
                init_case   0x000ebf       data     extern D:\microchip_solutions_v2013-06-15\MiWi DE Demo\MiWi Demo Kit\SelfTestMode.c
        knownCoordinators   0x000170       data     extern D:\microchip_solutions_v2013-06-15\Microchip\WirelessProtocols\MiWi\MiWi.c
                myChannel   0x000249       data     extern D:\microchip_solutions_v2013-06-15\MiWi DE Demo\MiWi Demo Kit\Demo.c
            myLongAddress   0x000eb2       data     extern D:\microchip_solutions_v2013-06-15\Microchip\WirelessProtocols\MiWi\MiWi.c
         myNetworkAddress   0x0001fb       data     extern D:\microchip_solutions_v2013-06-15\Microchip\Transceivers\MRF24J40\MRF24J40.c
                  myPANID   0x000158       data     extern D:\microchip_solutions_v2013-06-15\Microchip\WirelessProtocols\MiWi\MiWi.c
                 myParent   0x00015a       data     extern D:\microchip_solutions_v2013-06-15\Microchip\WirelessProtocols\MiWi\MiWi.c
           myShortAddress   0x000156       data     extern D:\microchip_solutions_v2013-06-15\Microchip\WirelessProtocols\MiWi\MiWi.c
           nextEEPosition   0x000232       data     extern D:\microchip_solutions_v2013-06-15\Microchip\WirelessProtocols\NVM.c
              nvmConnMode   0x000222       data     extern D:\microchip_solutions_v2013-06-15\Microchip\WirelessProtocols\NVM.c
       nvmConnectionTable   0x000224       data     extern D:\microchip_solutions_v2013-06-15\Microchip\WirelessProtocols\NVM.c
        nvmCurrentChannel   0x000220       data     extern D:\microchip_solutions_v2013-06-15\Microchip\WirelessProtocols\NVM.c
             nvmDelayTick   0x0001bf       data     extern D:\microchip_solutions_v2013-06-15\Microchip\WirelessProtocols\MiWi\MiWi.c
     nvmKnownCoordinators   0x00022e       data     extern D:\microchip_solutions_v2013-06-15\Microchip\WirelessProtocols\NVM.c
               nvmMyPANID   0x00021e       data     extern D:\microchip_solutions_v2013-06-15\Microchip\WirelessProtocols\NVM.c
              nvmMyParent   0x00022a       data     extern D:\microchip_solutions_v2013-06-15\Microchip\WirelessProtocols\NVM.c
        nvmMyShortAddress   0x000228       data     extern D:\microchip_solutions_v2013-06-15\Microchip\WirelessProtocols\NVM.c
       nvmOutFrameCounter   0x000226       data     extern D:\microchip_solutions_v2013-06-15\Microchip\WirelessProtocols\NVM.c
                  nvmRole   0x000230       data     extern D:\microchip_solutions_v2013-06-15\Microchip\WirelessProtocols\NVM.c
          nvmRoutingTable   0x00022c       data     extern D:\microchip_solutions_v2013-06-15\Microchip\WirelessProtocols\NVM.c
           openSocketInfo   0x000172       data     extern D:\microchip_solutions_v2013-06-15\Microchip\WirelessProtocols\MiWi\MiWi.c
                     prom   0x0000ec       data     static E:\c18v3.46\pic18-lt\cxx-framework\src\extended\startup\c018i_e.c
                     role   0x000171       data     extern D:\microchip_solutions_v2013-06-15\Microchip\WirelessProtocols\MiWi\MiWi.c
                rxMessage   0x000101       data     extern D:\microchip_solutions_v2013-06-15\Microchip\WirelessProtocols\MiWi\MiWi.c
         switch0PressTime   0x0000f7       data     extern D:\microchip_solutions_v2013-06-15\MiWi DE Demo\MiWi Demo Kit\BSP_MiWiDemoBd.c
           switch0Pressed   0x0000f6       data     extern D:\microchip_solutions_v2013-06-15\MiWi DE Demo\MiWi Demo Kit\BSP_MiWiDemoBd.c
         switch1PressTime   0x0000fc       data     extern D:\microchip_solutions_v2013-06-15\MiWi DE Demo\MiWi Demo Kit\BSP_MiWiDemoBd.c
           switch1Pressed   0x0000fb       data     extern D:\microchip_solutions_v2013-06-15\MiWi DE Demo\MiWi Demo Kit\BSP_MiWiDemoBd.c
               switch_val   0x00005b       data     extern D:\microchip_solutions_v2013-06-15\MiWi DE Demo\MiWi Demo Kit\SelfTestMode.c
              tempAverage   0x00023c       data     extern D:\microchip_solutions_v2013-06-15\MiWi DE Demo\MiWi Demo Kit\TempDemo.c
          tempLongAddress   0x000148       data     extern D:\microchip_solutions_v2013-06-15\Microchip\WirelessProtocols\MiWi\MiWi.c
           tempNodeStatus   0x000154       data     extern D:\microchip_solutions_v2013-06-15\Microchip\WirelessProtocols\MiWi\MiWi.c
                tempPANID   0x000152       data     extern D:\microchip_solutions_v2013-06-15\Microchip\WirelessProtocols\MiWi\MiWi.c
               tempRemote   0x00023e       data     extern D:\microchip_solutions_v2013-06-15\MiWi DE Demo\MiWi Demo Kit\TempDemo.c
         tempShortAddress   0x000150       data     extern D:\microchip_solutions_v2013-06-15\Microchip\WirelessProtocols\MiWi\MiWi.c
          timerExtension1   0x0001fe       data     extern D:\microchip_solutions_v2013-06-15\Microchip\WirelessProtocols\SymbolTime.c
          timerExtension2   0x0001ff       data     extern D:\microchip_solutions_v2013-06-15\Microchip\WirelessProtocols\SymbolTime.c
          tmpFrameCounter   0x0001f3       data     extern D:\microchip_solutions_v2013-06-15\Microchip\Transceivers\MRF24J40\MRF24J40.c
     tmpSourceLongAddress   0x0001eb       data     extern D:\microchip_solutions_v2013-06-15\Microchip\Transceivers\MRF24J40\MRF24J40.c



                              Symbols - Sorted by Address
                     Name    Address   Location    Storage File                     
                ---------  ---------  ---------  --------- ---------                
                   _entry   0x000000    program     extern E:\c18v3.46\pic18-lt\cxx-framework\src\extended\startup\c018i_e.c
       ___return_lbl00000   0x000004    program     static                          
          mySecurityLevel   0x000006    program     extern D:\microchip_solutions_v2013-06-15\Microchip\Transceivers\MRF24J40\MRF24J40.c
      myKeySequenceNumber   0x000007    program     extern D:\microchip_solutions_v2013-06-15\Microchip\Transceivers\MRF24J40\MRF24J40.c
               HighVector   0x000008    program     extern D:\microchip_solutions_v2013-06-15\Microchip\Transceivers\MRF24J40\MRF24J40.c
       ___return_lbl00215   0x00000c    program     static                          
               _user_putc   0x00000e    program     extern E:\c18v3.46\pic18-lt\cxx-framework\src\extended\stdclib\_user_putc.c
                   __init   0x000010    program     extern E:\c18v3.46\pic18-lt\cxx-framework\src\extended\stdclib\__init.c
                LowVector   0x000018    program     extern D:\microchip_solutions_v2013-06-15\Microchip\Transceivers\MRF24J40\MRF24J40.c
       ___return_lbl00216   0x00001c    program     static                          
            mySecurityKey   0x00002e    program     extern D:\microchip_solutions_v2013-06-15\Microchip\Transceivers\MRF24J40\MRF24J40.c
                 MacroNop   0x00007c    program     extern D:\microchip_solutions_v2013-06-15\Microchip\WirelessProtocols\MiWi\MiWi.c
       ___return_lbl00000   0x00007e    program     static                          
          BroadcastJitter   0x000080    program     extern D:\microchip_solutions_v2013-06-15\Microchip\WirelessProtocols\MiWi\MiWi.c
                MiWiTasks   0x000156    program     extern D:\microchip_solutions_v2013-06-15\Microchip\WirelessProtocols\MiWi\MiWi.c
       ___case_3_lbl00115   0x000d04    program     static                          
       ___case_1_lbl00182   0x00106a    program     static                          
       ___case_7_lbl00180   0x0019c2    program     static                          
      ___default_lbl00181   0x001a00    program     static                          
   ___switchexit_lbl00116   0x001a02    program     static                          
      ___default_lbl00183   0x001a04    program     static                          
   ___switchexit_lbl00012   0x001a06    program     static                          
           ___if_lbl00185   0x001a10    program     static                          
       ___return_lbl00007   0x001cac    program     static                          
             RouteMessage   0x001cb4    program     extern D:\microchip_solutions_v2013-06-15\Microchip\WirelessProtocols\MiWi\MiWi.c
            SendMACPacket   0x00216e    program     extern D:\microchip_solutions_v2013-06-15\Microchip\WirelessProtocols\MiWi\MiWi.c
     findNextNetworkEntry   0x002234    program     extern D:\microchip_solutions_v2013-06-15\Microchip\WirelessProtocols\MiWi\MiWi.c
           DumpConnection   0x00227e    program     extern D:\microchip_solutions_v2013-06-15\Microchip\WirelessProtocols\MiWi\MiWi.c
               OpenSocket   0x002468    program     extern D:\microchip_solutions_v2013-06-15\Microchip\WirelessProtocols\MiWi\MiWi.c
    SearchForShortAddress   0x0027f6    program     extern D:\microchip_solutions_v2013-06-15\Microchip\WirelessProtocols\MiWi\MiWi.c
               SendBeacon   0x00289a    program     extern D:\microchip_solutions_v2013-06-15\Microchip\WirelessProtocols\MiWi\MiWi.c
     SearchForLongAddress   0x002986    program     extern D:\microchip_solutions_v2013-06-15\Microchip\WirelessProtocols\MiWi\MiWi.c
    AddNodeToNetworkTable   0x002a4a    program     extern D:\microchip_solutions_v2013-06-15\Microchip\WirelessProtocols\MiWi\MiWi.c
            isSameAddress   0x002b68    program     extern D:\microchip_solutions_v2013-06-15\Microchip\WirelessProtocols\MiWi\MiWi.c
       MiApp_ProtocolInit   0x002bb4    program     extern D:\microchip_solutions_v2013-06-15\Microchip\WirelessProtocols\MiWi\MiWi.c
         MiApp_SetChannel   0x002f6c    program     extern D:\microchip_solutions_v2013-06-15\Microchip\WirelessProtocols\MiWi\MiWi.c
     MiApp_ConnectionMode   0x002fb6    program     extern D:\microchip_solutions_v2013-06-15\Microchip\WirelessProtocols\MiWi\MiWi.c
   MiApp_SearchConnection   0x00300a    program     extern D:\microchip_solutions_v2013-06-15\Microchip\WirelessProtocols\MiWi\MiWi.c
MiApp_EstablishConnection   0x00320a    program     extern D:\microchip_solutions_v2013-06-15\Microchip\WirelessProtocols\MiWi\MiWi.c
   MiApp_MessageAvailable   0x0036fe    program     extern D:\microchip_solutions_v2013-06-15\Microchip\WirelessProtocols\MiWi\MiWi.c
     MiApp_DiscardMessage   0x003710    program     extern D:\microchip_solutions_v2013-06-15\Microchip\WirelessProtocols\MiWi\MiWi.c
    MiApp_BroadcastPacket   0x00371a    program     extern D:\microchip_solutions_v2013-06-15\Microchip\WirelessProtocols\MiWi\MiWi.c
  MiApp_UnicastConnection   0x0037b0    program     extern D:\microchip_solutions_v2013-06-15\Microchip\WirelessProtocols\MiWi\MiWi.c
     MiApp_UnicastAddress   0x0039f0    program     extern D:\microchip_solutions_v2013-06-15\Microchip\WirelessProtocols\MiWi\MiWi.c
    MiApp_StartConnection   0x003e78    program     extern D:\microchip_solutions_v2013-06-15\Microchip\WirelessProtocols\MiWi\MiWi.c
   MiApp_RemoveConnection   0x003f6c    program     extern D:\microchip_solutions_v2013-06-15\Microchip\WirelessProtocols\MiWi\MiWi.c
        PHYSetLongRAMAddr   0x004526    program     extern D:\microchip_solutions_v2013-06-15\Microchip\Transceivers\MRF24J40\MRF24J40.c
       PHYSetShortRAMAddr   0x0045aa    program     extern D:\microchip_solutions_v2013-06-15\Microchip\Transceivers\MRF24J40\MRF24J40.c
       PHYGetShortRAMAddr   0x0045ec    program     extern D:\microchip_solutions_v2013-06-15\Microchip\Transceivers\MRF24J40\MRF24J40.c
        PHYGetLongRAMAddr   0x00462e    program     extern D:\microchip_solutions_v2013-06-15\Microchip\Transceivers\MRF24J40\MRF24J40.c
             InitMRF24J40   0x0046ba    program     extern D:\microchip_solutions_v2013-06-15\Microchip\Transceivers\MRF24J40\MRF24J40.c
     MiMAC_ReceivedPacket   0x004874    program     extern D:\microchip_solutions_v2013-06-15\Microchip\Transceivers\MRF24J40\MRF24J40.c
           ___if_lbl00068   0x005278    program     static                          
      MiMAC_DiscardPacket   0x005284    program     extern D:\microchip_solutions_v2013-06-15\Microchip\Transceivers\MRF24J40\MRF24J40.c
         MiMAC_SendPacket   0x0052a6    program     extern D:\microchip_solutions_v2013-06-15\Microchip\Transceivers\MRF24J40\MRF24J40.c
         MiMAC_SetChannel   0x005840    program     extern D:\microchip_solutions_v2013-06-15\Microchip\Transceivers\MRF24J40\MRF24J40.c
           MiMAC_SetPower   0x00589c    program     extern D:\microchip_solutions_v2013-06-15\Microchip\Transceivers\MRF24J40\MRF24J40.c
      MiMAC_SetAltAddress   0x005932    program     extern D:\microchip_solutions_v2013-06-15\Microchip\Transceivers\MRF24J40\MRF24J40.c
               MiMAC_Init   0x0059b4    program     extern D:\microchip_solutions_v2013-06-15\Microchip\Transceivers\MRF24J40\MRF24J40.c
                  HighISR   0x005a98    program     extern D:\microchip_solutions_v2013-06-15\Microchip\Transceivers\MRF24J40\MRF24J40.c
                     main   0x00609c    program     extern D:\microchip_solutions_v2013-06-15\MiWi DE Demo\MiWi Demo Kit\Demo.c
        ___while_lbl00001   0x006138    program     static                          
               __tmplbl_0   0x0061b4    program     static                          
           ___if_lbl00003   0x0061b8    program     static                          
           ___if_lbl00004   0x0061ce    program     static                          
        ___while_lbl00002   0x0061d0    program     static                          
             CreateorJoin   0x0061d4    program     static                          
        ___while_lbl00005   0x006222    program     static                          
         ___else_lbl00017   0x006230    program     static                          
        ___while_lbl00007   0x006240    program     static                          
        ___while_lbl00009   0x006282    program     static                          
         ___else_lbl00014   0x006296    program     static                          
           ___if_lbl00011   0x0062aa    program     static                          
           ___if_lbl00013   0x0062ac    program     static                          
           ___if_lbl00012   0x0062ac    program     static                          
        ___while_lbl00010   0x0062ae    program     static                          
        ___while_lbl00008   0x0062b0    program     static                          
           ___if_lbl00015   0x0062b2    program     static                          
           ___if_lbl00016   0x0062b2    program     static                          
        ___while_lbl00006   0x0062b4    program     static                          
           ___if_lbl00018   0x0062da    program     static                          
        ___while_lbl00019   0x006302    program     static                          
        ___while_lbl00021   0x0063b4    program     static                          
           ___if_lbl00023   0x0063c6    program     static                          
        ___while_lbl00022   0x0063c8    program     static                          
           ___if_lbl00024   0x0063ca    program     static                          
         ___else_lbl00030   0x00644e    program     static                          
              __tmplbl_29   0x006488    program     static                          
         ___else_lbl00028   0x0064a6    program     static                          
         ___else_lbl00026   0x006502    program     static                          
           ___if_lbl00025   0x006544    program     static                          
           ___if_lbl00027   0x006544    program     static                          
           ___if_lbl00029   0x006544    program     static                          
          ___for_lbl00065   0x00654c    program     static                          
          ___for_lbl00036   0x00655e    program     static                          
               __tmplbl_4   0x0065ac    program     static                          
               __tmplbl_3   0x0065b0    program     static                          
               __tmplbl_2   0x006606    program     static                          
               __tmplbl_1   0x00660a    program     static                          
           ___if_lbl00035   0x006618    program     static                          
          ___for_lbl00033   0x006618    program     static                          
          ___for_lbl00034   0x00661c    program     static                          
           ___if_lbl00037   0x006628    program     static                          
           ___if_lbl00039   0x00662a    program     static                          
           ___if_lbl00038   0x00662a    program     static                          
        ___while_lbl00040   0x0066ac    program     static                          
          ___for_lbl00045   0x0066c2    program     static                          
               __tmplbl_8   0x006718    program     static                          
               __tmplbl_7   0x00671c    program     static                          
               __tmplbl_6   0x006772    program     static                          
               __tmplbl_5   0x006776    program     static                          
           ___if_lbl00044   0x006780    program     static                          
          ___for_lbl00042   0x006780    program     static                          
          ___for_lbl00043   0x006784    program     static                          
          ___for_lbl00056   0x006826    program     static                          
              __tmplbl_12   0x006876    program     static                          
              __tmplbl_11   0x00687a    program     static                          
              __tmplbl_10   0x0068d0    program     static                          
               __tmplbl_9   0x0068d4    program     static                          
        ___while_lbl00048   0x006958    program     static                          
         ___else_lbl00054   0x00696e    program     static                          
              __tmplbl_14   0x00697a    program     static                          
              __tmplbl_13   0x006980    program     static                          
           ___if_lbl00051   0x006984    program     static                          
           ___if_lbl00052   0x006986    program     static                          
           ___if_lbl00053   0x006986    program     static                          
           ___if_lbl00055   0x006988    program     static                          
          ___for_lbl00046   0x006988    program     static                          
        ___while_lbl00049   0x006988    program     static                          
           ___if_lbl00057   0x00698c    program     static                          
          ___for_lbl00047   0x00698c    program     static                          
         ___else_lbl00059   0x0069b8    program     static                          
           ___if_lbl00058   0x0069ce    program     static                          
         ___else_lbl00063   0x006a1c    program     static                          
           ___if_lbl00060   0x006a2c    program     static                          
           ___if_lbl00062   0x006a2e    program     static                          
           ___if_lbl00061   0x006a2e    program     static                          
        ___while_lbl00041   0x006a30    program     static                          
          ___for_lbl00031   0x006a36    program     static                          
           ___if_lbl00064   0x006a36    program     static                          
          ___for_lbl00032   0x006a3a    program     static                          
         ___else_lbl00067   0x006a3e    program     static                          
           ___if_lbl00066   0x006a50    program     static                          
           ___if_lbl00068   0x006a50    program     static                          
           ___if_lbl00069   0x006a52    program     static                          
        ___while_lbl00020   0x006a52    program     static                          
        ___while_lbl00070   0x006a52    program     static                          
        ___while_lbl00072   0x006a70    program     static                          
              __tmplbl_16   0x006aae    program     static                          
              __tmplbl_15   0x006ac4    program     static                          
           ___if_lbl00076   0x006ac6    program     static                          
           ___if_lbl00075   0x006ac6    program     static                          
          ___for_lbl00082   0x006ace    program     static                          
              __tmplbl_18   0x006b32    program     static                          
              __tmplbl_17   0x006b66    program     static                          
          ___for_lbl00077   0x006b6c    program     static                          
           ___if_lbl00080   0x006b6c    program     static                          
           ___if_lbl00081   0x006b6c    program     static                          
           ___if_lbl00083   0x006b70    program     static                          
          ___for_lbl00078   0x006b70    program     static                          
           ___if_lbl00084   0x006b74    program     static                          
           ___if_lbl00085   0x006ba8    program     static                          
              __tmplbl_20   0x006bae    program     static                          
              __tmplbl_19   0x006bb4    program     static                          
          ___for_lbl00091   0x006bbc    program     static                          
              __tmplbl_22   0x006be4    program     static                          
              __tmplbl_21   0x006c06    program     static                          
          ___for_lbl00087   0x006c08    program     static                          
           ___if_lbl00090   0x006c08    program     static                          
          ___for_lbl00088   0x006c0c    program     static                          
          ___for_lbl00102   0x006c2c    program     static                          
        ___while_lbl00094   0x006cd8    program     static                          
         ___else_lbl00099   0x006cee    program     static                          
           ___if_lbl00096   0x006cfe    program     static                          
           ___if_lbl00097   0x006d00    program     static                          
           ___if_lbl00098   0x006d00    program     static                          
        ___while_lbl00095   0x006d02    program     static                          
           ___if_lbl00100   0x006d02    program     static                          
           ___if_lbl00101   0x006d08    program     static                          
          ___for_lbl00092   0x006d08    program     static                          
           ___if_lbl00103   0x006d0c    program     static                          
          ___for_lbl00093   0x006d0c    program     static                          
           ___if_lbl00104   0x006d3a    program     static                          
           ___if_lbl00105   0x006d4a    program     static                          
         ___else_lbl00110   0x006d62    program     static                          
         ___else_lbl00108   0x006d7a    program     static                          
           ___if_lbl00111   0x006d92    program     static                          
           ___if_lbl00109   0x006d92    program     static                          
           ___if_lbl00107   0x006d92    program     static                          
           ___if_lbl00106   0x006d92    program     static                          
              __tmplbl_24   0x006d98    program     static                          
              __tmplbl_25   0x006d9c    program     static                          
              __tmplbl_23   0x006da0    program     static                          
           ___if_lbl00114   0x006dca    program     static                          
              __tmplbl_27   0x006dd0    program     static                          
              __tmplbl_28   0x006dd4    program     static                          
              __tmplbl_26   0x006dda    program     static                          
           ___if_lbl00117   0x006e62    program     static                          
           ___if_lbl00118   0x006e6c    program     static                          
        ___while_lbl00073   0x006e6e    program     static                          
       ___return_lbl00000   0x006e70    program     static                          
        ___while_lbl00071   0x006e70    program     static                          
                 TempDemo   0x006e78    program     extern D:\microchip_solutions_v2013-06-15\MiWi DE Demo\MiWi Demo Kit\TempDemo.c
           ReadTempSensor   0x0073ca    program     extern D:\microchip_solutions_v2013-06-15\MiWi DE Demo\MiWi Demo Kit\TempDemo.c
          Read_VBGVoltage   0x007682    program     extern D:\microchip_solutions_v2013-06-15\MiWi DE Demo\MiWi Demo Kit\TempDemo.c
             PrintTempLCD   0x0076bc    program     extern D:\microchip_solutions_v2013-06-15\MiWi DE Demo\MiWi Demo Kit\TempDemo.c
                  __subFP   0x0078a4    program     extern E:\c18v3.46\pic18-lt\cxx-framework\src\extended\math\addFP.asm
                  __addFP   0x0078a8    program     extern E:\c18v3.46\pic18-lt\cxx-framework\src\extended\math\addFP.asm
                     jBeg   0x0078aa    program     static E:\c18v3.46\pic18-lt\cxx-framework\src\extended\math\addFP.asm
                jBANotInf   0x0078e0    program     static E:\c18v3.46\pic18-lt\cxx-framework\src\extended\math\addFP.asm
                 jANotInf   0x0078ea    program     static E:\c18v3.46\pic18-lt\cxx-framework\src\extended\math\addFP.asm
                 jBNotInf   0x0078f8    program     static E:\c18v3.46\pic18-lt\cxx-framework\src\extended\math\addFP.asm
            jDifOrPosSign   0x00790c    program     static E:\c18v3.46\pic18-lt\cxx-framework\src\extended\math\addFP.asm
             jNotBothZero   0x007910    program     static E:\c18v3.46\pic18-lt\cxx-framework\src\extended\math\addFP.asm
                 jAltBexp   0x00793c    program     static E:\c18v3.46\pic18-lt\cxx-framework\src\extended\math\addFP.asm
              jAandWsetup   0x00794e    program     static E:\c18v3.46\pic18-lt\cxx-framework\src\extended\math\addFP.asm
                 jANotNeg   0x00797e    program     static E:\c18v3.46\pic18-lt\cxx-framework\src\extended\math\addFP.asm
                 jWNotNeg   0x007992    program     static E:\c18v3.46\pic18-lt\cxx-framework\src\extended\math\addFP.asm
               jShiftLoop   0x007998    program     static E:\c18v3.46\pic18-lt\cxx-framework\src\extended\math\addFP.asm
               jShiftDone   0x0079a6    program     static E:\c18v3.46\pic18-lt\cxx-framework\src\extended\math\addFP.asm
                jSignDone   0x0079d6    program     static E:\c18v3.46\pic18-lt\cxx-framework\src\extended\math\addFP.asm
               jFinalSign   0x0079e6    program     static E:\c18v3.46\pic18-lt\cxx-framework\src\extended\math\addFP.asm
                 __FpPack   0x0079ee    program     extern E:\c18v3.46\pic18-lt\cxx-framework\src\extended\math\packFP.asm
                  jPkLoop   0x0079fc    program     static E:\c18v3.46\pic18-lt\cxx-framework\src\extended\math\packFP.asm
             jPkShiftDone   0x007a18    program     static E:\c18v3.46\pic18-lt\cxx-framework\src\extended\math\packFP.asm
               jPkRoundIt   0x007a2e    program     static E:\c18v3.46\pic18-lt\cxx-framework\src\extended\math\packFP.asm
              __FpReturnW   0x007a46    program     extern E:\c18v3.46\pic18-lt\cxx-framework\src\extended\math\packFP.asm
             jPkRoundDone   0x007a46    program     static E:\c18v3.46\pic18-lt\cxx-framework\src\extended\math\packFP.asm
                    jExit   0x007a62    program     static E:\c18v3.46\pic18-lt\cxx-framework\src\extended\math\packFP.asm
            __FpReturnNaN   0x007a70    program     extern E:\c18v3.46\pic18-lt\cxx-framework\src\extended\math\packFP.asm
        __FpReturnSignInf   0x007a7e    program     extern E:\c18v3.46\pic18-lt\cxx-framework\src\extended\math\packFP.asm
         __FpReturnNegInf   0x007a82    program     extern E:\c18v3.46\pic18-lt\cxx-framework\src\extended\math\packFP.asm
         __FpReturnPosInf   0x007a88    program     extern E:\c18v3.46\pic18-lt\cxx-framework\src\extended\math\packFP.asm
           jReturnPosInf0   0x007a8c    program     static E:\c18v3.46\pic18-lt\cxx-framework\src\extended\math\packFP.asm
               jZero1and2   0x007a90    program     static E:\c18v3.46\pic18-lt\cxx-framework\src\extended\math\packFP.asm
       __FpReturnSignZero   0x007a96    program     extern E:\c18v3.46\pic18-lt\cxx-framework\src\extended\math\packFP.asm
        __FpReturnNegZero   0x007a9a    program     extern E:\c18v3.46\pic18-lt\cxx-framework\src\extended\math\packFP.asm
        __FpReturnPosZero   0x007aa2    program     extern E:\c18v3.46\pic18-lt\cxx-framework\src\extended\math\packFP.asm
              __FpUnPackA   0x007aa8    program     extern E:\c18v3.46\pic18-lt\cxx-framework\src\extended\math\unpackFP.asm
                  jUnpkA1   0x007ab2    program     static E:\c18v3.46\pic18-lt\cxx-framework\src\extended\math\unpackFP.asm
                 jUnpkANZ   0x007ac0    program     static E:\c18v3.46\pic18-lt\cxx-framework\src\extended\math\unpackFP.asm
                  jUnpkA2   0x007aca    program     static E:\c18v3.46\pic18-lt\cxx-framework\src\extended\math\unpackFP.asm
                 jUnpkNaN   0x007ad4    program     static E:\c18v3.46\pic18-lt\cxx-framework\src\extended\math\unpackFP.asm
              __FpUnPackB   0x007ad8    program     extern E:\c18v3.46\pic18-lt\cxx-framework\src\extended\math\unpackFP.asm
                  jUnpkB1   0x007ae2    program     static E:\c18v3.46\pic18-lt\cxx-framework\src\extended\math\unpackFP.asm
                 jUnpkBNZ   0x007af0    program     static E:\c18v3.46\pic18-lt\cxx-framework\src\extended\math\unpackFP.asm
                  jUnpkB2   0x007afa    program     static E:\c18v3.46\pic18-lt\cxx-framework\src\extended\math\unpackFP.asm
              __cast08uFP   0x007b04    program     extern E:\c18v3.46\pic18-lt\cxx-framework\src\extended\math\cast08FP.asm
              __cast08sFP   0x007b08    program     extern E:\c18v3.46\pic18-lt\cxx-framework\src\extended\math\cast08FP.asm
                     jBeg   0x007b0a    program     static E:\c18v3.46\pic18-lt\cxx-framework\src\extended\math\cast08FP.asm
                  jNotNeg   0x007b2a    program     static E:\c18v3.46\pic18-lt\cxx-framework\src\extended\math\cast08FP.asm
              __cast16uFP   0x007b3e    program     extern E:\c18v3.46\pic18-lt\cxx-framework\src\extended\math\cast16FP.asm
              __cast16sFP   0x007b42    program     extern E:\c18v3.46\pic18-lt\cxx-framework\src\extended\math\cast16FP.asm
                     jBeg   0x007b44    program     static E:\c18v3.46\pic18-lt\cxx-framework\src\extended\math\cast16FP.asm
                  jNotNeg   0x007b6a    program     static E:\c18v3.46\pic18-lt\cxx-framework\src\extended\math\cast16FP.asm
               __castFP08   0x007b80    program     extern E:\c18v3.46\pic18-lt\cxx-framework\src\extended\math\castFP08.asm
                     jMax   0x007ba4    program     static E:\c18v3.46\pic18-lt\cxx-framework\src\extended\math\castFP08.asm
                  jMaxPos   0x007ba8    program     static E:\c18v3.46\pic18-lt\cxx-framework\src\extended\math\castFP08.asm
                  jMaxNeg   0x007bae    program     static E:\c18v3.46\pic18-lt\cxx-framework\src\extended\math\castFP08.asm
                    jZero   0x007bb4    program     static E:\c18v3.46\pic18-lt\cxx-framework\src\extended\math\castFP08.asm
                  jNotInf   0x007bb8    program     static E:\c18v3.46\pic18-lt\cxx-framework\src\extended\math\castFP08.asm
                    jLoop   0x007bc8    program     static E:\c18v3.46\pic18-lt\cxx-framework\src\extended\math\castFP08.asm
                jLoopExit   0x007bd6    program     static E:\c18v3.46\pic18-lt\cxx-framework\src\extended\math\castFP08.asm
                    jDone   0x007be0    program     static E:\c18v3.46\pic18-lt\cxx-framework\src\extended\math\castFP08.asm
                    jExit   0x007be4    program     static E:\c18v3.46\pic18-lt\cxx-framework\src\extended\math\castFP08.asm
               __castFP16   0x007bf2    program     extern E:\c18v3.46\pic18-lt\cxx-framework\src\extended\math\castFP16.asm
                     jMax   0x007c16    program     static E:\c18v3.46\pic18-lt\cxx-framework\src\extended\math\castFP16.asm
                  jMaxPos   0x007c1a    program     static E:\c18v3.46\pic18-lt\cxx-framework\src\extended\math\castFP16.asm
                  jMaxNeg   0x007c24    program     static E:\c18v3.46\pic18-lt\cxx-framework\src\extended\math\castFP16.asm
                    jZero   0x007c2c    program     static E:\c18v3.46\pic18-lt\cxx-framework\src\extended\math\castFP16.asm
                  jNotInf   0x007c32    program     static E:\c18v3.46\pic18-lt\cxx-framework\src\extended\math\castFP16.asm
                    jLoop   0x007c42    program     static E:\c18v3.46\pic18-lt\cxx-framework\src\extended\math\castFP16.asm
                jLoopExit   0x007c52    program     static E:\c18v3.46\pic18-lt\cxx-framework\src\extended\math\castFP16.asm
                    jDone   0x007c62    program     static E:\c18v3.46\pic18-lt\cxx-framework\src\extended\math\castFP16.asm
                    jExit   0x007c6a    program     static E:\c18v3.46\pic18-lt\cxx-framework\src\extended\math\castFP16.asm
                 SETUPSTK   0x007c78    program     static E:\c18v3.46\pic18-lt\cxx-framework\src\extended\math\div08u.asm
                 __div08u   0x007c90    program     extern E:\c18v3.46\pic18-lt\cxx-framework\src\extended\math\div08u.asm
                 __mod08u   0x007c96    program     extern E:\c18v3.46\pic18-lt\cxx-framework\src\extended\math\div08u.asm
            _early08uexit   0x007c9a    program     extern E:\c18v3.46\pic18-lt\cxx-framework\src\extended\math\div08u.asm
                divmod08u   0x007c9c    program     static E:\c18v3.46\pic18-lt\cxx-framework\src\extended\math\div08u.asm
                     loop   0x007ca4    program     static E:\c18v3.46\pic18-lt\cxx-framework\src\extended\math\div08u.asm
                  endloop   0x007cb2    program     static E:\c18v3.46\pic18-lt\cxx-framework\src\extended\math\div08u.asm
                  RESTORE   0x007cba    program     static E:\c18v3.46\pic18-lt\cxx-framework\src\extended\math\div08u.asm
                 SETUPSTK   0x007cd4    program     static E:\c18v3.46\pic18-lt\cxx-framework\src\extended\math\div16s.asm
                 __div16s   0x007cec    program     extern E:\c18v3.46\pic18-lt\cxx-framework\src\extended\math\div16s.asm
                 __mod16s   0x007cf2    program     extern E:\c18v3.46\pic18-lt\cxx-framework\src\extended\math\div16s.asm
                  SETSIGN   0x007cf4    program     static E:\c18v3.46\pic18-lt\cxx-framework\src\extended\math\div16s.asm
                  DA1616S   0x007d06    program     static E:\c18v3.46\pic18-lt\cxx-framework\src\extended\math\div16s.asm
                   D1616S   0x007d16    program     static E:\c18v3.46\pic18-lt\cxx-framework\src\extended\math\div16s.asm
                 D1616SOK   0x007d20    program     static E:\c18v3.46\pic18-lt\cxx-framework\src\extended\math\div16s.asm
                D1616SNEG   0x007d24    program     static E:\c18v3.46\pic18-lt\cxx-framework\src\extended\math\div16s.asm
                D1616SPOS   0x007d34    program     static E:\c18v3.46\pic18-lt\cxx-framework\src\extended\math\div16s.asm
              RETQUOTIENT   0x007d44    program     static E:\c18v3.46\pic18-lt\cxx-framework\src\extended\math\div16s.asm
                  RESTORE   0x007d4c    program     static E:\c18v3.46\pic18-lt\cxx-framework\src\extended\math\div16s.asm
                  D1616SX   0x007d5a    program     static E:\c18v3.46\pic18-lt\cxx-framework\src\extended\math\div16s.asm
                  __divFP   0x007d64    program     extern E:\c18v3.46\pic18-lt\cxx-framework\src\extended\math\divFP.asm
              jDivANotInf   0x007d96    program     static E:\c18v3.46\pic18-lt\cxx-framework\src\extended\math\divFP.asm
             jDivANotZero   0x007daa    program     static E:\c18v3.46\pic18-lt\cxx-framework\src\extended\math\divFP.asm
                 jDivLoop   0x007dd2    program     static E:\c18v3.46\pic18-lt\cxx-framework\src\extended\math\divFP.asm
                jNoAdjust   0x007df6    program     static E:\c18v3.46\pic18-lt\cxx-framework\src\extended\math\divFP.asm
                 jDivNext   0x007df8    program     static E:\c18v3.46\pic18-lt\cxx-framework\src\extended\math\divFP.asm
                   __ltFP   0x007e1e    program     extern E:\c18v3.46\pic18-lt\cxx-framework\src\extended\math\ltFP.asm
              __FpCompare   0x007e30    program     extern E:\c18v3.46\pic18-lt\cxx-framework\src\extended\math\compFP.asm
             jBothNotZero   0x007e62    program     static E:\c18v3.46\pic18-lt\cxx-framework\src\extended\math\compFP.asm
                 jSignsEQ   0x007e66    program     static E:\c18v3.46\pic18-lt\cxx-framework\src\extended\math\compFP.asm
                      jEQ   0x007e7e    program     static E:\c18v3.46\pic18-lt\cxx-framework\src\extended\math\compFP.asm
                      jNE   0x007e82    program     static E:\c18v3.46\pic18-lt\cxx-framework\src\extended\math\compFP.asm
                    jExch   0x007e8a    program     static E:\c18v3.46\pic18-lt\cxx-framework\src\extended\math\compFP.asm
                  jNoExch   0x007eaa    program     static E:\c18v3.46\pic18-lt\cxx-framework\src\extended\math\compFP.asm
                   jFinal   0x007eb4    program     static E:\c18v3.46\pic18-lt\cxx-framework\src\extended\math\compFP.asm
                  jAisNeg   0x007ec0    program     static E:\c18v3.46\pic18-lt\cxx-framework\src\extended\math\compFP.asm
                   jShift   0x007ec6    program     static E:\c18v3.46\pic18-lt\cxx-framework\src\extended\math\compFP.asm
                   jExpEQ   0x007ed0    program     static E:\c18v3.46\pic18-lt\cxx-framework\src\extended\math\compFP.asm
                  jRotate   0x007edc    program     static E:\c18v3.46\pic18-lt\cxx-framework\src\extended\math\compFP.asm
                    jExit   0x007eee    program     static E:\c18v3.46\pic18-lt\cxx-framework\src\extended\math\compFP.asm
                  __mul16   0x007efe    program     extern E:\c18v3.46\pic18-lt\cxx-framework\src\extended\math\mul16.asm
                  __mul32   0x007f66    program     extern E:\c18v3.46\pic18-lt\cxx-framework\src\extended\math\mul32.asm
                  __mulFP   0x008008    program     extern E:\c18v3.46\pic18-lt\cxx-framework\src\extended\math\mulFP.asm
                 jANotInf   0x00803a    program     static E:\c18v3.46\pic18-lt\cxx-framework\src\extended\math\mulFP.asm
              jBothFinite   0x008048    program     static E:\c18v3.46\pic18-lt\cxx-framework\src\extended\math\mulFP.asm
                jHaveZero   0x008050    program     static E:\c18v3.46\pic18-lt\cxx-framework\src\extended\math\mulFP.asm
             jBothNotZero   0x008054    program     static E:\c18v3.46\pic18-lt\cxx-framework\src\extended\math\mulFP.asm
                 SETUPSTK   0x0080f6    program     static E:\c18v3.46\pic18-lt\cxx-framework\src\extended\math\div16u.asm
                 __div16u   0x00810e    program     extern E:\c18v3.46\pic18-lt\cxx-framework\src\extended\math\div16u.asm
                 __mod16u   0x008114    program     extern E:\c18v3.46\pic18-lt\cxx-framework\src\extended\math\div16u.asm
            _early16uexit   0x008118    program     extern E:\c18v3.46\pic18-lt\cxx-framework\src\extended\math\div16u.asm
                divmod16u   0x00811a    program     static E:\c18v3.46\pic18-lt\cxx-framework\src\extended\math\div16u.asm
                     loop   0x008124    program     static E:\c18v3.46\pic18-lt\cxx-framework\src\extended\math\div16u.asm
                  endloop   0x008140    program     static E:\c18v3.46\pic18-lt\cxx-framework\src\extended\math\div16u.asm
              RETQUOTIENT   0x008158    program     static E:\c18v3.46\pic18-lt\cxx-framework\src\extended\math\div16u.asm
                  RESTORE   0x008160    program     static E:\c18v3.46\pic18-lt\cxx-framework\src\extended\math\div16u.asm
                 SETUPSTK   0x00816e    program     static E:\c18v3.46\pic18-lt\cxx-framework\src\extended\math\div32u.asm
                 __div32u   0x008186    program     extern E:\c18v3.46\pic18-lt\cxx-framework\src\extended\math\div32u.asm
                 __mod32u   0x00818c    program     extern E:\c18v3.46\pic18-lt\cxx-framework\src\extended\math\div32u.asm
            _early32uexit   0x008190    program     extern E:\c18v3.46\pic18-lt\cxx-framework\src\extended\math\div32u.asm
                divmod32u   0x008192    program     static E:\c18v3.46\pic18-lt\cxx-framework\src\extended\math\div32u.asm
                     loop   0x0081a0    program     static E:\c18v3.46\pic18-lt\cxx-framework\src\extended\math\div32u.asm
                   _false   0x0081d4    program     static E:\c18v3.46\pic18-lt\cxx-framework\src\extended\math\div32u.asm
              RETQUOTIENT   0x0081f4    program     static E:\c18v3.46\pic18-lt\cxx-framework\src\extended\math\div32u.asm
                  RESTORE   0x008204    program     static E:\c18v3.46\pic18-lt\cxx-framework\src\extended\math\div32u.asm
            s_put_n_chars   0x008212    program     static E:\c18v3.46\pic18-lt\cxx-framework\src\extended\stdclib\vfprintf.c
                 vfprintf   0x008244    program     extern E:\c18v3.46\pic18-lt\cxx-framework\src\extended\stdclib\vfprintf.c
                   __pa_0   0x0088d4    program     static E:\c18v3.46\pic18-lt\cxx-framework\src\extended\stdclib\vfprintf.c
                   __pa_1   0x0088e2    program     static E:\c18v3.46\pic18-lt\cxx-framework\src\extended\stdclib\vfprintf.c
                   __pa_2   0x0088f2    program     static E:\c18v3.46\pic18-lt\cxx-framework\src\extended\stdclib\vfprintf.c
                   __pa_3   0x0088fe    program     static E:\c18v3.46\pic18-lt\cxx-framework\src\extended\stdclib\vfprintf.c
                   __pa_4   0x008912    program     static E:\c18v3.46\pic18-lt\cxx-framework\src\extended\stdclib\vfprintf.c
                   __pa_5   0x008924    program     static E:\c18v3.46\pic18-lt\cxx-framework\src\extended\stdclib\vfprintf.c
                   __pa_6   0x008934    program     static E:\c18v3.46\pic18-lt\cxx-framework\src\extended\stdclib\vfprintf.c
                   __pa_7   0x008946    program     static E:\c18v3.46\pic18-lt\cxx-framework\src\extended\stdclib\vfprintf.c
                   __pa_8   0x008952    program     static E:\c18v3.46\pic18-lt\cxx-framework\src\extended\stdclib\vfprintf.c
                   __pa_9   0x008964    program     static E:\c18v3.46\pic18-lt\cxx-framework\src\extended\stdclib\vfprintf.c
                  __pa_10   0x008970    program     static E:\c18v3.46\pic18-lt\cxx-framework\src\extended\stdclib\vfprintf.c
                  __pa_11   0x008980    program     static E:\c18v3.46\pic18-lt\cxx-framework\src\extended\stdclib\vfprintf.c
                  __pa_12   0x008990    program     static E:\c18v3.46\pic18-lt\cxx-framework\src\extended\stdclib\vfprintf.c
                  __pa_13   0x00899e    program     static E:\c18v3.46\pic18-lt\cxx-framework\src\extended\stdclib\vfprintf.c
                  __pa_14   0x0089bc    program     static E:\c18v3.46\pic18-lt\cxx-framework\src\extended\stdclib\vfprintf.c
                  __pa_15   0x0089c6    program     static E:\c18v3.46\pic18-lt\cxx-framework\src\extended\stdclib\vfprintf.c
                  __pa_16   0x0089cc    program     static E:\c18v3.46\pic18-lt\cxx-framework\src\extended\stdclib\vfprintf.c
                  __pa_17   0x0089dc    program     static E:\c18v3.46\pic18-lt\cxx-framework\src\extended\stdclib\vfprintf.c
                  __pa_18   0x0089e8    program     static E:\c18v3.46\pic18-lt\cxx-framework\src\extended\stdclib\vfprintf.c
                  __pa_19   0x0089f6    program     static E:\c18v3.46\pic18-lt\cxx-framework\src\extended\stdclib\vfprintf.c
                  __pa_20   0x008a00    program     static E:\c18v3.46\pic18-lt\cxx-framework\src\extended\stdclib\vfprintf.c
                  __pa_21   0x008a0a    program     static E:\c18v3.46\pic18-lt\cxx-framework\src\extended\stdclib\vfprintf.c
                  __pa_22   0x008a14    program     static E:\c18v3.46\pic18-lt\cxx-framework\src\extended\stdclib\vfprintf.c
                  __pa_23   0x008a22    program     static E:\c18v3.46\pic18-lt\cxx-framework\src\extended\stdclib\vfprintf.c
                RangeDemo   0x008a28    program     extern D:\microchip_solutions_v2013-06-15\MiWi DE Demo\MiWi Demo Kit\RangeDemo.c
              __string_21   0x008ec2    program     static D:\microchip_solutions_v2013-06-15\MiWi DE Demo\MiWi Demo Kit\Demo.c
              __string_20   0x008ee4    program     static D:\microchip_solutions_v2013-06-15\MiWi DE Demo\MiWi Demo Kit\Demo.c
              __string_19   0x008f06    program     static D:\microchip_solutions_v2013-06-15\MiWi DE Demo\MiWi Demo Kit\Demo.c
              __string_18   0x008f26    program     static D:\microchip_solutions_v2013-06-15\MiWi DE Demo\MiWi Demo Kit\Demo.c
              __string_17   0x008f48    program     static D:\microchip_solutions_v2013-06-15\MiWi DE Demo\MiWi Demo Kit\Demo.c
              __string_16   0x008f65    program     static D:\microchip_solutions_v2013-06-15\MiWi DE Demo\MiWi Demo Kit\Demo.c
              __string_15   0x008f84    program     static D:\microchip_solutions_v2013-06-15\MiWi DE Demo\MiWi Demo Kit\Demo.c
              __string_14   0x008f93    program     static D:\microchip_solutions_v2013-06-15\MiWi DE Demo\MiWi Demo Kit\Demo.c
              __string_13   0x008fa7    program     static D:\microchip_solutions_v2013-06-15\MiWi DE Demo\MiWi Demo Kit\Demo.c
              __string_12   0x008fb7    program     static D:\microchip_solutions_v2013-06-15\MiWi DE Demo\MiWi Demo Kit\Demo.c
              __string_11   0x008fcc    program     static D:\microchip_solutions_v2013-06-15\MiWi DE Demo\MiWi Demo Kit\Demo.c
              __string_10   0x008fed    program     static D:\microchip_solutions_v2013-06-15\MiWi DE Demo\MiWi Demo Kit\Demo.c
               __string_9   0x00900c    program     static D:\microchip_solutions_v2013-06-15\MiWi DE Demo\MiWi Demo Kit\Demo.c
               __string_8   0x00901e    program     static D:\microchip_solutions_v2013-06-15\MiWi DE Demo\MiWi Demo Kit\Demo.c
               __string_7   0x009035    program     static D:\microchip_solutions_v2013-06-15\MiWi DE Demo\MiWi Demo Kit\Demo.c
               __string_6   0x009052    program     static D:\microchip_solutions_v2013-06-15\MiWi DE Demo\MiWi Demo Kit\Demo.c
               __string_5   0x009063    program     static D:\microchip_solutions_v2013-06-15\MiWi DE Demo\MiWi Demo Kit\Demo.c
               __string_4   0x009084    program     static D:\microchip_solutions_v2013-06-15\MiWi DE Demo\MiWi Demo Kit\Demo.c
               __string_3   0x0090a2    program     static D:\microchip_solutions_v2013-06-15\MiWi DE Demo\MiWi Demo Kit\Demo.c
               __string_2   0x0090b2    program     static D:\microchip_solutions_v2013-06-15\MiWi DE Demo\MiWi Demo Kit\Demo.c
               __string_1   0x0090c4    program     static D:\microchip_solutions_v2013-06-15\MiWi DE Demo\MiWi Demo Kit\Demo.c
               __string_0   0x0090d5    program     static D:\microchip_solutions_v2013-06-15\MiWi DE Demo\MiWi Demo Kit\Demo.c
               __string_9   0x0090e6    program     static D:\microchip_solutions_v2013-06-15\MiWi DE Demo\MiWi Demo Kit\TempDemo.c
               __string_8   0x0090e8    program     static D:\microchip_solutions_v2013-06-15\MiWi DE Demo\MiWi Demo Kit\TempDemo.c
               __string_7   0x0090ed    program     static D:\microchip_solutions_v2013-06-15\MiWi DE Demo\MiWi Demo Kit\TempDemo.c
               __string_6   0x0090ef    program     static D:\microchip_solutions_v2013-06-15\MiWi DE Demo\MiWi Demo Kit\TempDemo.c
               __string_5   0x0090f3    program     static D:\microchip_solutions_v2013-06-15\MiWi DE Demo\MiWi Demo Kit\TempDemo.c
               __string_4   0x0090f7    program     static D:\microchip_solutions_v2013-06-15\MiWi DE Demo\MiWi Demo Kit\TempDemo.c
               __string_3   0x009101    program     static D:\microchip_solutions_v2013-06-15\MiWi DE Demo\MiWi Demo Kit\TempDemo.c
               __string_2   0x009111    program     static D:\microchip_solutions_v2013-06-15\MiWi DE Demo\MiWi Demo Kit\TempDemo.c
               __string_1   0x009122    program     static D:\microchip_solutions_v2013-06-15\MiWi DE Demo\MiWi Demo Kit\TempDemo.c
               __string_0   0x009141    program     static D:\microchip_solutions_v2013-06-15\MiWi DE Demo\MiWi Demo Kit\TempDemo.c
               __string_7   0x009160    program     static D:\microchip_solutions_v2013-06-15\MiWi DE Demo\MiWi Demo Kit\RangeDemo.c
               __string_6   0x009180    program     static D:\microchip_solutions_v2013-06-15\MiWi DE Demo\MiWi Demo Kit\RangeDemo.c
               __string_5   0x0091a1    program     static D:\microchip_solutions_v2013-06-15\MiWi DE Demo\MiWi Demo Kit\RangeDemo.c
               __string_4   0x0091b0    program     static D:\microchip_solutions_v2013-06-15\MiWi DE Demo\MiWi Demo Kit\RangeDemo.c
               __string_3   0x0091be    program     static D:\microchip_solutions_v2013-06-15\MiWi DE Demo\MiWi Demo Kit\RangeDemo.c
               __string_2   0x0091cf    program     static D:\microchip_solutions_v2013-06-15\MiWi DE Demo\MiWi Demo Kit\RangeDemo.c
               __string_1   0x0091df    program     static D:\microchip_solutions_v2013-06-15\MiWi DE Demo\MiWi Demo Kit\RangeDemo.c
               __string_0   0x0091fb    program     static D:\microchip_solutions_v2013-06-15\MiWi DE Demo\MiWi Demo Kit\RangeDemo.c
               __string_4   0x00921b    program     static D:\microchip_solutions_v2013-06-15\MiWi DE Demo\MiWi Demo Kit\SelfTestMode.c
               __string_3   0x009235    program     static D:\microchip_solutions_v2013-06-15\MiWi DE Demo\MiWi Demo Kit\SelfTestMode.c
               __string_2   0x00924f    program     static D:\microchip_solutions_v2013-06-15\MiWi DE Demo\MiWi Demo Kit\SelfTestMode.c
               __string_1   0x00925b    program     static D:\microchip_solutions_v2013-06-15\MiWi DE Demo\MiWi Demo Kit\SelfTestMode.c
               __string_0   0x00927a    program     static D:\microchip_solutions_v2013-06-15\MiWi DE Demo\MiWi Demo Kit\SelfTestMode.c
                 SelfTest   0x00929c    program     extern D:\microchip_solutions_v2013-06-15\MiWi DE Demo\MiWi Demo Kit\SelfTestMode.c
                  NVMRead   0x00957a    program     extern D:\microchip_solutions_v2013-06-15\Microchip\WirelessProtocols\NVM.c
                 NVMWrite   0x0095f6    program     extern D:\microchip_solutions_v2013-06-15\Microchip\WirelessProtocols\NVM.c
                 NVMalloc   0x0096c6    program     extern D:\microchip_solutions_v2013-06-15\Microchip\WirelessProtocols\NVM.c
                  NVMInit   0x00972e    program     extern D:\microchip_solutions_v2013-06-15\Microchip\WirelessProtocols\NVM.c
                BoardInit   0x009818    program     extern D:\microchip_solutions_v2013-06-15\MiWi DE Demo\MiWi Demo Kit\BSP_MiWiDemoBd.c
            ButtonPressed   0x0098be    program     extern D:\microchip_solutions_v2013-06-15\MiWi DE Demo\MiWi Demo Kit\BSP_MiWiDemoBd.c
     UserInterruptHandler   0x009a20    program     extern D:\microchip_solutions_v2013-06-15\MiWi DE Demo\MiWi Demo Kit\BSP_MiWiDemoBd.c
             LCD_WriteCmd   0x009a22    program     extern D:\microchip_solutions_v2013-06-15\MiWi DE Demo\MiWi Demo Kit\LCD_ST7032.c
            LCD_WriteData   0x009a46    program     extern D:\microchip_solutions_v2013-06-15\MiWi DE Demo\MiWi Demo Kit\LCD_ST7032.c
                  LCDInit   0x009a6a    program     extern D:\microchip_solutions_v2013-06-15\MiWi DE Demo\MiWi Demo Kit\LCD_ST7032.c
                 LCDErase   0x009afa    program     extern D:\microchip_solutions_v2013-06-15\MiWi DE Demo\MiWi Demo Kit\LCD_ST7032.c
           LCDBacklightON   0x009b28    program     extern D:\microchip_solutions_v2013-06-15\MiWi DE Demo\MiWi Demo Kit\LCD_ST7032.c
          LCDBacklightOFF   0x009b2c    program     extern D:\microchip_solutions_v2013-06-15\MiWi DE Demo\MiWi Demo Kit\LCD_ST7032.c
                LCDUpdate   0x009b30    program     extern D:\microchip_solutions_v2013-06-15\MiWi DE Demo\MiWi Demo Kit\LCD_ST7032.c
               LCDDisplay   0x009bca    program     extern D:\microchip_solutions_v2013-06-15\MiWi DE Demo\MiWi Demo Kit\LCD_ST7032.c
                Delay10us   0x009c1c    program     extern D:\microchip_solutions_v2013-06-15\Microchip\Common\TimeDelay.c
         ___else_lbl00006   0x009c2c    program     static                          
         ___else_lbl00004   0x009ca0    program     static                          
        ___while_lbl00001   0x009ca0    program     static                          
       ___return_lbl00000   0x009cd4    program     static                          
           ___if_lbl00005   0x009cd4    program     static                          
           ___if_lbl00003   0x009cd4    program     static                          
        ___while_lbl00002   0x009cd4    program     static                          
                  DelayMs   0x009cdc    program     extern D:\microchip_solutions_v2013-06-15\Microchip\Common\TimeDelay.c
        ___while_lbl00008   0x009d5c    program     static                          
         ___else_lbl00011   0x009d5c    program     static                          
           ___if_lbl00010   0x009d90    program     static                          
        ___while_lbl00009   0x009d90    program     static                          
       ___return_lbl00007   0x009d90    program     static                          
                  SSTRead   0x009d98    program     extern D:\microchip_solutions_v2013-06-15\MiWi DE Demo\MiWi Demo Kit\SST_SerialFlash.c
                 SSTWrite   0x009e1c    program     extern D:\microchip_solutions_v2013-06-15\MiWi DE Demo\MiWi Demo Kit\SST_SerialFlash.c
                 SSTGetID   0x009ec0    program     extern D:\microchip_solutions_v2013-06-15\MiWi DE Demo\MiWi Demo Kit\SST_SerialFlash.c
               EEPROMRead   0x009f0c    program     extern D:\microchip_solutions_v2013-06-15\MiWi DE Demo\MiWi Demo Kit\MAC_EEProm.c
         Read_MAC_Address   0x009f58    program     extern D:\microchip_solutions_v2013-06-15\MiWi DE Demo\MiWi Demo Kit\MAC_EEProm.c
          RSSIlookupTable   0x00a010    program     extern D:\microchip_solutions_v2013-06-15\MiWi DE Demo\MiWi Demo Kit\RangeDemo.c
                _do_cinit   0x00a110    program     extern E:\c18v3.46\pic18-lt\cxx-framework\src\extended\startup\c018i_e.c
                     test   0x00a12a    program     static                          
                copy_loop   0x00a182    program     static                          
            copy_one_byte   0x00a188    program     static                          
             done_copying   0x00a196    program     static                          
                     done   0x00a1ac    program     static                          
       ___return_lbl00002   0x00a1ac    program     static                          
                   memset   0x00a1ae    program     extern E:\c18v3.46\pic18-lt\cxx-framework\src\extended\stdclib\memset.asm
                    jLoop   0x00a1c2    program     static E:\c18v3.46\pic18-lt\cxx-framework\src\extended\stdclib\memset.asm
              _2jContinue   0x00a1ce    program     static E:\c18v3.46\pic18-lt\cxx-framework\src\extended\stdclib\memset.asm
                   _3jEnd   0x00a1d8    program     static E:\c18v3.46\pic18-lt\cxx-framework\src\extended\stdclib\memset.asm
                     jEnd   0x00a1e0    program     static E:\c18v3.46\pic18-lt\cxx-framework\src\extended\stdclib\memset.asm
                   strlen   0x00a1e2    program     extern E:\c18v3.46\pic18-lt\cxx-framework\src\extended\stdclib\strlen.asm
                    jLoop   0x00a1f2    program     static E:\c18v3.46\pic18-lt\cxx-framework\src\extended\stdclib\strlen.asm
                     jEnd   0x00a1fc    program     static E:\c18v3.46\pic18-lt\cxx-framework\src\extended\stdclib\strlen.asm
                strlenpgm   0x00a1fe    program     extern E:\c18v3.46\pic18-lt\cxx-framework\src\extended\stdclib\slenpgm.asm
                    jLoop   0x00a21c    program     static E:\c18v3.46\pic18-lt\cxx-framework\src\extended\stdclib\slenpgm.asm
                   _2jEnd   0x00a232    program     static E:\c18v3.46\pic18-lt\cxx-framework\src\extended\stdclib\slenpgm.asm
                     jEnd   0x00a234    program     static E:\c18v3.46\pic18-lt\cxx-framework\src\extended\stdclib\slenpgm.asm
          InitSymbolTimer   0x00a248    program     extern D:\microchip_solutions_v2013-06-15\Microchip\WirelessProtocols\SymbolTime.c
             MiWi_TickGet   0x00a25e    program     extern D:\microchip_solutions_v2013-06-15\Microchip\WirelessProtocols\SymbolTime.c
                  sprintf   0x00a2ce    program     extern E:\c18v3.46\pic18-lt\cxx-framework\src\extended\stdclib\sprintf.c
                     putc   0x00a340    program     extern E:\c18v3.46\pic18-lt\cxx-framework\src\extended\stdclib\putc.c
                   SPIPut   0x00a3a6    program     extern D:\microchip_solutions_v2013-06-15\Microchip\WirelessProtocols\MSPI.c
                   SPIGet   0x00a3ce    program     extern D:\microchip_solutions_v2013-06-15\Microchip\WirelessProtocols\MSPI.c
                  SPIPut2   0x00a3da    program     extern D:\microchip_solutions_v2013-06-15\Microchip\WirelessProtocols\MSPI.c
                  SPIGet2   0x00a400    program     extern D:\microchip_solutions_v2013-06-15\Microchip\WirelessProtocols\MSPI.c
                 ScanTime   0x00a40c    program     extern D:\microchip_solutions_v2013-06-15\Microchip\WirelessProtocols\MiWi\MiWi.c
                  isdigit   0x00a448    program     extern E:\c18v3.46\pic18-lt\cxx-framework\src\extended\stdclib\isdigit.asm
                   jMatch   0x00a468    program     static E:\c18v3.46\pic18-lt\cxx-framework\src\extended\stdclib\isdigit.asm
                 jNoMatch   0x00a46a    program     static E:\c18v3.46\pic18-lt\cxx-framework\src\extended\stdclib\isdigit.asm
            __zero_memory   0x00a46c    program     extern E:\c18v3.46\pic18-lt\cxx-framework\src\extended\proc\p18f46j50.asm
                   loop_h   0x00a47a    program     static E:\c18v3.46\pic18-lt\cxx-framework\src\extended\proc\p18f46j50.asm
               zero_block   0x00a47a    program     static E:\c18v3.46\pic18-lt\cxx-framework\src\extended\proc\p18f46j50.asm
                compare_l   0x00a482    program     static E:\c18v3.46\pic18-lt\cxx-framework\src\extended\proc\p18f46j50.asm
                   loop_l   0x00a484    program     static E:\c18v3.46\pic18-lt\cxx-framework\src\extended\proc\p18f46j50.asm
              _usart_putc   0x00a48c    program     extern E:\c18v3.46\pic18-lt\cxx-framework\src\pmc_common\USART\_usartpc.asm
                     loop   0x00a49c    program     static E:\c18v3.46\pic18-lt\cxx-framework\src\pmc_common\USART\_usartpc.asm
                 _startup   0x00a4a8    program     extern E:\c18v3.46\pic18-lt\cxx-framework\src\extended\startup\c018i_e.c
                     loop   0x00a4b6    program     static                          
       ___return_lbl00001   0x00a4c0    program     static                          
                 s_digits   0x00a4c2    program     static E:\c18v3.46\pic18-lt\cxx-framework\src\extended\stdclib\vfprintf.c
               __config_0   0x00fff8    program     static D:\microchip_solutions_v2013-06-15\MiWi DE Demo\MiWi Demo Kit\BSP_MiWiDemoBd.c
               __config_1   0x00fff9    program     static D:\microchip_solutions_v2013-06-15\MiWi DE Demo\MiWi Demo Kit\BSP_MiWiDemoBd.c
               __config_2   0x00fffa    program     static D:\microchip_solutions_v2013-06-15\MiWi DE Demo\MiWi Demo Kit\BSP_MiWiDemoBd.c
               __config_3   0x00fffb    program     static D:\microchip_solutions_v2013-06-15\MiWi DE Demo\MiWi Demo Kit\BSP_MiWiDemoBd.c
                 TxBuffer   0x000000       data     extern D:\microchip_solutions_v2013-06-15\Microchip\WirelessProtocols\MiWi\MiWi.c
     IncomingFrameCounter   0x000033       data     extern D:\microchip_solutions_v2013-06-15\Microchip\WirelessProtocols\MiWi\MiWi.c
               switch_val   0x00005b       data     extern D:\microchip_solutions_v2013-06-15\MiWi DE Demo\MiWi Demo Kit\SelfTestMode.c
               EEPROM_Val   0x00005c       data     extern D:\microchip_solutions_v2013-06-15\MiWi DE Demo\MiWi Demo Kit\SelfTestMode.c
                  SST_Val   0x00005f       data     extern D:\microchip_solutions_v2013-06-15\MiWi DE Demo\MiWi Demo Kit\SelfTestMode.c
          ConnectionTable   0x000060       data     extern D:\microchip_solutions_v2013-06-15\Microchip\WirelessProtocols\MiWi\MiWi.c
                     prom   0x0000ec       data     static E:\c18v3.46\pic18-lt\cxx-framework\src\extended\startup\c018i_e.c
                curr_byte   0x0000ef       data     static E:\c18v3.46\pic18-lt\cxx-framework\src\extended\startup\c018i_e.c
               curr_entry   0x0000f1       data     static E:\c18v3.46\pic18-lt\cxx-framework\src\extended\startup\c018i_e.c
                 data_ptr   0x0000f3       data     static E:\c18v3.46\pic18-lt\cxx-framework\src\extended\startup\c018i_e.c
           switch0Pressed   0x0000f6       data     extern D:\microchip_solutions_v2013-06-15\MiWi DE Demo\MiWi Demo Kit\BSP_MiWiDemoBd.c
         switch0PressTime   0x0000f7       data     extern D:\microchip_solutions_v2013-06-15\MiWi DE Demo\MiWi Demo Kit\BSP_MiWiDemoBd.c
           switch1Pressed   0x0000fb       data     extern D:\microchip_solutions_v2013-06-15\MiWi DE Demo\MiWi Demo Kit\BSP_MiWiDemoBd.c
         switch1PressTime   0x0000fc       data     extern D:\microchip_solutions_v2013-06-15\MiWi DE Demo\MiWi Demo Kit\BSP_MiWiDemoBd.c
         MiWiCapacityInfo   0x000100       data     extern D:\microchip_solutions_v2013-06-15\Microchip\WirelessProtocols\MiWi\MiWi.c
                rxMessage   0x000101       data     extern D:\microchip_solutions_v2013-06-15\Microchip\WirelessProtocols\MiWi\MiWi.c
    ActiveScanResultIndex   0x00010b       data     extern D:\microchip_solutions_v2013-06-15\Microchip\WirelessProtocols\MiWi\MiWi.c
        ActiveScanResults   0x00010c       data     extern D:\microchip_solutions_v2013-06-15\Microchip\WirelessProtocols\MiWi\MiWi.c
          tempLongAddress   0x000148       data     extern D:\microchip_solutions_v2013-06-15\Microchip\WirelessProtocols\MiWi\MiWi.c
         tempShortAddress   0x000150       data     extern D:\microchip_solutions_v2013-06-15\Microchip\WirelessProtocols\MiWi\MiWi.c
                tempPANID   0x000152       data     extern D:\microchip_solutions_v2013-06-15\Microchip\WirelessProtocols\MiWi\MiWi.c
           tempNodeStatus   0x000154       data     extern D:\microchip_solutions_v2013-06-15\Microchip\WirelessProtocols\MiWi\MiWi.c
                   TxData   0x000155       data     extern D:\microchip_solutions_v2013-06-15\Microchip\WirelessProtocols\MiWi\MiWi.c
           myShortAddress   0x000156       data     extern D:\microchip_solutions_v2013-06-15\Microchip\WirelessProtocols\MiWi\MiWi.c
                  myPANID   0x000158       data     extern D:\microchip_solutions_v2013-06-15\Microchip\WirelessProtocols\MiWi\MiWi.c
                 myParent   0x00015a       data     extern D:\microchip_solutions_v2013-06-15\Microchip\WirelessProtocols\MiWi\MiWi.c
         MiWiStateMachine   0x00015b       data     extern D:\microchip_solutions_v2013-06-15\Microchip\WirelessProtocols\MiWi\MiWi.c
      AcknowledgementAddr   0x00015d       data     extern D:\microchip_solutions_v2013-06-15\Microchip\WirelessProtocols\MiWi\MiWi.c
               MiWiSeqNum   0x00015f       data     extern D:\microchip_solutions_v2013-06-15\Microchip\WirelessProtocols\MiWi\MiWi.c
             RoutingTable   0x000160       data     extern D:\microchip_solutions_v2013-06-15\Microchip\WirelessProtocols\MiWi\MiWi.c
           RouterFailures   0x000168       data     extern D:\microchip_solutions_v2013-06-15\Microchip\WirelessProtocols\MiWi\MiWi.c
        knownCoordinators   0x000170       data     extern D:\microchip_solutions_v2013-06-15\Microchip\WirelessProtocols\MiWi\MiWi.c
                     role   0x000171       data     extern D:\microchip_solutions_v2013-06-15\Microchip\WirelessProtocols\MiWi\MiWi.c
           openSocketInfo   0x000172       data     extern D:\microchip_solutions_v2013-06-15\Microchip\WirelessProtocols\MiWi\MiWi.c
                      MTP   0x00018d       data     extern D:\microchip_solutions_v2013-06-15\Microchip\WirelessProtocols\MiWi\MiWi.c
              MACRxPacket   0x000194       data     extern D:\microchip_solutions_v2013-06-15\Microchip\WirelessProtocols\MiWi\MiWi.c
         BroadcastRecords   0x00019f       data     extern D:\microchip_solutions_v2013-06-15\Microchip\WirelessProtocols\MiWi\MiWi.c
             nvmDelayTick   0x0001bf       data     extern D:\microchip_solutions_v2013-06-15\Microchip\WirelessProtocols\MiWi\MiWi.c
                  LCDText   0x0001c3       data     extern D:\microchip_solutions_v2013-06-15\MiWi DE Demo\MiWi Demo Kit\LCD_ST7032.c
            MACInitParams   0x0001e4       data     extern D:\microchip_solutions_v2013-06-15\Microchip\Transceivers\MRF24J40\MRF24J40.c
     OutgoingFrameCounter   0x0001e7       data     extern D:\microchip_solutions_v2013-06-15\Microchip\Transceivers\MRF24J40\MRF24J40.c
     tmpSourceLongAddress   0x0001eb       data     extern D:\microchip_solutions_v2013-06-15\Microchip\Transceivers\MRF24J40\MRF24J40.c
          tmpFrameCounter   0x0001f3       data     extern D:\microchip_solutions_v2013-06-15\Microchip\Transceivers\MRF24J40\MRF24J40.c
               IEEESeqNum   0x0001f7       data     extern D:\microchip_solutions_v2013-06-15\Microchip\Transceivers\MRF24J40\MRF24J40.c
        MACCurrentChannel   0x0001f8       data     extern D:\microchip_solutions_v2013-06-15\Microchip\Transceivers\MRF24J40\MRF24J40.c
                MAC_PANID   0x0001f9       data     extern D:\microchip_solutions_v2013-06-15\Microchip\Transceivers\MRF24J40\MRF24J40.c
         myNetworkAddress   0x0001fb       data     extern D:\microchip_solutions_v2013-06-15\Microchip\Transceivers\MRF24J40\MRF24J40.c
           MRF24J40Status   0x0001fd       data     extern D:\microchip_solutions_v2013-06-15\Microchip\Transceivers\MRF24J40\MRF24J40.c
          timerExtension1   0x0001fe       data     extern D:\microchip_solutions_v2013-06-15\Microchip\WirelessProtocols\SymbolTime.c
          timerExtension2   0x0001ff       data     extern D:\microchip_solutions_v2013-06-15\Microchip\WirelessProtocols\SymbolTime.c
                 NodeTemp   0x000200       data     extern D:\microchip_solutions_v2013-06-15\MiWi DE Demo\MiWi Demo Kit\TempDemo.c
               nvmMyPANID   0x00021e       data     extern D:\microchip_solutions_v2013-06-15\Microchip\WirelessProtocols\NVM.c
        nvmCurrentChannel   0x000220       data     extern D:\microchip_solutions_v2013-06-15\Microchip\WirelessProtocols\NVM.c
              nvmConnMode   0x000222       data     extern D:\microchip_solutions_v2013-06-15\Microchip\WirelessProtocols\NVM.c
       nvmConnectionTable   0x000224       data     extern D:\microchip_solutions_v2013-06-15\Microchip\WirelessProtocols\NVM.c
       nvmOutFrameCounter   0x000226       data     extern D:\microchip_solutions_v2013-06-15\Microchip\WirelessProtocols\NVM.c
        nvmMyShortAddress   0x000228       data     extern D:\microchip_solutions_v2013-06-15\Microchip\WirelessProtocols\NVM.c
              nvmMyParent   0x00022a       data     extern D:\microchip_solutions_v2013-06-15\Microchip\WirelessProtocols\NVM.c
          nvmRoutingTable   0x00022c       data     extern D:\microchip_solutions_v2013-06-15\Microchip\WirelessProtocols\NVM.c
     nvmKnownCoordinators   0x00022e       data     extern D:\microchip_solutions_v2013-06-15\Microchip\WirelessProtocols\NVM.c
                  nvmRole   0x000230       data     extern D:\microchip_solutions_v2013-06-15\Microchip\WirelessProtocols\NVM.c
           nextEEPosition   0x000232       data     extern D:\microchip_solutions_v2013-06-15\Microchip\WirelessProtocols\NVM.c
                  __tmp_0   0x000234       data     static D:\microchip_solutions_v2013-06-15\Microchip\Transceivers\MRF24J40\MRF24J40.c
                  __tmp_0   0x000234       data     static D:\microchip_solutions_v2013-06-15\Microchip\WirelessProtocols\NVM.c
                  __tmp_0   0x000234       data     static D:\microchip_solutions_v2013-06-15\MiWi DE Demo\MiWi Demo Kit\Demo.c
                  __tmp_0   0x000234       data     static D:\microchip_solutions_v2013-06-15\MiWi DE Demo\MiWi Demo Kit\TempDemo.c
                  __tmp_0   0x000234       data     static D:\microchip_solutions_v2013-06-15\MiWi DE Demo\MiWi Demo Kit\RangeDemo.c
                  __tmp_0   0x000234       data     static D:\microchip_solutions_v2013-06-15\MiWi DE Demo\MiWi Demo Kit\BSP_MiWiDemoBd.c
                  __tmp_0   0x000234       data     static D:\microchip_solutions_v2013-06-15\MiWi DE Demo\MiWi Demo Kit\MAC_EEProm.c
                  __tmp_0   0x000234       data     static D:\microchip_solutions_v2013-06-15\Microchip\Common\TimeDelay.c
                  __tmp_0   0x000234       data     static E:\c18v3.46\pic18-lt\cxx-framework\src\extended\stdclib\vfprintf.c
                  __tmp_0   0x000234       data     static D:\microchip_solutions_v2013-06-15\MiWi DE Demo\MiWi Demo Kit\SelfTestMode.c
                  __tmp_0   0x000234       data     static D:\microchip_solutions_v2013-06-15\Microchip\WirelessProtocols\MiWi\MiWi.c
              tempAverage   0x00023c       data     extern D:\microchip_solutions_v2013-06-15\MiWi DE Demo\MiWi Demo Kit\TempDemo.c
               tempRemote   0x00023e       data     extern D:\microchip_solutions_v2013-06-15\MiWi DE Demo\MiWi Demo Kit\TempDemo.c
                NodeIndex   0x00023f       data     extern D:\microchip_solutions_v2013-06-15\MiWi DE Demo\MiWi Demo Kit\TempDemo.c
         CurrentNodeIndex   0x000240       data     extern D:\microchip_solutions_v2013-06-15\MiWi DE Demo\MiWi Demo Kit\TempDemo.c
                __RETVAL0   0x000241       data     extern E:\c18v3.46\pic18-lt\cxx-framework\src\extended\math\cmath18.asm
                __RETVAL1   0x000242       data     extern E:\c18v3.46\pic18-lt\cxx-framework\src\extended\math\cmath18.asm
                __RETVAL2   0x000243       data     extern E:\c18v3.46\pic18-lt\cxx-framework\src\extended\math\cmath18.asm
                __RETVAL3   0x000244       data     extern E:\c18v3.46\pic18-lt\cxx-framework\src\extended\math\cmath18.asm
                  __tmp_1   0x000245       data     static D:\microchip_solutions_v2013-06-15\Microchip\Transceivers\MRF24J40\MRF24J40.c
                myChannel   0x000249       data     extern D:\microchip_solutions_v2013-06-15\MiWi DE Demo\MiWi Demo Kit\Demo.c
          ConnectionEntry   0x00024a       data     extern D:\microchip_solutions_v2013-06-15\MiWi DE Demo\MiWi Demo Kit\Demo.c
         NetFreezerEnable   0x00024b       data     extern D:\microchip_solutions_v2013-06-15\MiWi DE Demo\MiWi Demo Kit\Demo.c
         AdditionalNodeID   0x00024c       data     extern D:\microchip_solutions_v2013-06-15\MiWi DE Demo\MiWi Demo Kit\Demo.c
                BankIndex   0x00024d       data     extern D:\microchip_solutions_v2013-06-15\Microchip\Transceivers\MRF24J40\MRF24J40.c
           failureCounter   0x00024e       data     extern D:\microchip_solutions_v2013-06-15\Microchip\Transceivers\MRF24J40\MRF24J40.c
                 RxBuffer   0x000e00       data     extern D:\microchip_solutions_v2013-06-15\Microchip\Transceivers\MRF24J40\MRF24J40.c
            myLongAddress   0x000eb2       data     extern D:\microchip_solutions_v2013-06-15\Microchip\WirelessProtocols\MiWi\MiWi.c
           currentChannel   0x000eba       data     extern D:\microchip_solutions_v2013-06-15\Microchip\WirelessProtocols\MiWi\MiWi.c
                 ConnMode   0x000ebb       data     extern D:\microchip_solutions_v2013-06-15\Microchip\WirelessProtocols\MiWi\MiWi.c
              defaultHops   0x000ebc       data     extern D:\microchip_solutions_v2013-06-15\Microchip\WirelessProtocols\MiWi\MiWi.c
       AcknowledgementSeq   0x000ebd       data     extern D:\microchip_solutions_v2013-06-15\Microchip\WirelessProtocols\MiWi\MiWi.c
          MiWiAckRequired   0x000ebe       data     extern D:\microchip_solutions_v2013-06-15\Microchip\WirelessProtocols\MiWi\MiWi.c
                init_case   0x000ebf       data     extern D:\microchip_solutions_v2013-06-15\MiWi DE Demo\MiWi Demo Kit\SelfTestMode.c
                    RPOR0   0x000ec6       data     extern E:\c18v3.46\pic18-lt\cxx-framework\src\extended\proc\p18f46j50.asm
                    RPOR1   0x000ec7       data     extern E:\c18v3.46\pic18-lt\cxx-framework\src\extended\proc\p18f46j50.asm
                    RPOR2   0x000ec8       data     extern E:\c18v3.46\pic18-lt\cxx-framework\src\extended\proc\p18f46j50.asm
                    RPOR3   0x000ec9       data     extern E:\c18v3.46\pic18-lt\cxx-framework\src\extended\proc\p18f46j50.asm
                    RPOR4   0x000eca       data     extern E:\c18v3.46\pic18-lt\cxx-framework\src\extended\proc\p18f46j50.asm
                    RPOR5   0x000ecb       data     extern E:\c18v3.46\pic18-lt\cxx-framework\src\extended\proc\p18f46j50.asm
                    RPOR6   0x000ecc       data     extern E:\c18v3.46\pic18-lt\cxx-framework\src\extended\proc\p18f46j50.asm
                    RPOR7   0x000ecd       data     extern E:\c18v3.46\pic18-lt\cxx-framework\src\extended\proc\p18f46j50.asm
                    RPOR8   0x000ece       data     extern E:\c18v3.46\pic18-lt\cxx-framework\src\extended\proc\p18f46j50.asm
                    RPOR9   0x000ecf       data     extern E:\c18v3.46\pic18-lt\cxx-framework\src\extended\proc\p18f46j50.asm
                   RPOR10   0x000ed0       data     extern E:\c18v3.46\pic18-lt\cxx-framework\src\extended\proc\p18f46j50.asm
                   RPOR11   0x000ed1       data     extern E:\c18v3.46\pic18-lt\cxx-framework\src\extended\proc\p18f46j50.asm
                   RPOR12   0x000ed2       data     extern E:\c18v3.46\pic18-lt\cxx-framework\src\extended\proc\p18f46j50.asm
                   RPOR13   0x000ed3       data     extern E:\c18v3.46\pic18-lt\cxx-framework\src\extended\proc\p18f46j50.asm
                   RPOR17   0x000ed7       data     extern E:\c18v3.46\pic18-lt\cxx-framework\src\extended\proc\p18f46j50.asm
                   RPOR18   0x000ed8       data     extern E:\c18v3.46\pic18-lt\cxx-framework\src\extended\proc\p18f46j50.asm
                   RPOR19   0x000ed9       data     extern E:\c18v3.46\pic18-lt\cxx-framework\src\extended\proc\p18f46j50.asm
                   RPOR20   0x000eda       data     extern E:\c18v3.46\pic18-lt\cxx-framework\src\extended\proc\p18f46j50.asm
                   RPOR21   0x000edb       data     extern E:\c18v3.46\pic18-lt\cxx-framework\src\extended\proc\p18f46j50.asm
                   RPOR22   0x000edc       data     extern E:\c18v3.46\pic18-lt\cxx-framework\src\extended\proc\p18f46j50.asm
                   RPOR23   0x000edd       data     extern E:\c18v3.46\pic18-lt\cxx-framework\src\extended\proc\p18f46j50.asm
                   RPOR24   0x000ede       data     extern E:\c18v3.46\pic18-lt\cxx-framework\src\extended\proc\p18f46j50.asm
                   RPINR1   0x000ee7       data     extern E:\c18v3.46\pic18-lt\cxx-framework\src\extended\proc\p18f46j50.asm
                   RPINR2   0x000ee8       data     extern E:\c18v3.46\pic18-lt\cxx-framework\src\extended\proc\p18f46j50.asm
                   RPINR3   0x000ee9       data     extern E:\c18v3.46\pic18-lt\cxx-framework\src\extended\proc\p18f46j50.asm
                   RPINR4   0x000eea       data     extern E:\c18v3.46\pic18-lt\cxx-framework\src\extended\proc\p18f46j50.asm
                   RPINR6   0x000eec       data     extern E:\c18v3.46\pic18-lt\cxx-framework\src\extended\proc\p18f46j50.asm
                   RPINR7   0x000eed       data     extern E:\c18v3.46\pic18-lt\cxx-framework\src\extended\proc\p18f46j50.asm
                   RPINR8   0x000eee       data     extern E:\c18v3.46\pic18-lt\cxx-framework\src\extended\proc\p18f46j50.asm
                  RPINR12   0x000ef2       data     extern E:\c18v3.46\pic18-lt\cxx-framework\src\extended\proc\p18f46j50.asm
                  RPINR13   0x000ef3       data     extern E:\c18v3.46\pic18-lt\cxx-framework\src\extended\proc\p18f46j50.asm
                  RPINR16   0x000ef6       data     extern E:\c18v3.46\pic18-lt\cxx-framework\src\extended\proc\p18f46j50.asm
                  RPINR17   0x000ef7       data     extern E:\c18v3.46\pic18-lt\cxx-framework\src\extended\proc\p18f46j50.asm
                  RPINR21   0x000efb       data     extern E:\c18v3.46\pic18-lt\cxx-framework\src\extended\proc\p18f46j50.asm
                  RPINR22   0x000efc       data     extern E:\c18v3.46\pic18-lt\cxx-framework\src\extended\proc\p18f46j50.asm
                  RPINR23   0x000efd       data     extern E:\c18v3.46\pic18-lt\cxx-framework\src\extended\proc\p18f46j50.asm
                  RPINR24   0x000efe       data     extern E:\c18v3.46\pic18-lt\cxx-framework\src\extended\proc\p18f46j50.asm
               PPSCONbits   0x000eff       data     extern E:\c18v3.46\pic18-lt\cxx-framework\src\extended\proc\p18f46j50.asm
                   PPSCON   0x000eff       data     extern E:\c18v3.46\pic18-lt\cxx-framework\src\extended\proc\p18f46j50.asm
                     UEP0   0x000f26       data     extern E:\c18v3.46\pic18-lt\cxx-framework\src\extended\proc\p18f46j50.asm
                 UEP0bits   0x000f26       data     extern E:\c18v3.46\pic18-lt\cxx-framework\src\extended\proc\p18f46j50.asm
                 UEP1bits   0x000f27       data     extern E:\c18v3.46\pic18-lt\cxx-framework\src\extended\proc\p18f46j50.asm
                     UEP1   0x000f27       data     extern E:\c18v3.46\pic18-lt\cxx-framework\src\extended\proc\p18f46j50.asm
                 UEP2bits   0x000f28       data     extern E:\c18v3.46\pic18-lt\cxx-framework\src\extended\proc\p18f46j50.asm
                     UEP2   0x000f28       data     extern E:\c18v3.46\pic18-lt\cxx-framework\src\extended\proc\p18f46j50.asm
                     UEP3   0x000f29       data     extern E:\c18v3.46\pic18-lt\cxx-framework\src\extended\proc\p18f46j50.asm
                 UEP3bits   0x000f29       data     extern E:\c18v3.46\pic18-lt\cxx-framework\src\extended\proc\p18f46j50.asm
                 UEP4bits   0x000f2a       data     extern E:\c18v3.46\pic18-lt\cxx-framework\src\extended\proc\p18f46j50.asm
                     UEP4   0x000f2a       data     extern E:\c18v3.46\pic18-lt\cxx-framework\src\extended\proc\p18f46j50.asm
                     UEP5   0x000f2b       data     extern E:\c18v3.46\pic18-lt\cxx-framework\src\extended\proc\p18f46j50.asm
                 UEP5bits   0x000f2b       data     extern E:\c18v3.46\pic18-lt\cxx-framework\src\extended\proc\p18f46j50.asm
                     UEP6   0x000f2c       data     extern E:\c18v3.46\pic18-lt\cxx-framework\src\extended\proc\p18f46j50.asm
                 UEP6bits   0x000f2c       data     extern E:\c18v3.46\pic18-lt\cxx-framework\src\extended\proc\p18f46j50.asm
                 UEP7bits   0x000f2d       data     extern E:\c18v3.46\pic18-lt\cxx-framework\src\extended\proc\p18f46j50.asm
                     UEP7   0x000f2d       data     extern E:\c18v3.46\pic18-lt\cxx-framework\src\extended\proc\p18f46j50.asm
                 UEP8bits   0x000f2e       data     extern E:\c18v3.46\pic18-lt\cxx-framework\src\extended\proc\p18f46j50.asm
                     UEP8   0x000f2e       data     extern E:\c18v3.46\pic18-lt\cxx-framework\src\extended\proc\p18f46j50.asm
                 UEP9bits   0x000f2f       data     extern E:\c18v3.46\pic18-lt\cxx-framework\src\extended\proc\p18f46j50.asm
                     UEP9   0x000f2f       data     extern E:\c18v3.46\pic18-lt\cxx-framework\src\extended\proc\p18f46j50.asm
                    UEP10   0x000f30       data     extern E:\c18v3.46\pic18-lt\cxx-framework\src\extended\proc\p18f46j50.asm
                UEP10bits   0x000f30       data     extern E:\c18v3.46\pic18-lt\cxx-framework\src\extended\proc\p18f46j50.asm
                    UEP11   0x000f31       data     extern E:\c18v3.46\pic18-lt\cxx-framework\src\extended\proc\p18f46j50.asm
                UEP11bits   0x000f31       data     extern E:\c18v3.46\pic18-lt\cxx-framework\src\extended\proc\p18f46j50.asm
                    UEP12   0x000f32       data     extern E:\c18v3.46\pic18-lt\cxx-framework\src\extended\proc\p18f46j50.asm
                UEP12bits   0x000f32       data     extern E:\c18v3.46\pic18-lt\cxx-framework\src\extended\proc\p18f46j50.asm
                UEP13bits   0x000f33       data     extern E:\c18v3.46\pic18-lt\cxx-framework\src\extended\proc\p18f46j50.asm
                    UEP13   0x000f33       data     extern E:\c18v3.46\pic18-lt\cxx-framework\src\extended\proc\p18f46j50.asm
                    UEP14   0x000f34       data     extern E:\c18v3.46\pic18-lt\cxx-framework\src\extended\proc\p18f46j50.asm
                UEP14bits   0x000f34       data     extern E:\c18v3.46\pic18-lt\cxx-framework\src\extended\proc\p18f46j50.asm
                    UEP15   0x000f35       data     extern E:\c18v3.46\pic18-lt\cxx-framework\src\extended\proc\p18f46j50.asm
                UEP15bits   0x000f35       data     extern E:\c18v3.46\pic18-lt\cxx-framework\src\extended\proc\p18f46j50.asm
                      UIE   0x000f36       data     extern E:\c18v3.46\pic18-lt\cxx-framework\src\extended\proc\p18f46j50.asm
                  UIEbits   0x000f36       data     extern E:\c18v3.46\pic18-lt\cxx-framework\src\extended\proc\p18f46j50.asm
                     UEIE   0x000f37       data     extern E:\c18v3.46\pic18-lt\cxx-framework\src\extended\proc\p18f46j50.asm
                 UEIEbits   0x000f37       data     extern E:\c18v3.46\pic18-lt\cxx-framework\src\extended\proc\p18f46j50.asm
                    UADDR   0x000f38       data     extern E:\c18v3.46\pic18-lt\cxx-framework\src\extended\proc\p18f46j50.asm
                UADDRbits   0x000f38       data     extern E:\c18v3.46\pic18-lt\cxx-framework\src\extended\proc\p18f46j50.asm
                     UCFG   0x000f39       data     extern E:\c18v3.46\pic18-lt\cxx-framework\src\extended\proc\p18f46j50.asm
                 UCFGbits   0x000f39       data     extern E:\c18v3.46\pic18-lt\cxx-framework\src\extended\proc\p18f46j50.asm
              PADCFG1bits   0x000f3c       data     extern E:\c18v3.46\pic18-lt\cxx-framework\src\extended\proc\p18f46j50.asm
                  PADCFG1   0x000f3c       data     extern E:\c18v3.46\pic18-lt\cxx-framework\src\extended\proc\p18f46j50.asm
                  REFOCON   0x000f3d       data     extern E:\c18v3.46\pic18-lt\cxx-framework\src\extended\proc\p18f46j50.asm
              REFOCONbits   0x000f3d       data     extern E:\c18v3.46\pic18-lt\cxx-framework\src\extended\proc\p18f46j50.asm
                   RTCCAL   0x000f3e       data     extern E:\c18v3.46\pic18-lt\cxx-framework\src\extended\proc\p18f46j50.asm
               RTCCALbits   0x000f3e       data     extern E:\c18v3.46\pic18-lt\cxx-framework\src\extended\proc\p18f46j50.asm
                   RTCCFG   0x000f3f       data     extern E:\c18v3.46\pic18-lt\cxx-framework\src\extended\proc\p18f46j50.asm
               RTCCFGbits   0x000f3f       data     extern E:\c18v3.46\pic18-lt\cxx-framework\src\extended\proc\p18f46j50.asm
               ODCON3bits   0x000f40       data     extern E:\c18v3.46\pic18-lt\cxx-framework\src\extended\proc\p18f46j50.asm
                   ODCON3   0x000f40       data     extern E:\c18v3.46\pic18-lt\cxx-framework\src\extended\proc\p18f46j50.asm
               ODCON2bits   0x000f41       data     extern E:\c18v3.46\pic18-lt\cxx-framework\src\extended\proc\p18f46j50.asm
                   ODCON2   0x000f41       data     extern E:\c18v3.46\pic18-lt\cxx-framework\src\extended\proc\p18f46j50.asm
                   ODCON1   0x000f42       data     extern E:\c18v3.46\pic18-lt\cxx-framework\src\extended\proc\p18f46j50.asm
               ODCON1bits   0x000f42       data     extern E:\c18v3.46\pic18-lt\cxx-framework\src\extended\proc\p18f46j50.asm
                   ANCON0   0x000f48       data     extern E:\c18v3.46\pic18-lt\cxx-framework\src\extended\proc\p18f46j50.asm
               ANCON0bits   0x000f48       data     extern E:\c18v3.46\pic18-lt\cxx-framework\src\extended\proc\p18f46j50.asm
                   ANCON1   0x000f49       data     extern E:\c18v3.46\pic18-lt\cxx-framework\src\extended\proc\p18f46j50.asm
               ANCON1bits   0x000f49       data     extern E:\c18v3.46\pic18-lt\cxx-framework\src\extended\proc\p18f46j50.asm
              DSWAKELbits   0x000f4a       data     extern E:\c18v3.46\pic18-lt\cxx-framework\src\extended\proc\p18f46j50.asm
                  DSWAKEL   0x000f4a       data     extern E:\c18v3.46\pic18-lt\cxx-framework\src\extended\proc\p18f46j50.asm
                  DSWAKEH   0x000f4b       data     extern E:\c18v3.46\pic18-lt\cxx-framework\src\extended\proc\p18f46j50.asm
              DSWAKEHbits   0x000f4b       data     extern E:\c18v3.46\pic18-lt\cxx-framework\src\extended\proc\p18f46j50.asm
                   DSCONL   0x000f4c       data     extern E:\c18v3.46\pic18-lt\cxx-framework\src\extended\proc\p18f46j50.asm
               DSCONLbits   0x000f4c       data     extern E:\c18v3.46\pic18-lt\cxx-framework\src\extended\proc\p18f46j50.asm
                   DSCONH   0x000f4d       data     extern E:\c18v3.46\pic18-lt\cxx-framework\src\extended\proc\p18f46j50.asm
               DSCONHbits   0x000f4d       data     extern E:\c18v3.46\pic18-lt\cxx-framework\src\extended\proc\p18f46j50.asm
                   DSGPR0   0x000f4e       data     extern E:\c18v3.46\pic18-lt\cxx-framework\src\extended\proc\p18f46j50.asm
                   DSGPR1   0x000f4f       data     extern E:\c18v3.46\pic18-lt\cxx-framework\src\extended\proc\p18f46j50.asm
              TCLKCONbits   0x000f52       data     extern E:\c18v3.46\pic18-lt\cxx-framework\src\extended\proc\p18f46j50.asm
                  TCLKCON   0x000f52       data     extern E:\c18v3.46\pic18-lt\cxx-framework\src\extended\proc\p18f46j50.asm
                   CVRCON   0x000f53       data     extern E:\c18v3.46\pic18-lt\cxx-framework\src\extended\proc\p18f46j50.asm
               CVRCONbits   0x000f53       data     extern E:\c18v3.46\pic18-lt\cxx-framework\src\extended\proc\p18f46j50.asm
                  PMSTATL   0x000f54       data     extern E:\c18v3.46\pic18-lt\cxx-framework\src\extended\proc\p18f46j50.asm
              PMSTATLbits   0x000f54       data     extern E:\c18v3.46\pic18-lt\cxx-framework\src\extended\proc\p18f46j50.asm
                  PMSTATH   0x000f55       data     extern E:\c18v3.46\pic18-lt\cxx-framework\src\extended\proc\p18f46j50.asm
              PMSTATHbits   0x000f55       data     extern E:\c18v3.46\pic18-lt\cxx-framework\src\extended\proc\p18f46j50.asm
                     PMEL   0x000f56       data     extern E:\c18v3.46\pic18-lt\cxx-framework\src\extended\proc\p18f46j50.asm
                 PMELbits   0x000f56       data     extern E:\c18v3.46\pic18-lt\cxx-framework\src\extended\proc\p18f46j50.asm
                     PMEH   0x000f57       data     extern E:\c18v3.46\pic18-lt\cxx-framework\src\extended\proc\p18f46j50.asm
                 PMEHbits   0x000f57       data     extern E:\c18v3.46\pic18-lt\cxx-framework\src\extended\proc\p18f46j50.asm
                  PMDIN2L   0x000f58       data     extern E:\c18v3.46\pic18-lt\cxx-framework\src\extended\proc\p18f46j50.asm
                  PMDIN2H   0x000f59       data     extern E:\c18v3.46\pic18-lt\cxx-framework\src\extended\proc\p18f46j50.asm
                 PMDOUT2L   0x000f5a       data     extern E:\c18v3.46\pic18-lt\cxx-framework\src\extended\proc\p18f46j50.asm
                 PMDOUT2H   0x000f5b       data     extern E:\c18v3.46\pic18-lt\cxx-framework\src\extended\proc\p18f46j50.asm
              PMMODELbits   0x000f5c       data     extern E:\c18v3.46\pic18-lt\cxx-framework\src\extended\proc\p18f46j50.asm
                  PMMODEL   0x000f5c       data     extern E:\c18v3.46\pic18-lt\cxx-framework\src\extended\proc\p18f46j50.asm
                  PMMODEH   0x000f5d       data     extern E:\c18v3.46\pic18-lt\cxx-framework\src\extended\proc\p18f46j50.asm
              PMMODEHbits   0x000f5d       data     extern E:\c18v3.46\pic18-lt\cxx-framework\src\extended\proc\p18f46j50.asm
               PMCONLbits   0x000f5e       data     extern E:\c18v3.46\pic18-lt\cxx-framework\src\extended\proc\p18f46j50.asm
                   PMCONL   0x000f5e       data     extern E:\c18v3.46\pic18-lt\cxx-framework\src\extended\proc\p18f46j50.asm
                   PMCONH   0x000f5f       data     extern E:\c18v3.46\pic18-lt\cxx-framework\src\extended\proc\p18f46j50.asm
               PMCONHbits   0x000f5f       data     extern E:\c18v3.46\pic18-lt\cxx-framework\src\extended\proc\p18f46j50.asm
                     UFRM   0x000f60       data     extern E:\c18v3.46\pic18-lt\cxx-framework\src\extended\proc\p18f46j50.asm
                    UFRML   0x000f60       data     extern E:\c18v3.46\pic18-lt\cxx-framework\src\extended\proc\p18f46j50.asm
                UFRMLbits   0x000f60       data     extern E:\c18v3.46\pic18-lt\cxx-framework\src\extended\proc\p18f46j50.asm
                    UFRMH   0x000f61       data     extern E:\c18v3.46\pic18-lt\cxx-framework\src\extended\proc\p18f46j50.asm
                UFRMHbits   0x000f61       data     extern E:\c18v3.46\pic18-lt\cxx-framework\src\extended\proc\p18f46j50.asm
                      UIR   0x000f62       data     extern E:\c18v3.46\pic18-lt\cxx-framework\src\extended\proc\p18f46j50.asm
                  UIRbits   0x000f62       data     extern E:\c18v3.46\pic18-lt\cxx-framework\src\extended\proc\p18f46j50.asm
                     UEIR   0x000f63       data     extern E:\c18v3.46\pic18-lt\cxx-framework\src\extended\proc\p18f46j50.asm
                 UEIRbits   0x000f63       data     extern E:\c18v3.46\pic18-lt\cxx-framework\src\extended\proc\p18f46j50.asm
                    USTAT   0x000f64       data     extern E:\c18v3.46\pic18-lt\cxx-framework\src\extended\proc\p18f46j50.asm
                USTATbits   0x000f64       data     extern E:\c18v3.46\pic18-lt\cxx-framework\src\extended\proc\p18f46j50.asm
                     UCON   0x000f65       data     extern E:\c18v3.46\pic18-lt\cxx-framework\src\extended\proc\p18f46j50.asm
                 UCONbits   0x000f65       data     extern E:\c18v3.46\pic18-lt\cxx-framework\src\extended\proc\p18f46j50.asm
               DMABCHbits   0x000f66       data     extern E:\c18v3.46\pic18-lt\cxx-framework\src\extended\proc\p18f46j50.asm
                   DMABCH   0x000f66       data     extern E:\c18v3.46\pic18-lt\cxx-framework\src\extended\proc\p18f46j50.asm
                   DMABCL   0x000f67       data     extern E:\c18v3.46\pic18-lt\cxx-framework\src\extended\proc\p18f46j50.asm
                  RXADDRH   0x000f68       data     extern E:\c18v3.46\pic18-lt\cxx-framework\src\extended\proc\p18f46j50.asm
              RXADDRHbits   0x000f68       data     extern E:\c18v3.46\pic18-lt\cxx-framework\src\extended\proc\p18f46j50.asm
                  RXADDRL   0x000f69       data     extern E:\c18v3.46\pic18-lt\cxx-framework\src\extended\proc\p18f46j50.asm
              TXADDRHbits   0x000f6a       data     extern E:\c18v3.46\pic18-lt\cxx-framework\src\extended\proc\p18f46j50.asm
                  TXADDRH   0x000f6a       data     extern E:\c18v3.46\pic18-lt\cxx-framework\src\extended\proc\p18f46j50.asm
                  TXADDRL   0x000f6b       data     extern E:\c18v3.46\pic18-lt\cxx-framework\src\extended\proc\p18f46j50.asm
                  PMDIN1L   0x000f6c       data     extern E:\c18v3.46\pic18-lt\cxx-framework\src\extended\proc\p18f46j50.asm
                  PMDIN1H   0x000f6d       data     extern E:\c18v3.46\pic18-lt\cxx-framework\src\extended\proc\p18f46j50.asm
                 PMDOUT1L   0x000f6e       data     extern E:\c18v3.46\pic18-lt\cxx-framework\src\extended\proc\p18f46j50.asm
                  PMADDRL   0x000f6e       data     extern E:\c18v3.46\pic18-lt\cxx-framework\src\extended\proc\p18f46j50.asm
                 PMDOUT1H   0x000f6f       data     extern E:\c18v3.46\pic18-lt\cxx-framework\src\extended\proc\p18f46j50.asm
              PMADDRHbits   0x000f6f       data     extern E:\c18v3.46\pic18-lt\cxx-framework\src\extended\proc\p18f46j50.asm
                  PMADDRH   0x000f6f       data     extern E:\c18v3.46\pic18-lt\cxx-framework\src\extended\proc\p18f46j50.asm
               CMSTATbits   0x000f70       data     extern E:\c18v3.46\pic18-lt\cxx-framework\src\extended\proc\p18f46j50.asm
             CMSTATUSbits   0x000f70       data     extern E:\c18v3.46\pic18-lt\cxx-framework\src\extended\proc\p18f46j50.asm
                   CMSTAT   0x000f70       data     extern E:\c18v3.46\pic18-lt\cxx-framework\src\extended\proc\p18f46j50.asm
                 CMSTATUS   0x000f70       data     extern E:\c18v3.46\pic18-lt\cxx-framework\src\extended\proc\p18f46j50.asm
                 SSP2CON2   0x000f71       data     extern E:\c18v3.46\pic18-lt\cxx-framework\src\extended\proc\p18f46j50.asm
             SSP2CON2bits   0x000f71       data     extern E:\c18v3.46\pic18-lt\cxx-framework\src\extended\proc\p18f46j50.asm
             SSP2CON1bits   0x000f72       data     extern E:\c18v3.46\pic18-lt\cxx-framework\src\extended\proc\p18f46j50.asm
                 SSP2CON1   0x000f72       data     extern E:\c18v3.46\pic18-lt\cxx-framework\src\extended\proc\p18f46j50.asm
             SSP2STATbits   0x000f73       data     extern E:\c18v3.46\pic18-lt\cxx-framework\src\extended\proc\p18f46j50.asm
                 SSP2STAT   0x000f73       data     extern E:\c18v3.46\pic18-lt\cxx-framework\src\extended\proc\p18f46j50.asm
              SSP2ADDbits   0x000f74       data     extern E:\c18v3.46\pic18-lt\cxx-framework\src\extended\proc\p18f46j50.asm
                  SSP2ADD   0x000f74       data     extern E:\c18v3.46\pic18-lt\cxx-framework\src\extended\proc\p18f46j50.asm
                  SSP2BUF   0x000f75       data     extern E:\c18v3.46\pic18-lt\cxx-framework\src\extended\proc\p18f46j50.asm
                    T4CON   0x000f76       data     extern E:\c18v3.46\pic18-lt\cxx-framework\src\extended\proc\p18f46j50.asm
                T4CONbits   0x000f76       data     extern E:\c18v3.46\pic18-lt\cxx-framework\src\extended\proc\p18f46j50.asm
                      PR4   0x000f77       data     extern E:\c18v3.46\pic18-lt\cxx-framework\src\extended\proc\p18f46j50.asm
                     TMR4   0x000f78       data     extern E:\c18v3.46\pic18-lt\cxx-framework\src\extended\proc\p18f46j50.asm
                    T3CON   0x000f79       data     extern E:\c18v3.46\pic18-lt\cxx-framework\src\extended\proc\p18f46j50.asm
                T3CONbits   0x000f79       data     extern E:\c18v3.46\pic18-lt\cxx-framework\src\extended\proc\p18f46j50.asm
                    TMR3L   0x000f7a       data     extern E:\c18v3.46\pic18-lt\cxx-framework\src\extended\proc\p18f46j50.asm
                    TMR3H   0x000f7b       data     extern E:\c18v3.46\pic18-lt\cxx-framework\src\extended\proc\p18f46j50.asm
             BAUDCON2bits   0x000f7c       data     extern E:\c18v3.46\pic18-lt\cxx-framework\src\extended\proc\p18f46j50.asm
                 BAUDCON2   0x000f7c       data     extern E:\c18v3.46\pic18-lt\cxx-framework\src\extended\proc\p18f46j50.asm
                  SPBRGH2   0x000f7d       data     extern E:\c18v3.46\pic18-lt\cxx-framework\src\extended\proc\p18f46j50.asm
                  BAUDCON   0x000f7e       data     extern E:\c18v3.46\pic18-lt\cxx-framework\src\extended\proc\p18f46j50.asm
                 BAUDCON1   0x000f7e       data     extern E:\c18v3.46\pic18-lt\cxx-framework\src\extended\proc\p18f46j50.asm
             BAUDCON1bits   0x000f7e       data     extern E:\c18v3.46\pic18-lt\cxx-framework\src\extended\proc\p18f46j50.asm
              BAUDCONbits   0x000f7e       data     extern E:\c18v3.46\pic18-lt\cxx-framework\src\extended\proc\p18f46j50.asm
                  BAUDCTL   0x000f7e       data     extern E:\c18v3.46\pic18-lt\cxx-framework\src\extended\proc\p18f46j50.asm
              BAUDCTLbits   0x000f7e       data     extern E:\c18v3.46\pic18-lt\cxx-framework\src\extended\proc\p18f46j50.asm
                   SPBRGH   0x000f7f       data     extern E:\c18v3.46\pic18-lt\cxx-framework\src\extended\proc\p18f46j50.asm
                  SPBRGH1   0x000f7f       data     extern E:\c18v3.46\pic18-lt\cxx-framework\src\extended\proc\p18f46j50.asm
                PORTAbits   0x000f80       data     extern E:\c18v3.46\pic18-lt\cxx-framework\src\extended\proc\p18f46j50.asm
                    PORTA   0x000f80       data     extern E:\c18v3.46\pic18-lt\cxx-framework\src\extended\proc\p18f46j50.asm
                    PORTB   0x000f81       data     extern E:\c18v3.46\pic18-lt\cxx-framework\src\extended\proc\p18f46j50.asm
                PORTBbits   0x000f81       data     extern E:\c18v3.46\pic18-lt\cxx-framework\src\extended\proc\p18f46j50.asm
                PORTCbits   0x000f82       data     extern E:\c18v3.46\pic18-lt\cxx-framework\src\extended\proc\p18f46j50.asm
                    PORTC   0x000f82       data     extern E:\c18v3.46\pic18-lt\cxx-framework\src\extended\proc\p18f46j50.asm
                    PORTD   0x000f83       data     extern E:\c18v3.46\pic18-lt\cxx-framework\src\extended\proc\p18f46j50.asm
                PORTDbits   0x000f83       data     extern E:\c18v3.46\pic18-lt\cxx-framework\src\extended\proc\p18f46j50.asm
                    PORTE   0x000f84       data     extern E:\c18v3.46\pic18-lt\cxx-framework\src\extended\proc\p18f46j50.asm
                PORTEbits   0x000f84       data     extern E:\c18v3.46\pic18-lt\cxx-framework\src\extended\proc\p18f46j50.asm
                  HLVDCON   0x000f85       data     extern E:\c18v3.46\pic18-lt\cxx-framework\src\extended\proc\p18f46j50.asm
              HLVDCONbits   0x000f85       data     extern E:\c18v3.46\pic18-lt\cxx-framework\src\extended\proc\p18f46j50.asm
              DMACON2bits   0x000f86       data     extern E:\c18v3.46\pic18-lt\cxx-framework\src\extended\proc\p18f46j50.asm
                  DMACON2   0x000f86       data     extern E:\c18v3.46\pic18-lt\cxx-framework\src\extended\proc\p18f46j50.asm
              DMACON1bits   0x000f88       data     extern E:\c18v3.46\pic18-lt\cxx-framework\src\extended\proc\p18f46j50.asm
                  DMACON1   0x000f88       data     extern E:\c18v3.46\pic18-lt\cxx-framework\src\extended\proc\p18f46j50.asm
                 LATAbits   0x000f89       data     extern E:\c18v3.46\pic18-lt\cxx-framework\src\extended\proc\p18f46j50.asm
                     LATA   0x000f89       data     extern E:\c18v3.46\pic18-lt\cxx-framework\src\extended\proc\p18f46j50.asm
                 LATBbits   0x000f8a       data     extern E:\c18v3.46\pic18-lt\cxx-framework\src\extended\proc\p18f46j50.asm
                     LATB   0x000f8a       data     extern E:\c18v3.46\pic18-lt\cxx-framework\src\extended\proc\p18f46j50.asm
                 LATCbits   0x000f8b       data     extern E:\c18v3.46\pic18-lt\cxx-framework\src\extended\proc\p18f46j50.asm
                     LATC   0x000f8b       data     extern E:\c18v3.46\pic18-lt\cxx-framework\src\extended\proc\p18f46j50.asm
                 LATDbits   0x000f8c       data     extern E:\c18v3.46\pic18-lt\cxx-framework\src\extended\proc\p18f46j50.asm
                     LATD   0x000f8c       data     extern E:\c18v3.46\pic18-lt\cxx-framework\src\extended\proc\p18f46j50.asm
                     LATE   0x000f8d       data     extern E:\c18v3.46\pic18-lt\cxx-framework\src\extended\proc\p18f46j50.asm
                 LATEbits   0x000f8d       data     extern E:\c18v3.46\pic18-lt\cxx-framework\src\extended\proc\p18f46j50.asm
                 ALRMVALL   0x000f8e       data     extern E:\c18v3.46\pic18-lt\cxx-framework\src\extended\proc\p18f46j50.asm
                 ALRMVALH   0x000f8f       data     extern E:\c18v3.46\pic18-lt\cxx-framework\src\extended\proc\p18f46j50.asm
                  ALRMRPT   0x000f90       data     extern E:\c18v3.46\pic18-lt\cxx-framework\src\extended\proc\p18f46j50.asm
              ALRMRPTbits   0x000f90       data     extern E:\c18v3.46\pic18-lt\cxx-framework\src\extended\proc\p18f46j50.asm
                  ALRMCFG   0x000f91       data     extern E:\c18v3.46\pic18-lt\cxx-framework\src\extended\proc\p18f46j50.asm
              ALRMCFGbits   0x000f91       data     extern E:\c18v3.46\pic18-lt\cxx-framework\src\extended\proc\p18f46j50.asm
                    TRISA   0x000f92       data     extern E:\c18v3.46\pic18-lt\cxx-framework\src\extended\proc\p18f46j50.asm
                TRISAbits   0x000f92       data     extern E:\c18v3.46\pic18-lt\cxx-framework\src\extended\proc\p18f46j50.asm
                    TRISB   0x000f93       data     extern E:\c18v3.46\pic18-lt\cxx-framework\src\extended\proc\p18f46j50.asm
                TRISBbits   0x000f93       data     extern E:\c18v3.46\pic18-lt\cxx-framework\src\extended\proc\p18f46j50.asm
                    TRISC   0x000f94       data     extern E:\c18v3.46\pic18-lt\cxx-framework\src\extended\proc\p18f46j50.asm
                TRISCbits   0x000f94       data     extern E:\c18v3.46\pic18-lt\cxx-framework\src\extended\proc\p18f46j50.asm
                    TRISD   0x000f95       data     extern E:\c18v3.46\pic18-lt\cxx-framework\src\extended\proc\p18f46j50.asm
                TRISDbits   0x000f95       data     extern E:\c18v3.46\pic18-lt\cxx-framework\src\extended\proc\p18f46j50.asm
                    TRISE   0x000f96       data     extern E:\c18v3.46\pic18-lt\cxx-framework\src\extended\proc\p18f46j50.asm
                TRISEbits   0x000f96       data     extern E:\c18v3.46\pic18-lt\cxx-framework\src\extended\proc\p18f46j50.asm
                   T3GCON   0x000f97       data     extern E:\c18v3.46\pic18-lt\cxx-framework\src\extended\proc\p18f46j50.asm
               T3GCONbits   0x000f97       data     extern E:\c18v3.46\pic18-lt\cxx-framework\src\extended\proc\p18f46j50.asm
                  RTCVALL   0x000f98       data     extern E:\c18v3.46\pic18-lt\cxx-framework\src\extended\proc\p18f46j50.asm
                  RTCVALH   0x000f99       data     extern E:\c18v3.46\pic18-lt\cxx-framework\src\extended\proc\p18f46j50.asm
               T1GCONbits   0x000f9a       data     extern E:\c18v3.46\pic18-lt\cxx-framework\src\extended\proc\p18f46j50.asm
                   T1GCON   0x000f9a       data     extern E:\c18v3.46\pic18-lt\cxx-framework\src\extended\proc\p18f46j50.asm
                  OSCTUNE   0x000f9b       data     extern E:\c18v3.46\pic18-lt\cxx-framework\src\extended\proc\p18f46j50.asm
              OSCTUNEbits   0x000f9b       data     extern E:\c18v3.46\pic18-lt\cxx-framework\src\extended\proc\p18f46j50.asm
               RCSTA2bits   0x000f9c       data     extern E:\c18v3.46\pic18-lt\cxx-framework\src\extended\proc\p18f46j50.asm
                   RCSTA2   0x000f9c       data     extern E:\c18v3.46\pic18-lt\cxx-framework\src\extended\proc\p18f46j50.asm
                 PIE1bits   0x000f9d       data     extern E:\c18v3.46\pic18-lt\cxx-framework\src\extended\proc\p18f46j50.asm
                     PIE1   0x000f9d       data     extern E:\c18v3.46\pic18-lt\cxx-framework\src\extended\proc\p18f46j50.asm
                 PIR1bits   0x000f9e       data     extern E:\c18v3.46\pic18-lt\cxx-framework\src\extended\proc\p18f46j50.asm
                     PIR1   0x000f9e       data     extern E:\c18v3.46\pic18-lt\cxx-framework\src\extended\proc\p18f46j50.asm
                     IPR1   0x000f9f       data     extern E:\c18v3.46\pic18-lt\cxx-framework\src\extended\proc\p18f46j50.asm
                 IPR1bits   0x000f9f       data     extern E:\c18v3.46\pic18-lt\cxx-framework\src\extended\proc\p18f46j50.asm
                     PIE2   0x000fa0       data     extern E:\c18v3.46\pic18-lt\cxx-framework\src\extended\proc\p18f46j50.asm
                 PIE2bits   0x000fa0       data     extern E:\c18v3.46\pic18-lt\cxx-framework\src\extended\proc\p18f46j50.asm
                 PIR2bits   0x000fa1       data     extern E:\c18v3.46\pic18-lt\cxx-framework\src\extended\proc\p18f46j50.asm
                     PIR2   0x000fa1       data     extern E:\c18v3.46\pic18-lt\cxx-framework\src\extended\proc\p18f46j50.asm
                     IPR2   0x000fa2       data     extern E:\c18v3.46\pic18-lt\cxx-framework\src\extended\proc\p18f46j50.asm
                 IPR2bits   0x000fa2       data     extern E:\c18v3.46\pic18-lt\cxx-framework\src\extended\proc\p18f46j50.asm
                 PIE3bits   0x000fa3       data     extern E:\c18v3.46\pic18-lt\cxx-framework\src\extended\proc\p18f46j50.asm
                     PIE3   0x000fa3       data     extern E:\c18v3.46\pic18-lt\cxx-framework\src\extended\proc\p18f46j50.asm
                 PIR3bits   0x000fa4       data     extern E:\c18v3.46\pic18-lt\cxx-framework\src\extended\proc\p18f46j50.asm
                     PIR3   0x000fa4       data     extern E:\c18v3.46\pic18-lt\cxx-framework\src\extended\proc\p18f46j50.asm
                 IPR3bits   0x000fa5       data     extern E:\c18v3.46\pic18-lt\cxx-framework\src\extended\proc\p18f46j50.asm
                     IPR3   0x000fa5       data     extern E:\c18v3.46\pic18-lt\cxx-framework\src\extended\proc\p18f46j50.asm
                   EECON1   0x000fa6       data     extern E:\c18v3.46\pic18-lt\cxx-framework\src\extended\proc\p18f46j50.asm
               EECON1bits   0x000fa6       data     extern E:\c18v3.46\pic18-lt\cxx-framework\src\extended\proc\p18f46j50.asm
                   EECON2   0x000fa7       data     extern E:\c18v3.46\pic18-lt\cxx-framework\src\extended\proc\p18f46j50.asm
               TXSTA2bits   0x000fa8       data     extern E:\c18v3.46\pic18-lt\cxx-framework\src\extended\proc\p18f46j50.asm
                   TXSTA2   0x000fa8       data     extern E:\c18v3.46\pic18-lt\cxx-framework\src\extended\proc\p18f46j50.asm
                   TXREG2   0x000fa9       data     extern E:\c18v3.46\pic18-lt\cxx-framework\src\extended\proc\p18f46j50.asm
                   RCREG2   0x000faa       data     extern E:\c18v3.46\pic18-lt\cxx-framework\src\extended\proc\p18f46j50.asm
                   SPBRG2   0x000fab       data     extern E:\c18v3.46\pic18-lt\cxx-framework\src\extended\proc\p18f46j50.asm
                   RCSTA1   0x000fac       data     extern E:\c18v3.46\pic18-lt\cxx-framework\src\extended\proc\p18f46j50.asm
               RCSTA1bits   0x000fac       data     extern E:\c18v3.46\pic18-lt\cxx-framework\src\extended\proc\p18f46j50.asm
                RCSTAbits   0x000fac       data     extern E:\c18v3.46\pic18-lt\cxx-framework\src\extended\proc\p18f46j50.asm
                    RCSTA   0x000fac       data     extern E:\c18v3.46\pic18-lt\cxx-framework\src\extended\proc\p18f46j50.asm
                TXSTAbits   0x000fad       data     extern E:\c18v3.46\pic18-lt\cxx-framework\src\extended\proc\p18f46j50.asm
               TXSTA1bits   0x000fad       data     extern E:\c18v3.46\pic18-lt\cxx-framework\src\extended\proc\p18f46j50.asm
                   TXSTA1   0x000fad       data     extern E:\c18v3.46\pic18-lt\cxx-framework\src\extended\proc\p18f46j50.asm
                    TXSTA   0x000fad       data     extern E:\c18v3.46\pic18-lt\cxx-framework\src\extended\proc\p18f46j50.asm
                    TXREG   0x000fae       data     extern E:\c18v3.46\pic18-lt\cxx-framework\src\extended\proc\p18f46j50.asm
                   TXREG1   0x000fae       data     extern E:\c18v3.46\pic18-lt\cxx-framework\src\extended\proc\p18f46j50.asm
                    RCREG   0x000faf       data     extern E:\c18v3.46\pic18-lt\cxx-framework\src\extended\proc\p18f46j50.asm
                   RCREG1   0x000faf       data     extern E:\c18v3.46\pic18-lt\cxx-framework\src\extended\proc\p18f46j50.asm
                   SPBRG1   0x000fb0       data     extern E:\c18v3.46\pic18-lt\cxx-framework\src\extended\proc\p18f46j50.asm
                    SPBRG   0x000fb0       data     extern E:\c18v3.46\pic18-lt\cxx-framework\src\extended\proc\p18f46j50.asm
                 CTMUICON   0x000fb1       data     extern E:\c18v3.46\pic18-lt\cxx-framework\src\extended\proc\p18f46j50.asm
             CTMUICONbits   0x000fb1       data     extern E:\c18v3.46\pic18-lt\cxx-framework\src\extended\proc\p18f46j50.asm
             CTMUCONLbits   0x000fb2       data     extern E:\c18v3.46\pic18-lt\cxx-framework\src\extended\proc\p18f46j50.asm
                 CTMUCONL   0x000fb2       data     extern E:\c18v3.46\pic18-lt\cxx-framework\src\extended\proc\p18f46j50.asm
             CTMUCONHbits   0x000fb3       data     extern E:\c18v3.46\pic18-lt\cxx-framework\src\extended\proc\p18f46j50.asm
                 CTMUCONH   0x000fb3       data     extern E:\c18v3.46\pic18-lt\cxx-framework\src\extended\proc\p18f46j50.asm
              CCP2CONbits   0x000fb4       data     extern E:\c18v3.46\pic18-lt\cxx-framework\src\extended\proc\p18f46j50.asm
                  CCP2CON   0x000fb4       data     extern E:\c18v3.46\pic18-lt\cxx-framework\src\extended\proc\p18f46j50.asm
                 ECCP2CON   0x000fb4       data     extern E:\c18v3.46\pic18-lt\cxx-framework\src\extended\proc\p18f46j50.asm
             ECCP2CONbits   0x000fb4       data     extern E:\c18v3.46\pic18-lt\cxx-framework\src\extended\proc\p18f46j50.asm
                   CCPR2L   0x000fb5       data     extern E:\c18v3.46\pic18-lt\cxx-framework\src\extended\proc\p18f46j50.asm
                    CCPR2   0x000fb5       data     extern E:\c18v3.46\pic18-lt\cxx-framework\src\extended\proc\p18f46j50.asm
                   CCPR2H   0x000fb6       data     extern E:\c18v3.46\pic18-lt\cxx-framework\src\extended\proc\p18f46j50.asm
                 ECCP2DEL   0x000fb7       data     extern E:\c18v3.46\pic18-lt\cxx-framework\src\extended\proc\p18f46j50.asm
             ECCP2DELbits   0x000fb7       data     extern E:\c18v3.46\pic18-lt\cxx-framework\src\extended\proc\p18f46j50.asm
              PWM2CONbits   0x000fb7       data     extern E:\c18v3.46\pic18-lt\cxx-framework\src\extended\proc\p18f46j50.asm
                  PWM2CON   0x000fb7       data     extern E:\c18v3.46\pic18-lt\cxx-framework\src\extended\proc\p18f46j50.asm
              ECCP2ASbits   0x000fb8       data     extern E:\c18v3.46\pic18-lt\cxx-framework\src\extended\proc\p18f46j50.asm
                  ECCP2AS   0x000fb8       data     extern E:\c18v3.46\pic18-lt\cxx-framework\src\extended\proc\p18f46j50.asm
             PSTR2CONbits   0x000fb9       data     extern E:\c18v3.46\pic18-lt\cxx-framework\src\extended\proc\p18f46j50.asm
                 PSTR2CON   0x000fb9       data     extern E:\c18v3.46\pic18-lt\cxx-framework\src\extended\proc\p18f46j50.asm
             ECCP1CONbits   0x000fba       data     extern E:\c18v3.46\pic18-lt\cxx-framework\src\extended\proc\p18f46j50.asm
                 ECCP1CON   0x000fba       data     extern E:\c18v3.46\pic18-lt\cxx-framework\src\extended\proc\p18f46j50.asm
                  CCP1CON   0x000fba       data     extern E:\c18v3.46\pic18-lt\cxx-framework\src\extended\proc\p18f46j50.asm
              CCP1CONbits   0x000fba       data     extern E:\c18v3.46\pic18-lt\cxx-framework\src\extended\proc\p18f46j50.asm
                   CCPR1L   0x000fbb       data     extern E:\c18v3.46\pic18-lt\cxx-framework\src\extended\proc\p18f46j50.asm
                    CCPR1   0x000fbb       data     extern E:\c18v3.46\pic18-lt\cxx-framework\src\extended\proc\p18f46j50.asm
                   CCPR1H   0x000fbc       data     extern E:\c18v3.46\pic18-lt\cxx-framework\src\extended\proc\p18f46j50.asm
              PWM1CONbits   0x000fbd       data     extern E:\c18v3.46\pic18-lt\cxx-framework\src\extended\proc\p18f46j50.asm
                  PWM1CON   0x000fbd       data     extern E:\c18v3.46\pic18-lt\cxx-framework\src\extended\proc\p18f46j50.asm
             ECCP1DELbits   0x000fbd       data     extern E:\c18v3.46\pic18-lt\cxx-framework\src\extended\proc\p18f46j50.asm
                 ECCP1DEL   0x000fbd       data     extern E:\c18v3.46\pic18-lt\cxx-framework\src\extended\proc\p18f46j50.asm
                  ECCP1AS   0x000fbe       data     extern E:\c18v3.46\pic18-lt\cxx-framework\src\extended\proc\p18f46j50.asm
              ECCP1ASbits   0x000fbe       data     extern E:\c18v3.46\pic18-lt\cxx-framework\src\extended\proc\p18f46j50.asm
             PSTR1CONbits   0x000fbf       data     extern E:\c18v3.46\pic18-lt\cxx-framework\src\extended\proc\p18f46j50.asm
                 PSTR1CON   0x000fbf       data     extern E:\c18v3.46\pic18-lt\cxx-framework\src\extended\proc\p18f46j50.asm
                   WDTCON   0x000fc0       data     extern E:\c18v3.46\pic18-lt\cxx-framework\src\extended\proc\p18f46j50.asm
               WDTCONbits   0x000fc0       data     extern E:\c18v3.46\pic18-lt\cxx-framework\src\extended\proc\p18f46j50.asm
               ADCON1bits   0x000fc1       data     extern E:\c18v3.46\pic18-lt\cxx-framework\src\extended\proc\p18f46j50.asm
                   ADCON1   0x000fc1       data     extern E:\c18v3.46\pic18-lt\cxx-framework\src\extended\proc\p18f46j50.asm
               ADCON0bits   0x000fc2       data     extern E:\c18v3.46\pic18-lt\cxx-framework\src\extended\proc\p18f46j50.asm
                   ADCON0   0x000fc2       data     extern E:\c18v3.46\pic18-lt\cxx-framework\src\extended\proc\p18f46j50.asm
                    ADRES   0x000fc3       data     extern E:\c18v3.46\pic18-lt\cxx-framework\src\extended\proc\p18f46j50.asm
                   ADRESL   0x000fc3       data     extern E:\c18v3.46\pic18-lt\cxx-framework\src\extended\proc\p18f46j50.asm
                   ADRESH   0x000fc4       data     extern E:\c18v3.46\pic18-lt\cxx-framework\src\extended\proc\p18f46j50.asm
             SSP1CON2bits   0x000fc5       data     extern E:\c18v3.46\pic18-lt\cxx-framework\src\extended\proc\p18f46j50.asm
                 SSP1CON2   0x000fc5       data     extern E:\c18v3.46\pic18-lt\cxx-framework\src\extended\proc\p18f46j50.asm
              SSPCON2bits   0x000fc5       data     extern E:\c18v3.46\pic18-lt\cxx-framework\src\extended\proc\p18f46j50.asm
                  SSPCON2   0x000fc5       data     extern E:\c18v3.46\pic18-lt\cxx-framework\src\extended\proc\p18f46j50.asm
                  SSPCON1   0x000fc6       data     extern E:\c18v3.46\pic18-lt\cxx-framework\src\extended\proc\p18f46j50.asm
              SSPCON1bits   0x000fc6       data     extern E:\c18v3.46\pic18-lt\cxx-framework\src\extended\proc\p18f46j50.asm
             SSP1CON1bits   0x000fc6       data     extern E:\c18v3.46\pic18-lt\cxx-framework\src\extended\proc\p18f46j50.asm
                 SSP1CON1   0x000fc6       data     extern E:\c18v3.46\pic18-lt\cxx-framework\src\extended\proc\p18f46j50.asm
                 SSP1STAT   0x000fc7       data     extern E:\c18v3.46\pic18-lt\cxx-framework\src\extended\proc\p18f46j50.asm
                  SSPSTAT   0x000fc7       data     extern E:\c18v3.46\pic18-lt\cxx-framework\src\extended\proc\p18f46j50.asm
              SSPSTATbits   0x000fc7       data     extern E:\c18v3.46\pic18-lt\cxx-framework\src\extended\proc\p18f46j50.asm
             SSP1STATbits   0x000fc7       data     extern E:\c18v3.46\pic18-lt\cxx-framework\src\extended\proc\p18f46j50.asm
                   SSPADD   0x000fc8       data     extern E:\c18v3.46\pic18-lt\cxx-framework\src\extended\proc\p18f46j50.asm
               SSPADDbits   0x000fc8       data     extern E:\c18v3.46\pic18-lt\cxx-framework\src\extended\proc\p18f46j50.asm
              SSP1ADDbits   0x000fc8       data     extern E:\c18v3.46\pic18-lt\cxx-framework\src\extended\proc\p18f46j50.asm
                  SSP1ADD   0x000fc8       data     extern E:\c18v3.46\pic18-lt\cxx-framework\src\extended\proc\p18f46j50.asm
                  SSP1BUF   0x000fc9       data     extern E:\c18v3.46\pic18-lt\cxx-framework\src\extended\proc\p18f46j50.asm
                   SSPBUF   0x000fc9       data     extern E:\c18v3.46\pic18-lt\cxx-framework\src\extended\proc\p18f46j50.asm
                    T2CON   0x000fca       data     extern E:\c18v3.46\pic18-lt\cxx-framework\src\extended\proc\p18f46j50.asm
                T2CONbits   0x000fca       data     extern E:\c18v3.46\pic18-lt\cxx-framework\src\extended\proc\p18f46j50.asm
                      PR2   0x000fcb       data     extern E:\c18v3.46\pic18-lt\cxx-framework\src\extended\proc\p18f46j50.asm
                     TMR2   0x000fcc       data     extern E:\c18v3.46\pic18-lt\cxx-framework\src\extended\proc\p18f46j50.asm
                T1CONbits   0x000fcd       data     extern E:\c18v3.46\pic18-lt\cxx-framework\src\extended\proc\p18f46j50.asm
                    T1CON   0x000fcd       data     extern E:\c18v3.46\pic18-lt\cxx-framework\src\extended\proc\p18f46j50.asm
                    TMR1L   0x000fce       data     extern E:\c18v3.46\pic18-lt\cxx-framework\src\extended\proc\p18f46j50.asm
                    TMR1H   0x000fcf       data     extern E:\c18v3.46\pic18-lt\cxx-framework\src\extended\proc\p18f46j50.asm
                     RCON   0x000fd0       data     extern E:\c18v3.46\pic18-lt\cxx-framework\src\extended\proc\p18f46j50.asm
                 RCONbits   0x000fd0       data     extern E:\c18v3.46\pic18-lt\cxx-framework\src\extended\proc\p18f46j50.asm
                   CM2CON   0x000fd1       data     extern E:\c18v3.46\pic18-lt\cxx-framework\src\extended\proc\p18f46j50.asm
                  CM2CON1   0x000fd1       data     extern E:\c18v3.46\pic18-lt\cxx-framework\src\extended\proc\p18f46j50.asm
              CM2CON1bits   0x000fd1       data     extern E:\c18v3.46\pic18-lt\cxx-framework\src\extended\proc\p18f46j50.asm
               CM2CONbits   0x000fd1       data     extern E:\c18v3.46\pic18-lt\cxx-framework\src\extended\proc\p18f46j50.asm
                   CM1CON   0x000fd2       data     extern E:\c18v3.46\pic18-lt\cxx-framework\src\extended\proc\p18f46j50.asm
                  CM1CON1   0x000fd2       data     extern E:\c18v3.46\pic18-lt\cxx-framework\src\extended\proc\p18f46j50.asm
              CM1CON1bits   0x000fd2       data     extern E:\c18v3.46\pic18-lt\cxx-framework\src\extended\proc\p18f46j50.asm
               CM1CONbits   0x000fd2       data     extern E:\c18v3.46\pic18-lt\cxx-framework\src\extended\proc\p18f46j50.asm
                   OSCCON   0x000fd3       data     extern E:\c18v3.46\pic18-lt\cxx-framework\src\extended\proc\p18f46j50.asm
               OSCCONbits   0x000fd3       data     extern E:\c18v3.46\pic18-lt\cxx-framework\src\extended\proc\p18f46j50.asm
                T0CONbits   0x000fd5       data     extern E:\c18v3.46\pic18-lt\cxx-framework\src\extended\proc\p18f46j50.asm
                    T0CON   0x000fd5       data     extern E:\c18v3.46\pic18-lt\cxx-framework\src\extended\proc\p18f46j50.asm
                    TMR0L   0x000fd6       data     extern E:\c18v3.46\pic18-lt\cxx-framework\src\extended\proc\p18f46j50.asm
                    TMR0H   0x000fd7       data     extern E:\c18v3.46\pic18-lt\cxx-framework\src\extended\proc\p18f46j50.asm
                   STATUS   0x000fd8       data     extern E:\c18v3.46\pic18-lt\cxx-framework\src\extended\proc\p18f46j50.asm
               STATUSbits   0x000fd8       data     extern E:\c18v3.46\pic18-lt\cxx-framework\src\extended\proc\p18f46j50.asm
                    FSR2L   0x000fd9       data     extern E:\c18v3.46\pic18-lt\cxx-framework\src\extended\proc\p18f46j50.asm
                     FSR2   0x000fd9       data     extern E:\c18v3.46\pic18-lt\cxx-framework\src\extended\proc\p18f46j50.asm
                    FSR2H   0x000fda       data     extern E:\c18v3.46\pic18-lt\cxx-framework\src\extended\proc\p18f46j50.asm
                   PLUSW2   0x000fdb       data     extern E:\c18v3.46\pic18-lt\cxx-framework\src\extended\proc\p18f46j50.asm
                  PREINC2   0x000fdc       data     extern E:\c18v3.46\pic18-lt\cxx-framework\src\extended\proc\p18f46j50.asm
                 POSTDEC2   0x000fdd       data     extern E:\c18v3.46\pic18-lt\cxx-framework\src\extended\proc\p18f46j50.asm
                 POSTINC2   0x000fde       data     extern E:\c18v3.46\pic18-lt\cxx-framework\src\extended\proc\p18f46j50.asm
                    INDF2   0x000fdf       data     extern E:\c18v3.46\pic18-lt\cxx-framework\src\extended\proc\p18f46j50.asm
                      BSR   0x000fe0       data     extern E:\c18v3.46\pic18-lt\cxx-framework\src\extended\proc\p18f46j50.asm
                     FSR1   0x000fe1       data     extern E:\c18v3.46\pic18-lt\cxx-framework\src\extended\proc\p18f46j50.asm
                    FSR1L   0x000fe1       data     extern E:\c18v3.46\pic18-lt\cxx-framework\src\extended\proc\p18f46j50.asm
                    FSR1H   0x000fe2       data     extern E:\c18v3.46\pic18-lt\cxx-framework\src\extended\proc\p18f46j50.asm
                   PLUSW1   0x000fe3       data     extern E:\c18v3.46\pic18-lt\cxx-framework\src\extended\proc\p18f46j50.asm
                  PREINC1   0x000fe4       data     extern E:\c18v3.46\pic18-lt\cxx-framework\src\extended\proc\p18f46j50.asm
                 POSTDEC1   0x000fe5       data     extern E:\c18v3.46\pic18-lt\cxx-framework\src\extended\proc\p18f46j50.asm
                 POSTINC1   0x000fe6       data     extern E:\c18v3.46\pic18-lt\cxx-framework\src\extended\proc\p18f46j50.asm
                    INDF1   0x000fe7       data     extern E:\c18v3.46\pic18-lt\cxx-framework\src\extended\proc\p18f46j50.asm
                     WREG   0x000fe8       data     extern E:\c18v3.46\pic18-lt\cxx-framework\src\extended\proc\p18f46j50.asm
                     FSR0   0x000fe9       data     extern E:\c18v3.46\pic18-lt\cxx-framework\src\extended\proc\p18f46j50.asm
                    FSR0L   0x000fe9       data     extern E:\c18v3.46\pic18-lt\cxx-framework\src\extended\proc\p18f46j50.asm
                    FSR0H   0x000fea       data     extern E:\c18v3.46\pic18-lt\cxx-framework\src\extended\proc\p18f46j50.asm
                   PLUSW0   0x000feb       data     extern E:\c18v3.46\pic18-lt\cxx-framework\src\extended\proc\p18f46j50.asm
                  PREINC0   0x000fec       data     extern E:\c18v3.46\pic18-lt\cxx-framework\src\extended\proc\p18f46j50.asm
                 POSTDEC0   0x000fed       data     extern E:\c18v3.46\pic18-lt\cxx-framework\src\extended\proc\p18f46j50.asm
                 POSTINC0   0x000fee       data     extern E:\c18v3.46\pic18-lt\cxx-framework\src\extended\proc\p18f46j50.asm
                    INDF0   0x000fef       data     extern E:\c18v3.46\pic18-lt\cxx-framework\src\extended\proc\p18f46j50.asm
              INTCON3bits   0x000ff0       data     extern E:\c18v3.46\pic18-lt\cxx-framework\src\extended\proc\p18f46j50.asm
                  INTCON3   0x000ff0       data     extern E:\c18v3.46\pic18-lt\cxx-framework\src\extended\proc\p18f46j50.asm
              INTCON2bits   0x000ff1       data     extern E:\c18v3.46\pic18-lt\cxx-framework\src\extended\proc\p18f46j50.asm
                  INTCON2   0x000ff1       data     extern E:\c18v3.46\pic18-lt\cxx-framework\src\extended\proc\p18f46j50.asm
                   INTCON   0x000ff2       data     extern E:\c18v3.46\pic18-lt\cxx-framework\src\extended\proc\p18f46j50.asm
               INTCONbits   0x000ff2       data     extern E:\c18v3.46\pic18-lt\cxx-framework\src\extended\proc\p18f46j50.asm
                     PROD   0x000ff3       data     extern E:\c18v3.46\pic18-lt\cxx-framework\src\extended\proc\p18f46j50.asm
                    PRODL   0x000ff3       data     extern E:\c18v3.46\pic18-lt\cxx-framework\src\extended\proc\p18f46j50.asm
                    PRODH   0x000ff4       data     extern E:\c18v3.46\pic18-lt\cxx-framework\src\extended\proc\p18f46j50.asm
                   TABLAT   0x000ff5       data     extern E:\c18v3.46\pic18-lt\cxx-framework\src\extended\proc\p18f46j50.asm
                  TBLPTRL   0x000ff6       data     extern E:\c18v3.46\pic18-lt\cxx-framework\src\extended\proc\p18f46j50.asm
                   TBLPTR   0x000ff6       data     extern E:\c18v3.46\pic18-lt\cxx-framework\src\extended\proc\p18f46j50.asm
                  TBLPTRH   0x000ff7       data     extern E:\c18v3.46\pic18-lt\cxx-framework\src\extended\proc\p18f46j50.asm
                  TBLPTRU   0x000ff8       data     extern E:\c18v3.46\pic18-lt\cxx-framework\src\extended\proc\p18f46j50.asm
                      PCL   0x000ff9       data     extern E:\c18v3.46\pic18-lt\cxx-framework\src\extended\proc\p18f46j50.asm
                       PC   0x000ff9       data     extern E:\c18v3.46\pic18-lt\cxx-framework\src\extended\proc\p18f46j50.asm
                   PCLATH   0x000ffa       data     extern E:\c18v3.46\pic18-lt\cxx-framework\src\extended\proc\p18f46j50.asm
                   PCLATU   0x000ffb       data     extern E:\c18v3.46\pic18-lt\cxx-framework\src\extended\proc\p18f46j50.asm
               STKPTRbits   0x000ffc       data     extern E:\c18v3.46\pic18-lt\cxx-framework\src\extended\proc\p18f46j50.asm
                   STKPTR   0x000ffc       data     extern E:\c18v3.46\pic18-lt\cxx-framework\src\extended\proc\p18f46j50.asm
                     TOSL   0x000ffd       data     extern E:\c18v3.46\pic18-lt\cxx-framework\src\extended\proc\p18f46j50.asm
                      TOS   0x000ffd       data     extern E:\c18v3.46\pic18-lt\cxx-framework\src\extended\proc\p18f46j50.asm
                     TOSH   0x000ffe       data     extern E:\c18v3.46\pic18-lt\cxx-framework\src\extended\proc\p18f46j50.asm
                     TOSU   0x000fff       data     extern E:\c18v3.46\pic18-lt\cxx-framework\src\extended\proc\p18f46j50.asm


